

Microchip Technology PIC18 LITE Macro Assembler V1.37 build -260352376 
                                                                                               Tue Aug 23 11:43:19 2016

Microchip Technology Omniscient Code Generator v1.37 (Free mode) build 201603110536
     1                           	processor	18F4550
     2                           	fnconf	rparam,??,?,0
     3                           	opt	pw 120
     4                           	opt	lm
     5                           	psect	idataCOMRAM,global,class=CODE,delta=1
     6                           	psect	idataBANK1,global,class=CODE,delta=1
     7                           	psect	mediumconst,global,reloc=2,class=MEDIUMCONST,delta=1
     8                           	psect	nvBANK1,global,class=BANK1,space=1,delta=1
     9                           	psect	cinit,global,reloc=2,class=CODE,delta=1
    10                           	psect	bitbssCOMRAM,global,bit,class=COMRAM,space=1,delta=1
    11                           	psect	bssCOMRAM,global,class=COMRAM,space=1,delta=1
    12                           	psect	dataCOMRAM,global,class=COMRAM,space=1,delta=1
    13                           	psect	bssBANK0,global,class=BANK0,space=1,delta=1
    14                           	psect	bssBANK1,global,class=BANK1,space=1,delta=1
    15                           	psect	dataBANK1,global,class=BANK1,space=1,delta=1
    16                           	psect	cstackBANK1,global,class=BANK1,space=1,delta=1
    17                           	psect	cstackBANK0,global,class=BANK0,space=1,delta=1
    18                           	psect	cstackCOMRAM,global,class=COMRAM,space=1,delta=1
    19                           	psect	text0,global,reloc=2,class=CODE,delta=1
    20                           	psect	text1,global,reloc=2,class=CODE,delta=1
    21                           	psect	text2,global,reloc=2,class=CODE,delta=1
    22                           	psect	text3,global,reloc=2,class=CODE,delta=1
    23                           	psect	text4,global,reloc=2,class=CODE,delta=1
    24                           	psect	text5,global,reloc=2,class=CODE,delta=1
    25                           	psect	text6,global,reloc=2,class=CODE,delta=1
    26                           	psect	text7,global,reloc=2,class=CODE,delta=1
    27                           	psect	text8,global,reloc=2,class=CODE,delta=1
    28                           	psect	text9,global,reloc=2,class=CODE,delta=1
    29                           	psect	text10,global,reloc=2,class=CODE,delta=1
    30                           	psect	text11,global,reloc=2,class=CODE,delta=1
    31                           	psect	text12,global,reloc=2,class=CODE,delta=1
    32                           	psect	text13,global,reloc=2,class=CODE,delta=1
    33                           	psect	text14,global,reloc=2,class=CODE,delta=1
    34                           	psect	text15,global,reloc=2,class=CODE,delta=1
    35                           	psect	text16,global,reloc=2,class=CODE,delta=1
    36                           	psect	text17,global,reloc=2,class=CODE,delta=1
    37                           	psect	text18,global,reloc=2,class=CODE,delta=1
    38                           	psect	text19,global,reloc=2,class=CODE,delta=1
    39                           	psect	text20,global,reloc=2,class=CODE,delta=1
    40                           	psect	text21,global,reloc=2,class=CODE,delta=1
    41                           	psect	text22,global,reloc=2,class=CODE,delta=1
    42                           	psect	text23,global,reloc=2,class=CODE,delta=1
    43                           	psect	text24,global,reloc=2,class=CODE,delta=1
    44                           	psect	text25,global,reloc=2,class=CODE,delta=1
    45                           	psect	text26,global,reloc=2,class=CODE,delta=1
    46                           	psect	text27,global,reloc=2,class=CODE,delta=1
    47                           	psect	text28,global,reloc=2,class=CODE,delta=1
    48                           	psect	text29,global,reloc=2,class=CODE,delta=1
    49                           	psect	text30,global,reloc=2,class=CODE,delta=1
    50                           	psect	text31,global,reloc=2,class=CODE,delta=1
    51                           	psect	text32,global,reloc=2,class=CODE,delta=1
    52                           	psect	text33,global,reloc=2,class=CODE,delta=1
    53                           	psect	text34,global,reloc=2,class=CODE,delta=1
    54                           	psect	text35,global,reloc=2,class=CODE,delta=1
    55                           	psect	text36,global,reloc=2,class=CODE,delta=1
    56                           	psect	text37,global,reloc=2,class=CODE,delta=1
    57                           	psect	text38,global,reloc=2,class=CODE,delta=1
    58                           	psect	text39,global,reloc=2,class=CODE,delta=1
    59                           	psect	text40,global,reloc=2,class=CODE,delta=1
    60                           	psect	text41,global,reloc=2,class=CODE,delta=1
    61                           	psect	text42,global,reloc=2,class=CODE,delta=1
    62                           	psect	text43,global,reloc=2,class=CODE,delta=1
    63                           	psect	text44,global,reloc=2,class=CODE,delta=1
    64                           	psect	text45,global,reloc=2,class=CODE,delta=1
    65                           	psect	text46,global,reloc=2,class=CODE,delta=1
    66                           	psect	text47,global,reloc=2,class=CODE,delta=1
    67                           	psect	text48,global,reloc=2,class=CODE,delta=1
    68                           	psect	intcodelo,global,reloc=2,class=CODE,delta=1
    69                           	psect	intcode,global,reloc=2,class=CODE,delta=1
    70                           	psect	intcode_body,global,reloc=2,class=CODE,delta=1
    71                           	psect	intsave_regs,global,class=BIGRAM,space=1,delta=1
    72                           	psect	rparam,global,class=COMRAM,space=1,delta=1
    73                           	psect	temp,global,ovrld,common,class=COMRAM,space=1,delta=1
    74  0000                     
    75                           	psect	idataCOMRAM
    76  00452A                     __pidataCOMRAM:
    77                           	opt stack 0
    78                           
    79                           ;initializer for _delay_quartz_frequency_value
    80  00452A  14                 	db	20
    81                           
    82                           	psect	idataBANK1
    83  004526                     __pidataBANK1:
    84                           	opt stack 0
    85                           
    86                           ;initializer for _combinazioni
    87  004526  01                 	db	1
    88  004527  05                 	db	5
    89  004528  09                 	db	9
    90  004529  0D                 	db	13
    91                           
    92                           	psect	mediumconst
    93  007E18                     __pmediumconst:
    94                           	opt stack 0
    95  007E18  00                 	db	0
    96  007E19                     __npowers_:
    97                           	opt stack 0
    98  007E19  0000               	dw	0
    99  007E1B  3F80               	dw	16256
   100  007E1D  CCCD               	dw	52429
   101  007E1F  3DCC               	dw	15820
   102  007E21  D70A               	dw	55050
   103  007E23  3C23               	dw	15395
   104  007E25  126F               	dw	4719
   105  007E27  3A83               	dw	14979
   106  007E29  B717               	dw	46871
   107  007E2B  38D1               	dw	14545
   108  007E2D  C5AC               	dw	50604
   109  007E2F  3727               	dw	14119
   110  007E31  37BD               	dw	14269
   111  007E33  3586               	dw	13702
   112  007E35  BF95               	dw	49045
   113  007E37  33D6               	dw	13270
   114  007E39  CC77               	dw	52343
   115  007E3B  322B               	dw	12843
   116  007E3D  705F               	dw	28767
   117  007E3F  3089               	dw	12425
   118  007E41  E6FF               	dw	59135
   119  007E43  2EDB               	dw	11995
   120  007E45  E508               	dw	58632
   121  007E47  1E3C               	dw	7740
   122  007E49  4260               	dw	16992
   123  007E4B  0DA2               	dw	3490
   124  007E4D                     __end_of__npowers_:
   125                           	opt stack 0
   126  007E4D                     __powers_:
   127                           	opt stack 0
   128  007E4D  0000               	dw	0
   129  007E4F  3F80               	dw	16256
   130  007E51  0000               	dw	0
   131  007E53  4120               	dw	16672
   132  007E55  0000               	dw	0
   133  007E57  42C8               	dw	17096
   134  007E59  0000               	dw	0
   135  007E5B  447A               	dw	17530
   136  007E5D  4000               	dw	16384
   137  007E5F  461C               	dw	17948
   138  007E61  5000               	dw	20480
   139  007E63  47C3               	dw	18371
   140  007E65  2400               	dw	9216
   141  007E67  4974               	dw	18804
   142  007E69  9680               	dw	38528
   143  007E6B  4B18               	dw	19224
   144  007E6D  BC20               	dw	48160
   145  007E6F  4CBE               	dw	19646
   146  007E71  6B28               	dw	27432
   147  007E73  4E6E               	dw	20078
   148  007E75  02F9               	dw	761
   149  007E77  5015               	dw	20501
   150  007E79  78EC               	dw	30956
   151  007E7B  60AD               	dw	24749
   152  007E7D  F2CA               	dw	62154
   153  007E7F  7149               	dw	29001
   154  007E81                     __end_of__powers_:
   155                           	opt stack 0
   156  007E81                     _dpowers:
   157                           	opt stack 0
   158  007E81  0001               	dw	1
   159  007E83  0000               	dw	0
   160  007E85  000A               	dw	10
   161  007E87  0000               	dw	0
   162  007E89  0064               	dw	100
   163  007E8B  0000               	dw	0
   164  007E8D  03E8               	dw	1000
   165  007E8F  0000               	dw	0
   166  007E91  2710               	dw	10000
   167  007E93  0000               	dw	0
   168  007E95  86A0               	dw	34464
   169  007E97  0001               	dw	1
   170  007E99  4240               	dw	16960
   171  007E9B  000F               	dw	15
   172  007E9D  9680               	dw	38528
   173  007E9F  0098               	dw	152
   174  007EA1  E100               	dw	57600
   175  007EA3  05F5               	dw	1525
   176  007EA5  CA00               	dw	51712
   177  007EA7  3B9A               	dw	15258
   178  007EA9                     __end_of_dpowers:
   179                           	opt stack 0
   180  007EA9                     log@coeff:
   181                           	opt stack 0
   182  007EA9  0000               	dw	0
   183  007EAB  0000               	dw	0
   184  007EAD  FFC4               	dw	65476
   185  007EAF  3F7F               	dw	16255
   186  007EB1  EF80               	dw	61312
   187  007EB3  BEFF               	dw	48895
   188  007EB5  E190               	dw	57744
   189  007EB7  3EA9               	dw	16041
   190  007EB9  82EC               	dw	33516
   191  007EBB  BE76               	dw	48758
   192  007EBD  AD82               	dw	44418
   193  007EBF  3E2B               	dw	15915
   194  007EC1  3C0E               	dw	15374
   195  007EC3  BDC3               	dw	48579
   196  007EC5  D187               	dw	53639
   197  007EC7  3D13               	dw	15635
   198  007EC9  7841               	dw	30785
   199  007ECB  BBD3               	dw	48083
   200  007ECD                     __end_oflog@coeff:
   201                           	opt stack 0
   202  007ECD                     STR_5:
   203  007ECD  20                 	db	32
   204  007ECE  20                 	db	32
   205  007ECF  20                 	db	32
   206  007ED0  20                 	db	32
   207  007ED1  20                 	db	32
   208  007ED2  20                 	db	32
   209  007ED3  20                 	db	32
   210  007ED4  20                 	db	32
   211  007ED5  20                 	db	32
   212  007ED6  53                 	db	83	;'S'
   213  007ED7  EC                 	db	-20
   214  007ED8  20                 	db	32
   215  007ED9  20                 	db	32
   216  007EDA  20                 	db	32
   217  007EDB  20                 	db	32
   218  007EDC  20                 	db	32
   219  007EDD  20                 	db	32
   220  007EDE  20                 	db	32
   221  007EDF  20                 	db	32
   222  007EE0  20                 	db	32
   223  007EE1  00                 	db	0
   224  007EE2                     STR_6:
   225  007EE2  20                 	db	32
   226  007EE3  20                 	db	32
   227  007EE4  20                 	db	32
   228  007EE5  20                 	db	32
   229  007EE6  20                 	db	32
   230  007EE7  20                 	db	32
   231  007EE8  20                 	db	32
   232  007EE9  20                 	db	32
   233  007EEA  20                 	db	32
   234  007EEB  4E                 	db	78	;'N'
   235  007EEC  6F                 	db	111	;'o'
   236  007EED  20                 	db	32
   237  007EEE  20                 	db	32
   238  007EEF  20                 	db	32
   239  007EF0  20                 	db	32
   240  007EF1  20                 	db	32
   241  007EF2  20                 	db	32
   242  007EF3  20                 	db	32
   243  007EF4  20                 	db	32
   244  007EF5  20                 	db	32
   245  007EF6  00                 	db	0
   246  007EF7                     STR_17:
   247  007EF7  20                 	db	32
   248  007EF8  20                 	db	32
   249  007EF9  42                 	db	66	;'B'
   250  007EFA  61                 	db	97	;'a'
   251  007EFB  74                 	db	116	;'t'
   252  007EFC  74                 	db	116	;'t'
   253  007EFD  65                 	db	101	;'e'
   254  007EFE  72                 	db	114	;'r'
   255  007EFF  69                 	db	105	;'i'
   256  007F00  61                 	db	97	;'a'
   257  007F01  20                 	db	32
   258  007F02  63                 	db	99	;'c'
   259  007F03  61                 	db	97	;'a'
   260  007F04  72                 	db	114	;'r'
   261  007F05  69                 	db	105	;'i'
   262  007F06  63                 	db	99	;'c'
   263  007F07  61                 	db	97	;'a'
   264  007F08  21                 	db	33
   265  007F09  20                 	db	32
   266  007F0A  20                 	db	32
   267  007F0B  00                 	db	0
   268  007F0C                     STR_7:
   269  007F0C  20                 	db	32
   270  007F0D  20                 	db	32
   271  007F0E  44                 	db	68	;'D'
   272  007F0F  75                 	db	117	;'u'
   273  007F10  72                 	db	114	;'r'
   274  007F11  61                 	db	97	;'a'
   275  007F12  74                 	db	116	;'t'
   276  007F13  61                 	db	97	;'a'
   277  007F14  20                 	db	32
   278  007F15  20                 	db	32
   279  007F16  73                 	db	115	;'s'
   280  007F17  63                 	db	99	;'c'
   281  007F18  61                 	db	97	;'a'
   282  007F19  72                 	db	114	;'r'
   283  007F1A  69                 	db	105	;'i'
   284  007F1B  63                 	db	99	;'c'
   285  007F1C  61                 	db	97	;'a'
   286  007F1D  3A                 	db	58	;':'
   287  007F1E  20                 	db	32
   288  007F1F  20                 	db	32
   289  007F20  00                 	db	0
   290  007F21                     STR_19:
   291  007F21  45                 	db	69	;'E'
   292  007F22  52                 	db	82	;'R'
   293  007F23  52                 	db	82	;'R'
   294  007F24  4F                 	db	79	;'O'
   295  007F25  52                 	db	82	;'R'
   296  007F26  45                 	db	69	;'E'
   297  007F27  21                 	db	33
   298  007F28  20                 	db	32
   299  007F29  43                 	db	67	;'C'
   300  007F2A  61                 	db	97	;'a'
   301  007F2B  72                 	db	114	;'r'
   302  007F2C  69                 	db	105	;'i'
   303  007F2D  63                 	db	99	;'c'
   304  007F2E  61                 	db	97	;'a'
   305  007F2F  20                 	db	32
   306  007F30  62                 	db	98	;'b'
   307  007F31  61                 	db	97	;'a'
   308  007F32  74                 	db	116	;'t'
   309  007F33  2E                 	db	46
   310  007F34  20                 	db	32
   311  007F35  00                 	db	0
   312  007F36                     STR_20:
   313  007F36  73                 	db	115	;'s'
   314  007F37  63                 	db	99	;'c'
   315  007F38  6F                 	db	111	;'o'
   316  007F39  6C                 	db	108	;'l'
   317  007F3A  6C                 	db	108	;'l'
   318  007F3B  65                 	db	101	;'e'
   319  007F3C  67                 	db	103	;'g'
   320  007F3D  61                 	db	97	;'a'
   321  007F3E  74                 	db	116	;'t'
   322  007F3F  6F                 	db	111	;'o'
   323  007F40  20                 	db	32
   324  007F41  6F                 	db	111	;'o'
   325  007F42  20                 	db	32
   326  007F43  67                 	db	103	;'g'
   327  007F44  75                 	db	117	;'u'
   328  007F45  61                 	db	97	;'a'
   329  007F46  73                 	db	115	;'s'
   330  007F47  74                 	db	116	;'t'
   331  007F48  6F                 	db	111	;'o'
   332  007F49  2E                 	db	46
   333  007F4A  00                 	db	0
   334  007F4B                     STR_22:
   335  007F4B  20                 	db	32
   336  007F4C  41                 	db	65	;'A'
   337  007F4D  74                 	db	116	;'t'
   338  007F4E  74                 	db	116	;'t'
   339  007F4F  65                 	db	101	;'e'
   340  007F50  73                 	db	115	;'s'
   341  007F51  61                 	db	97	;'a'
   342  007F52  20                 	db	32
   343  007F53  53                 	db	83	;'S'
   344  007F54  74                 	db	116	;'t'
   345  007F55  61                 	db	97	;'a'
   346  007F56  62                 	db	98	;'b'
   347  007F57  69                 	db	105	;'i'
   348  007F58  6C                 	db	108	;'l'
   349  007F59  69                 	db	105	;'i'
   350  007F5A  7A                 	db	122	;'z'
   351  007F5B  7A                 	db	122	;'z'
   352  007F5C  61                 	db	97	;'a'
   353  007F5D  7A                 	db	122	;'z'
   354  007F5E  2E                 	db	46
   355  007F5F  00                 	db	0
   356  007F60                     STR_14:
   357  007F60  65                 	db	101	;'e'
   358  007F61  66                 	db	102	;'f'
   359  007F62  66                 	db	102	;'f'
   360  007F63  69                 	db	105	;'i'
   361  007F64  63                 	db	99	;'c'
   362  007F65  69                 	db	105	;'i'
   363  007F66  65                 	db	101	;'e'
   364  007F67  6E                 	db	110	;'n'
   365  007F68  7A                 	db	122	;'z'
   366  007F69  61                 	db	97	;'a'
   367  007F6A  20                 	db	32
   368  007F6B  62                 	db	98	;'b'
   369  007F6C  61                 	db	97	;'a'
   370  007F6D  74                 	db	116	;'t'
   371  007F6E  74                 	db	116	;'t'
   372  007F6F  65                 	db	101	;'e'
   373  007F70  72                 	db	114	;'r'
   374  007F71  69                 	db	105	;'i'
   375  007F72  61                 	db	97	;'a'
   376  007F73  3A                 	db	58	;':'
   377  007F74  00                 	db	0
   378  007F75                     STR_1:
   379  007F75  73                 	db	115	;'s'
   380  007F76  65                 	db	101	;'e'
   381  007F77  6C                 	db	108	;'l'
   382  007F78  65                 	db	101	;'e'
   383  007F79  7A                 	db	122	;'z'
   384  007F7A  69                 	db	105	;'i'
   385  007F7B  6F                 	db	111	;'o'
   386  007F7C  6E                 	db	110	;'n'
   387  007F7D  61                 	db	97	;'a'
   388  007F7E  72                 	db	114	;'r'
   389  007F7F  65                 	db	101	;'e'
   390  007F80  20                 	db	32
   391  007F81  63                 	db	99	;'c'
   392  007F82  61                 	db	97	;'a'
   393  007F83  70                 	db	112	;'p'
   394  007F84  61                 	db	97	;'a'
   395  007F85  63                 	db	99	;'c'
   396  007F86  69                 	db	105	;'i'
   397  007F87  74                 	db	116	;'t'
   398  007F88  61                 	db	97	;'a'
   399  007F89  00                 	db	0
   400  007F8A                     STR_4:
   401  007F8A  43                 	db	67	;'C'
   402  007F8B  61                 	db	97	;'a'
   403  007F8C  72                 	db	114	;'r'
   404  007F8D  69                 	db	105	;'i'
   405  007F8E  63                 	db	99	;'c'
   406  007F8F  6F                 	db	111	;'o'
   407  007F90  20                 	db	32
   408  007F91  61                 	db	97	;'a'
   409  007F92  20                 	db	32
   410  007F93  66                 	db	102	;'f'
   411  007F94  69                 	db	105	;'i'
   412  007F95  6E                 	db	110	;'n'
   413  007F96  65                 	db	101	;'e'
   414  007F97  20                 	db	32
   415  007F98  74                 	db	116	;'t'
   416  007F99  65                 	db	101	;'e'
   417  007F9A  73                 	db	115	;'s'
   418  007F9B  74                 	db	116	;'t'
   419  007F9C  3F                 	db	63	;'?'
   420  007F9D  00                 	db	0
   421  007F9E                     STR_18:
   422  007F9E  43                 	db	67	;'C'
   423  007F9F  61                 	db	97	;'a'
   424  007FA0  72                 	db	114	;'r'
   425  007FA1  69                 	db	105	;'i'
   426  007FA2  63                 	db	99	;'c'
   427  007FA3  61                 	db	97	;'a'
   428  007FA4  20                 	db	32
   429  007FA5  69                 	db	105	;'i'
   430  007FA6  6E                 	db	110	;'n'
   431  007FA7  20                 	db	32
   432  007FA8  63                 	db	99	;'c'
   433  007FA9  6F                 	db	111	;'o'
   434  007FAA  72                 	db	114	;'r'
   435  007FAB  73                 	db	115	;'s'
   436  007FAC  6F                 	db	111	;'o'
   437  007FAD  3A                 	db	58	;':'
   438  007FAE  00                 	db	0
   439  007FAF                     STR_11:
   440  007FAF  74                 	db	116	;'t'
   441  007FB0  65                 	db	101	;'e'
   442  007FB1  73                 	db	115	;'s'
   443  007FB2  74                 	db	116	;'t'
   444  007FB3  20                 	db	32
   445  007FB4  63                 	db	99	;'c'
   446  007FB5  6F                 	db	111	;'o'
   447  007FB6  6D                 	db	109	;'m'
   448  007FB7  70                 	db	112	;'p'
   449  007FB8  6C                 	db	108	;'l'
   450  007FB9  65                 	db	101	;'e'
   451  007FBA  74                 	db	116	;'t'
   452  007FBB  61                 	db	97	;'a'
   453  007FBC  74                 	db	116	;'t'
   454  007FBD  6F                 	db	111	;'o'
   455  007FBE  3A                 	db	58	;':'
   456  007FBF  00                 	db	0
   457  007FC0                     STR_21:
   458  007FC0  43                 	db	67	;'C'
   459  007FC1  61                 	db	97	;'a'
   460  007FC2  72                 	db	114	;'r'
   461  007FC3  69                 	db	105	;'i'
   462  007FC4  63                 	db	99	;'c'
   463  007FC5  61                 	db	97	;'a'
   464  007FC6  20                 	db	32
   465  007FC7  74                 	db	116	;'t'
   466  007FC8  65                 	db	101	;'e'
   467  007FC9  72                 	db	114	;'r'
   468  007FCA  6D                 	db	109	;'m'
   469  007FCB  69                 	db	105	;'i'
   470  007FCC  6E                 	db	110	;'n'
   471  007FCD  61                 	db	97	;'a'
   472  007FCE  74                 	db	116	;'t'
   473  007FCF  61                 	db	97	;'a'
   474  007FD0  00                 	db	0
   475  007FD1                     STR_12:
   476  007FD1  63                 	db	99	;'c'
   477  007FD2  61                 	db	97	;'a'
   478  007FD3  70                 	db	112	;'p'
   479  007FD4  61                 	db	97	;'a'
   480  007FD5  63                 	db	99	;'c'
   481  007FD6  69                 	db	105	;'i'
   482  007FD7  74                 	db	116	;'t'
   483  007FD8  61                 	db	97	;'a'
   484  007FD9  27                 	db	39
   485  007FDA  3A                 	db	58	;':'
   486  007FDB  00                 	db	0
   487  007FDC                     STR_28:
   488  007FDC  20                 	db	32
   489  007FDD  54                 	db	84	;'T'
   490  007FDE  3A                 	db	58	;':'
   491  007FDF  25                 	db	37
   492  007FE0  2E                 	db	46
   493  007FE1  32                 	db	50	;'2'
   494  007FE2  66                 	db	102	;'f'
   495  007FE3  00                 	db	0
   496  007FE4                     STR_27:
   497  007FE4  20                 	db	32
   498  007FE5  49                 	db	73	;'I'
   499  007FE6  3A                 	db	58	;':'
   500  007FE7  25                 	db	37
   501  007FE8  2E                 	db	46
   502  007FE9  33                 	db	51	;'3'
   503  007FEA  66                 	db	102	;'f'
   504  007FEB  00                 	db	0
   505  007FEC                     STR_23:
   506  007FEC  74                 	db	116	;'t'
   507  007FED  65                 	db	101	;'e'
   508  007FEE  6D                 	db	109	;'m'
   509  007FEF  70                 	db	112	;'p'
   510  007FF0  6F                 	db	111	;'o'
   511  007FF1  3A                 	db	58	;':'
   512  007FF2  00                 	db	0
   513  007FF3                     STR_26:
   514  007FF3  56                 	db	86	;'V'
   515  007FF4  3A                 	db	58	;':'
   516  007FF5  25                 	db	37
   517  007FF6  2E                 	db	46
   518  007FF7  32                 	db	50	;'2'
   519  007FF8  66                 	db	102	;'f'
   520  007FF9  00                 	db	0
   521  007FFA                     STR_3:
   522  007FFA  41                 	db	65	;'A'
   523  007FFB  68                 	db	104	;'h'
   524  007FFC  00                 	db	0
   525  007FFD                     STR_16:
   526  007FFD  25                 	db	37
   527  007FFE  00                 	db	0
   528  0000                     
   529                           ; #config settings
   530  007FFF  00                 	db	0	; dummy byte at the end
   531  0000                     
   532                           	psect	nvBANK1
   533  00013F                     __pnvBANK1:
   534                           	opt stack 0
   535  00013F                     _clock_counter_reference:
   536                           	opt stack 0
   537  00013F                     	ds	2
   538  0000                     _ADCON0	set	4034
   539  0000                     _ADCON0bits	set	4034
   540  0000                     _ADCON1	set	4033
   541  0000                     _ADCON2	set	4032
   542  0000                     _ADRESH	set	4036
   543  0000                     _ADRESL	set	4035
   544  0000                     _INTCON2bits	set	4081
   545  0000                     _INTCONbits	set	4082
   546  0000                     _LATA	set	3977
   547  0000                     _LATB	set	3978
   548  0000                     _LATBbits	set	3978
   549  0000                     _LATC	set	3979
   550  0000                     _LATCbits	set	3979
   551  0000                     _LATD	set	3980
   552  0000                     _LATE	set	3981
   553  0000                     _LATEbits	set	3981
   554  0000                     _PIR1bits	set	3998
   555  0000                     _PORTBbits	set	3969
   556  0000                     _RCONbits	set	4048
   557  0000                     _T0CON	set	4053
   558  0000                     _T1CON	set	4045
   559  0000                     _TMR0H	set	4055
   560  0000                     _TMR0L	set	4054
   561  0000                     _TMR1H	set	4047
   562  0000                     _TMR1L	set	4046
   563  0000                     _TRISA	set	3986
   564  0000                     _TRISB	set	3987
   565  0000                     _TRISC	set	3988
   566  0000                     _TRISD	set	3989
   567  0000                     _TRISE	set	3990
   568  0000                     _UCONbits	set	3949
   569                           
   570                           	psect	cinit
   571  004128                     __pcinit:
   572                           	opt stack 0
   573  004128                     start_initialization:
   574                           	opt stack 0
   575  004128                     __initialization:
   576                           	opt stack 0
   577                           
   578                           ; Clear objects allocated to BANK1 (14 bytes)
   579  004128  EE01  F02D         	lfsr	0,__pbssBANK1
   580  00412C  0E0E               	movlw	14
   581  00412E                     clear_0:
   582  00412E  6AEE               	clrf	postinc0,c
   583  004130  06E8               	decf	wreg,f,c
   584  004132  E1FD               	bnz	clear_0
   585                           
   586                           ; Clear objects allocated to BANK0 (18 bytes)
   587  004134  EE00  F0E9         	lfsr	0,__pbssBANK0
   588  004138  0E12               	movlw	18
   589  00413A                     clear_1:
   590  00413A  6AEE               	clrf	postinc0,c
   591  00413C  06E8               	decf	wreg,f,c
   592  00413E  E1FD               	bnz	clear_1
   593                           
   594                           ; Clear objects allocated to BITCOMRAM (1 bytes)
   595  004140  6A3E               	clrf	(__pbitbssCOMRAM/(0+8))& (0+255),c
   596                           
   597                           ; Clear objects allocated to COMRAM (29 bytes)
   598  004142  EE00  F021         	lfsr	0,__pbssCOMRAM
   599  004146  0E1D               	movlw	29
   600  004148                     clear_2:
   601  004148  6AEE               	clrf	postinc0,c
   602  00414A  06E8               	decf	wreg,f,c
   603  00414C  E1FD               	bnz	clear_2
   604                           
   605                           ; Initialize objects allocated to BANK1 (4 bytes)
   606                           ; load TBLPTR registers with __pidataBANK1
   607  00414E  0E26               	movlw	low __pidataBANK1
   608  004150  6EF6               	movwf	tblptrl,c
   609  004152  0E45               	movlw	high __pidataBANK1
   610  004154  6EF7               	movwf	tblptrh,c
   611  004156  0E00               	movlw	low (__pidataBANK1 shr (0+16))
   612  004158  6EF8               	movwf	tblptru,c
   613  00415A  EE01  F03B         	lfsr	0,__pdataBANK1
   614  00415E  EE10 F004          	lfsr	1,4
   615  004162                     copy_data0:
   616  004162  0009               	tblrd		*+
   617  004164  CFF5 FFEE          	movff	tablat,postinc0
   618  004168  50E5               	movf	postdec1,w,c
   619  00416A  50E1               	movf	fsr1l,w,c
   620  00416C  E1FA               	bnz	copy_data0
   621                           
   622                           ; Initialize objects allocated to COMRAM (1 bytes)
   623                           ; load TBLPTR registers with __pidataCOMRAM
   624  00416E  0E2A               	movlw	low __pidataCOMRAM
   625  004170  6EF6               	movwf	tblptrl,c
   626  004172  0E45               	movlw	high __pidataCOMRAM
   627  004174  6EF7               	movwf	tblptrh,c
   628  004176  0E00               	movlw	low (__pidataCOMRAM shr (0+16))
   629  004178  6EF8               	movwf	tblptru,c
   630  00417A  0009               	tblrd		*+	;fetch initializer
   631  00417C  CFF5 F03F          	movff	tablat,__pdataCOMRAM
   632  004180                     end_of_initialization:
   633                           	opt stack 0
   634  004180                     __end_of__initialization:
   635                           	opt stack 0
   636  004180  9040               	bcf	int$flags,0,c	;clear compiler interrupt flag (level 1)
   637  004182  9240               	bcf	int$flags,1,c	;clear compiler interrupt flag (level 2)
   638  004184  0E00               	movlw	low (__Lmediumconst shr (0+16))
   639  004186  6EF8               	movwf	tblptru,c
   640  004188  0100               	movlb	0
   641  00418A  EF92  F004         	goto	_main	;jump to C main() function
   642                           tblptru	equ	0xFF8
   643                           tblptrh	equ	0xFF7
   644                           tblptrl	equ	0xFF6
   645                           tablat	equ	0xFF5
   646                           postinc0	equ	0xFEE
   647                           wreg	equ	0xFE8
   648                           postdec1	equ	0xFE5
   649                           fsr1l	equ	0xFE1
   650                           
   651                           	psect	bitbssCOMRAM
   652  0001F0                     __pbitbssCOMRAM:
   653                           	opt stack 0
   654  0001F0                     _inizio:
   655                           	opt stack 0
   656  0001F0                     	ds	1
   657  0001F1                     _ricaricaFineCiclo:
   658                           	opt stack 0
   659  0001F1                     	ds	1
   660                           tblptru	equ	0xFF8
   661                           tblptrh	equ	0xFF7
   662                           tblptrl	equ	0xFF6
   663                           tablat	equ	0xFF5
   664                           postinc0	equ	0xFEE
   665                           wreg	equ	0xFE8
   666                           postdec1	equ	0xFE5
   667                           fsr1l	equ	0xFE1
   668                           
   669                           	psect	bssCOMRAM
   670  000021                     __pbssCOMRAM:
   671                           	opt stack 0
   672  000021                     _somme:
   673                           	opt stack 0
   674  000021                     	ds	4
   675  000025                     _tempo:
   676                           	opt stack 0
   677  000025                     	ds	4
   678  000029                     _tempo_old:
   679                           	opt stack 0
   680  000029                     	ds	4
   681  00002D                     _errno:
   682                           	opt stack 0
   683  00002D                     	ds	2
   684  00002F                     _minuti:
   685                           	opt stack 0
   686  00002F                     	ds	2
   687  000031                     _ore:
   688                           	opt stack 0
   689  000031                     	ds	2
   690  000033                     _secondi:
   691                           	opt stack 0
   692  000033                     	ds	2
   693  000035                     _stati:
   694                           	opt stack 0
   695  000035                     	ds	1
   696  000036                     _str:
   697                           	opt stack 0
   698  000036                     	ds	8
   699                           tblptru	equ	0xFF8
   700                           tblptrh	equ	0xFF7
   701                           tblptrl	equ	0xFF6
   702                           tablat	equ	0xFF5
   703                           postinc0	equ	0xFEE
   704                           wreg	equ	0xFE8
   705                           postdec1	equ	0xFE5
   706                           fsr1l	equ	0xFE1
   707                           
   708                           	psect	dataCOMRAM
   709  00003F                     __pdataCOMRAM:
   710                           	opt stack 0
   711  00003F                     _delay_quartz_frequency_value:
   712                           	opt stack 0
   713  00003F                     	ds	1
   714                           tblptru	equ	0xFF8
   715                           tblptrh	equ	0xFF7
   716                           tblptrl	equ	0xFF6
   717                           tablat	equ	0xFF5
   718                           postinc0	equ	0xFEE
   719                           wreg	equ	0xFE8
   720                           postdec1	equ	0xFE5
   721                           fsr1l	equ	0xFE1
   722                           
   723                           	psect	bssBANK0
   724  0000E9                     __pbssBANK0:
   725                           	opt stack 0
   726  0000E9                     _current:
   727                           	opt stack 0
   728  0000E9                     	ds	4
   729  0000ED                     _sommatoriaCorrente:
   730                           	opt stack 0
   731  0000ED                     	ds	4
   732  0000F1                     _voltage:
   733                           	opt stack 0
   734  0000F1                     	ds	4
   735  0000F5                     _battery:
   736                           	opt stack 0
   737  0000F5                     	ds	2
   738  0000F7                     _temperature:
   739                           	opt stack 0
   740  0000F7                     	ds	4
   741                           tblptru	equ	0xFF8
   742                           tblptrh	equ	0xFF7
   743                           tblptrl	equ	0xFF6
   744                           tablat	equ	0xFF5
   745                           postinc0	equ	0xFEE
   746                           wreg	equ	0xFE8
   747                           postdec1	equ	0xFE5
   748                           fsr1l	equ	0xFE1
   749                           
   750                           	psect	bssBANK1
   751  00012D                     __pbssBANK1:
   752                           	opt stack 0
   753  00012D                     read_adc@F4633:
   754                           	opt stack 0
   755  00012D                     	ds	8
   756  000135                     LCD_write_integer@F4453:
   757                           	opt stack 0
   758  000135                     	ds	6
   759                           tblptru	equ	0xFF8
   760                           tblptrh	equ	0xFF7
   761                           tblptrl	equ	0xFF6
   762                           tablat	equ	0xFF5
   763                           postinc0	equ	0xFEE
   764                           wreg	equ	0xFE8
   765                           postdec1	equ	0xFE5
   766                           fsr1l	equ	0xFE1
   767                           
   768                           	psect	dataBANK1
   769  00013B                     __pdataBANK1:
   770                           	opt stack 0
   771  00013B                     _combinazioni:
   772                           	opt stack 0
   773  00013B                     	ds	4
   774                           tblptru	equ	0xFF8
   775                           tblptrh	equ	0xFF7
   776                           tblptrl	equ	0xFF6
   777                           tablat	equ	0xFF5
   778                           postinc0	equ	0xFEE
   779                           wreg	equ	0xFE8
   780                           postdec1	equ	0xFE5
   781                           fsr1l	equ	0xFE1
   782                           
   783                           	psect	cstackBANK1
   784  000100                     __pcstackBANK1:
   785                           	opt stack 0
   786  000100                     _sprintf$1519:
   787                           	opt stack 0
   788                           
   789                           ; 4 bytes @ 0x0
   790  000100                     	ds	4
   791  000104                     sprintf@ap:
   792                           	opt stack 0
   793                           
   794                           ; 2 bytes @ 0x4
   795  000104                     	ds	2
   796  000106                     sprintf@flag:
   797                           	opt stack 0
   798                           
   799                           ; 2 bytes @ 0x6
   800  000106                     	ds	2
   801  000108                     sprintf@val:
   802                           	opt stack 0
   803                           
   804                           ; 4 bytes @ 0x8
   805  000108                     	ds	4
   806  00010C                     sprintf@exp:
   807                           	opt stack 0
   808                           
   809                           ; 2 bytes @ 0xC
   810  00010C                     	ds	2
   811  00010E                     sprintf@tmpval:
   812                           	opt stack 0
   813                           
   814                           ; 4 bytes @ 0xE
   815  00010E                     	ds	4
   816  000112                     sprintf@prec:
   817                           	opt stack 0
   818                           
   819                           ; 2 bytes @ 0x12
   820  000112                     	ds	2
   821  000114                     sprintf@fval:
   822                           	opt stack 0
   823                           
   824                           ; 4 bytes @ 0x14
   825  000114                     	ds	4
   826  000118                     sprintf@c:
   827                           	opt stack 0
   828                           
   829                           ; 1 bytes @ 0x18
   830  000118                     	ds	1
   831  000119                     ??_scarica:
   832                           
   833                           ; 1 bytes @ 0x19
   834  000119                     	ds	8
   835  000121                     _main$1515:
   836                           	opt stack 0
   837                           
   838                           ; 4 bytes @ 0x21
   839  000121                     	ds	4
   840  000125                     main@percentuale:
   841                           	opt stack 0
   842                           
   843                           ; 4 bytes @ 0x25
   844  000125                     	ds	4
   845  000129                     main@minuti:
   846                           	opt stack 0
   847                           
   848                           ; 2 bytes @ 0x29
   849  000129                     	ds	2
   850  00012B                     main@ore:
   851                           	opt stack 0
   852                           
   853                           ; 2 bytes @ 0x2B
   854  00012B                     	ds	2
   855                           tblptru	equ	0xFF8
   856                           tblptrh	equ	0xFF7
   857                           tblptrl	equ	0xFF6
   858                           tablat	equ	0xFF5
   859                           postinc0	equ	0xFEE
   860                           wreg	equ	0xFE8
   861                           postdec1	equ	0xFE5
   862                           fsr1l	equ	0xFE1
   863                           
   864                           	psect	cstackBANK0
   865  000060                     __pcstackBANK0:
   866                           	opt stack 0
   867  000060                     ?___wmul:
   868                           	opt stack 0
   869  000060                     ?___awmod:
   870                           	opt stack 0
   871  000060                     ?___lwmod:
   872                           	opt stack 0
   873  000060                     ?__tdiv_to_l_:
   874                           	opt stack 0
   875  000060                     ?__div_to_l_:
   876                           	opt stack 0
   877  000060                     ?_frexp:
   878                           	opt stack 0
   879  000060                     ?___flneg:
   880                           	opt stack 0
   881  000060                     ?___lldiv:
   882                           	opt stack 0
   883  000060                     ?___llmod:
   884                           	opt stack 0
   885  000060                     _isdigit$1085:
   886                           	opt stack 0
   887  000060                     ___wmul@multiplier:
   888                           	opt stack 0
   889  000060                     ___awmod@dividend:
   890                           	opt stack 0
   891  000060                     ___lwmod@dividend:
   892                           	opt stack 0
   893  000060                     __div_to_l_@f1:
   894                           	opt stack 0
   895  000060                     ___flge@ff1:
   896                           	opt stack 0
   897  000060                     ___flneg@f1:
   898                           	opt stack 0
   899  000060                     __tdiv_to_l_@f1:
   900                           	opt stack 0
   901  000060                     ___lldiv@dividend:
   902                           	opt stack 0
   903  000060                     ___llmod@dividend:
   904                           	opt stack 0
   905  000060                     frexp@value:
   906                           	opt stack 0
   907                           
   908                           ; 4 bytes @ 0x0
   909  000060                     	ds	1
   910  000061                     isdigit@c:
   911                           	opt stack 0
   912                           
   913                           ; 1 bytes @ 0x1
   914  000061                     	ds	1
   915  000062                     ___wmul@multiplicand:
   916                           	opt stack 0
   917  000062                     ___awmod@divisor:
   918                           	opt stack 0
   919  000062                     ___lwmod@divisor:
   920                           	opt stack 0
   921                           
   922                           ; 2 bytes @ 0x2
   923  000062                     	ds	2
   924  000064                     ___awmod@counter:
   925                           	opt stack 0
   926  000064                     ___wmul@product:
   927                           	opt stack 0
   928  000064                     frexp@eptr:
   929                           	opt stack 0
   930  000064                     __div_to_l_@f2:
   931                           	opt stack 0
   932  000064                     ___flge@ff2:
   933                           	opt stack 0
   934  000064                     __tdiv_to_l_@f2:
   935                           	opt stack 0
   936  000064                     ___lldiv@divisor:
   937                           	opt stack 0
   938  000064                     ___llmod@divisor:
   939                           	opt stack 0
   940                           
   941                           ; 4 bytes @ 0x4
   942  000064                     	ds	1
   943  000065                     ___awmod@sign:
   944                           	opt stack 0
   945                           
   946                           ; 1 bytes @ 0x5
   947  000065                     	ds	1
   948  000066                     ??_frexp:
   949  000066                     ?___awdiv:
   950                           	opt stack 0
   951  000066                     ?___lwdiv:
   952                           	opt stack 0
   953  000066                     delay_ms@value_ms:
   954                           	opt stack 0
   955  000066                     ___awdiv@dividend:
   956                           	opt stack 0
   957  000066                     ___lwdiv@dividend:
   958                           	opt stack 0
   959                           
   960                           ; 2 bytes @ 0x6
   961  000066                     	ds	2
   962  000068                     ??__tdiv_to_l_:
   963  000068                     ??___flge:
   964  000068                     LCD_send_command@D2:
   965                           	opt stack 0
   966  000068                     delay_s@value_s:
   967                           	opt stack 0
   968  000068                     ___awdiv@divisor:
   969                           	opt stack 0
   970  000068                     ___lwdiv@divisor:
   971                           	opt stack 0
   972  000068                     __div_to_l_@quot:
   973                           	opt stack 0
   974  000068                     ___lldiv@quotient:
   975                           	opt stack 0
   976                           
   977                           ; 4 bytes @ 0x8
   978  000068                     	ds	1
   979  000069                     LCD_send_command@D1:
   980                           	opt stack 0
   981  000069                     delay_s@repeat_loop:
   982                           	opt stack 0
   983                           
   984                           ; 1 bytes @ 0x9
   985  000069                     	ds	1
   986  00006A                     LCD_send_command@D0:
   987                           	opt stack 0
   988  00006A                     ___awdiv@counter:
   989                           	opt stack 0
   990  00006A                     ___lwdiv@counter:
   991                           	opt stack 0
   992                           
   993                           ; 1 bytes @ 0xA
   994  00006A                     	ds	1
   995  00006B                     LCD_shift_cursor@number_of_shift:
   996                           	opt stack 0
   997  00006B                     LCD_goto_line@line:
   998                           	opt stack 0
   999  00006B                     LCD_write_char@D3:
  1000                           	opt stack 0
  1001  00006B                     LCD_cursor@blinking:
  1002                           	opt stack 0
  1003  00006B                     ___awdiv@sign:
  1004                           	opt stack 0
  1005  00006B                     ___lwdiv@quotient:
  1006                           	opt stack 0
  1007  00006B                     __tdiv_to_l_@quot:
  1008                           	opt stack 0
  1009                           
  1010                           ; 4 bytes @ 0xB
  1011  00006B                     	ds	1
  1012  00006C                     LCD_shift_cursor@shift:
  1013                           	opt stack 0
  1014  00006C                     LCD_write_char@D2:
  1015                           	opt stack 0
  1016  00006C                     LCD_cursor@active:
  1017                           	opt stack 0
  1018  00006C                     __div_to_l_@cntr:
  1019                           	opt stack 0
  1020  00006C                     ___lldiv@counter:
  1021                           	opt stack 0
  1022  00006C                     ___awdiv@quotient:
  1023                           	opt stack 0
  1024                           
  1025                           ; 2 bytes @ 0xC
  1026  00006C                     	ds	1
  1027  00006D                     ?___xxtofl:
  1028                           	opt stack 0
  1029  00006D                     LCD_shift_cursor@i:
  1030                           	opt stack 0
  1031  00006D                     LCD_write_char@D1:
  1032                           	opt stack 0
  1033  00006D                     LCD_initialize@quartz_frequency:
  1034                           	opt stack 0
  1035  00006D                     __div_to_l_@exp1:
  1036                           	opt stack 0
  1037  00006D                     utoa@buf:
  1038                           	opt stack 0
  1039  00006D                     ___xxtofl@val:
  1040                           	opt stack 0
  1041                           
  1042                           ; 4 bytes @ 0xD
  1043  00006D                     	ds	1
  1044  00006E                     LCD_goto_xy@y:
  1045                           	opt stack 0
  1046  00006E                     LCD_write_char@D0:
  1047                           	opt stack 0
  1048                           
  1049                           ; 1 bytes @ 0xE
  1050  00006E                     	ds	1
  1051  00006F                     LCD_goto_xy@x:
  1052                           	opt stack 0
  1053  00006F                     LCD_write_char@value:
  1054                           	opt stack 0
  1055  00006F                     __tdiv_to_l_@cntr:
  1056                           	opt stack 0
  1057  00006F                     utoa@val:
  1058                           	opt stack 0
  1059                           
  1060                           ; 2 bytes @ 0xF
  1061  00006F                     	ds	1
  1062  000070                     __tdiv_to_l_@exp1:
  1063                           	opt stack 0
  1064  000070                     LCD_write_message@buffer:
  1065                           	opt stack 0
  1066  000070                     LCD_write_string@buffer:
  1067                           	opt stack 0
  1068                           
  1069                           ; 2 bytes @ 0x10
  1070  000070                     	ds	1
  1071  000071                     ??___xxtofl:
  1072  000071                     utoa@base:
  1073                           	opt stack 0
  1074                           
  1075                           ; 2 bytes @ 0x11
  1076  000071                     	ds	2
  1077  000073                     utoa@v:
  1078                           	opt stack 0
  1079                           
  1080                           ; 2 bytes @ 0x13
  1081  000073                     	ds	2
  1082  000075                     utoa@c:
  1083                           	opt stack 0
  1084  000075                     ___xxtofl@sign:
  1085                           	opt stack 0
  1086                           
  1087                           ; 1 bytes @ 0x15
  1088  000075                     	ds	1
  1089  000076                     ___xxtofl@exp:
  1090                           	opt stack 0
  1091  000076                     itoa@buf:
  1092                           	opt stack 0
  1093                           
  1094                           ; 2 bytes @ 0x16
  1095  000076                     	ds	1
  1096  000077                     ___xxtofl@arg:
  1097                           	opt stack 0
  1098                           
  1099                           ; 4 bytes @ 0x17
  1100  000077                     	ds	1
  1101  000078                     itoa@val:
  1102                           	opt stack 0
  1103                           
  1104                           ; 2 bytes @ 0x18
  1105  000078                     	ds	2
  1106  00007A                     itoa@base:
  1107                           	opt stack 0
  1108                           
  1109                           ; 2 bytes @ 0x1A
  1110  00007A                     	ds	1
  1111  00007B                     ?___fldiv:
  1112                           	opt stack 0
  1113  00007B                     ___fldiv@b:
  1114                           	opt stack 0
  1115                           
  1116                           ; 4 bytes @ 0x1B
  1117  00007B                     	ds	1
  1118  00007C                     itoa@cp:
  1119                           	opt stack 0
  1120                           
  1121                           ; 2 bytes @ 0x1C
  1122  00007C                     	ds	2
  1123  00007E                     LCD_write_integer@value:
  1124                           	opt stack 0
  1125                           
  1126                           ; 2 bytes @ 0x1E
  1127  00007E                     	ds	1
  1128  00007F                     ___fldiv@a:
  1129                           	opt stack 0
  1130                           
  1131                           ; 4 bytes @ 0x1F
  1132  00007F                     	ds	1
  1133  000080                     LCD_write_integer@number_of_digits:
  1134                           	opt stack 0
  1135                           
  1136                           ; 1 bytes @ 0x20
  1137  000080                     	ds	1
  1138  000081                     LCD_write_integer@zero_cleaning:
  1139                           	opt stack 0
  1140                           
  1141                           ; 1 bytes @ 0x21
  1142  000081                     	ds	1
  1143  000082                     ??_LCD_write_integer:
  1144                           
  1145                           ; 1 bytes @ 0x22
  1146  000082                     	ds	1
  1147  000083                     ??___fldiv:
  1148                           
  1149                           ; 1 bytes @ 0x23
  1150  000083                     	ds	4
  1151  000087                     ___fldiv@sign:
  1152                           	opt stack 0
  1153  000087                     LCD_write_integer@convertedInt:
  1154                           	opt stack 0
  1155                           
  1156                           ; 6 bytes @ 0x27
  1157  000087                     	ds	1
  1158  000088                     ___fldiv@rem:
  1159                           	opt stack 0
  1160                           
  1161                           ; 4 bytes @ 0x28
  1162  000088                     	ds	4
  1163  00008C                     ___fldiv@new_exp:
  1164                           	opt stack 0
  1165                           
  1166                           ; 2 bytes @ 0x2C
  1167  00008C                     	ds	1
  1168  00008D                     LCD_write_integer@index:
  1169                           	opt stack 0
  1170                           
  1171                           ; 1 bytes @ 0x2D
  1172  00008D                     	ds	1
  1173  00008E                     ___fldiv@grs:
  1174                           	opt stack 0
  1175                           
  1176                           ; 4 bytes @ 0x2E
  1177  00008E                     	ds	4
  1178  000092                     ___fldiv@bexp:
  1179                           	opt stack 0
  1180                           
  1181                           ; 1 bytes @ 0x32
  1182  000092                     	ds	1
  1183  000093                     ___fldiv@aexp:
  1184                           	opt stack 0
  1185                           
  1186                           ; 1 bytes @ 0x33
  1187  000093                     	ds	1
  1188  000094                     ?___fladd:
  1189                           	opt stack 0
  1190  000094                     ___fladd@b:
  1191                           	opt stack 0
  1192                           
  1193                           ; 4 bytes @ 0x34
  1194  000094                     	ds	4
  1195  000098                     ___fladd@a:
  1196                           	opt stack 0
  1197                           
  1198                           ; 4 bytes @ 0x38
  1199  000098                     	ds	4
  1200  00009C                     ??___fladd:
  1201                           
  1202                           ; 1 bytes @ 0x3C
  1203  00009C                     	ds	8
  1204  0000A4                     ___fladd@signs:
  1205                           	opt stack 0
  1206                           
  1207                           ; 1 bytes @ 0x44
  1208  0000A4                     	ds	1
  1209  0000A5                     ___fladd@aexp:
  1210                           	opt stack 0
  1211                           
  1212                           ; 1 bytes @ 0x45
  1213  0000A5                     	ds	1
  1214  0000A6                     ___fladd@bexp:
  1215                           	opt stack 0
  1216                           
  1217                           ; 1 bytes @ 0x46
  1218  0000A6                     	ds	1
  1219  0000A7                     ___fladd@grs:
  1220                           	opt stack 0
  1221                           
  1222                           ; 1 bytes @ 0x47
  1223  0000A7                     	ds	1
  1224  0000A8                     ?___flmul:
  1225                           	opt stack 0
  1226  0000A8                     ?___flsub:
  1227                           	opt stack 0
  1228  0000A8                     ___flsub@b:
  1229                           	opt stack 0
  1230  0000A8                     ___flmul@b:
  1231                           	opt stack 0
  1232                           
  1233                           ; 4 bytes @ 0x48
  1234  0000A8                     	ds	4
  1235  0000AC                     ___flsub@a:
  1236                           	opt stack 0
  1237  0000AC                     ___flmul@a:
  1238                           	opt stack 0
  1239                           
  1240                           ; 4 bytes @ 0x4C
  1241  0000AC                     	ds	4
  1242  0000B0                     ??___flmul:
  1243                           
  1244                           ; 1 bytes @ 0x50
  1245  0000B0                     	ds	4
  1246  0000B4                     ___flmul@sign:
  1247                           	opt stack 0
  1248                           
  1249                           ; 1 bytes @ 0x54
  1250  0000B4                     	ds	1
  1251  0000B5                     ___flmul@aexp:
  1252                           	opt stack 0
  1253                           
  1254                           ; 1 bytes @ 0x55
  1255  0000B5                     	ds	1
  1256  0000B6                     ___flmul@grs:
  1257                           	opt stack 0
  1258                           
  1259                           ; 4 bytes @ 0x56
  1260  0000B6                     	ds	4
  1261  0000BA                     ___flmul@bexp:
  1262                           	opt stack 0
  1263                           
  1264                           ; 1 bytes @ 0x5A
  1265  0000BA                     	ds	1
  1266  0000BB                     ___flmul@prod:
  1267                           	opt stack 0
  1268                           
  1269                           ; 4 bytes @ 0x5B
  1270  0000BB                     	ds	4
  1271  0000BF                     ___flmul@temp:
  1272                           	opt stack 0
  1273                           
  1274                           ; 2 bytes @ 0x5F
  1275  0000BF                     	ds	2
  1276  0000C1                     ?_eval_poly:
  1277                           	opt stack 0
  1278  0000C1                     ?_fround:
  1279                           	opt stack 0
  1280  0000C1                     ?_scale:
  1281                           	opt stack 0
  1282  0000C1                     eval_poly@x:
  1283                           	opt stack 0
  1284                           
  1285                           ; 4 bytes @ 0x61
  1286  0000C1                     	ds	4
  1287  0000C5                     eval_poly@d:
  1288                           	opt stack 0
  1289  0000C5                     _fround$1517:
  1290                           	opt stack 0
  1291  0000C5                     _scale$1518:
  1292                           	opt stack 0
  1293                           
  1294                           ; 4 bytes @ 0x65
  1295  0000C5                     	ds	2
  1296  0000C7                     eval_poly@n:
  1297                           	opt stack 0
  1298                           
  1299                           ; 2 bytes @ 0x67
  1300  0000C7                     	ds	2
  1301  0000C9                     ??_eval_poly:
  1302  0000C9                     scale@scl:
  1303                           	opt stack 0
  1304  0000C9                     _fround$1516:
  1305                           	opt stack 0
  1306                           
  1307                           ; 4 bytes @ 0x69
  1308  0000C9                     	ds	1
  1309  0000CA                     ?___fltol:
  1310                           	opt stack 0
  1311  0000CA                     ___fltol@f1:
  1312                           	opt stack 0
  1313                           
  1314                           ; 4 bytes @ 0x6A
  1315  0000CA                     	ds	3
  1316  0000CD                     fround@prec:
  1317                           	opt stack 0
  1318  0000CD                     eval_poly@res:
  1319                           	opt stack 0
  1320                           
  1321                           ; 4 bytes @ 0x6D
  1322  0000CD                     	ds	1
  1323  0000CE                     ??___fltol:
  1324                           
  1325                           ; 1 bytes @ 0x6E
  1326  0000CE                     	ds	3
  1327  0000D1                     ?_log:
  1328                           	opt stack 0
  1329  0000D1                     log@x:
  1330                           	opt stack 0
  1331                           
  1332                           ; 4 bytes @ 0x71
  1333  0000D1                     	ds	1
  1334  0000D2                     ___fltol@sign1:
  1335                           	opt stack 0
  1336                           
  1337                           ; 1 bytes @ 0x72
  1338  0000D2                     	ds	1
  1339  0000D3                     ___fltol@exp1:
  1340                           	opt stack 0
  1341                           
  1342                           ; 1 bytes @ 0x73
  1343  0000D3                     	ds	1
  1344  0000D4                     ?_sprintf:
  1345                           	opt stack 0
  1346  0000D4                     sprintf@sp:
  1347                           	opt stack 0
  1348                           
  1349                           ; 2 bytes @ 0x74
  1350  0000D4                     	ds	1
  1351  0000D5                     log@exponent:
  1352                           	opt stack 0
  1353                           
  1354                           ; 2 bytes @ 0x75
  1355  0000D5                     	ds	1
  1356  0000D6                     sprintf@f:
  1357                           	opt stack 0
  1358                           
  1359                           ; 2 bytes @ 0x76
  1360  0000D6                     	ds	1
  1361  0000D7                     ??_read_adc:
  1362                           
  1363                           ; 1 bytes @ 0x77
  1364  0000D7                     	ds	2
  1365  0000D9                     read_adc@logaritmo:
  1366                           	opt stack 0
  1367                           
  1368                           ; 4 bytes @ 0x79
  1369  0000D9                     	ds	3
  1370  0000DC                     ??_sprintf:
  1371                           
  1372                           ; 1 bytes @ 0x7C
  1373  0000DC                     	ds	1
  1374  0000DD                     read_adc@i:
  1375                           	opt stack 0
  1376                           
  1377                           ; 1 bytes @ 0x7D
  1378  0000DD                     	ds	1
  1379  0000DE                     read_adc@lettura:
  1380                           	opt stack 0
  1381                           
  1382                           ; 8 bytes @ 0x7E
  1383  0000DE                     	ds	8
  1384  0000E6                     display_voltage@line:
  1385                           	opt stack 0
  1386                           
  1387                           ; 1 bytes @ 0x86
  1388  0000E6                     	ds	1
  1389  0000E7                     ??_main:
  1390                           
  1391                           ; 1 bytes @ 0x87
  1392  0000E7                     	ds	2
  1393                           tblptru	equ	0xFF8
  1394                           tblptrh	equ	0xFF7
  1395                           tblptrl	equ	0xFF6
  1396                           tablat	equ	0xFF5
  1397                           postinc0	equ	0xFEE
  1398                           wreg	equ	0xFE8
  1399                           postdec1	equ	0xFE5
  1400                           fsr1l	equ	0xFE1
  1401                           
  1402                           	psect	cstackCOMRAM
  1403  000001                     __pcstackCOMRAM:
  1404                           	opt stack 0
  1405  000001                     ??_isr_alta:
  1406  000001                     
  1407                           ; 1 bytes @ 0x0
  1408  000001                     	ds	14
  1409  00000F                     ??_isr_bassa:
  1410                           
  1411                           ; 1 bytes @ 0xE
  1412  00000F                     	ds	17
  1413  000020                     ??_isdigit:
  1414  000020                     LCD_send_command@D3:
  1415                           	opt stack 0
  1416  000020                     delay_set_quartz@frequency:
  1417                           	opt stack 0
  1418  000020                     ___llmod@counter:
  1419                           	opt stack 0
  1420  000020                     ___lwmod@counter:
  1421                           	opt stack 0
  1422                           
  1423                           ; 1 bytes @ 0x1F
  1424  000020                     	ds	1
  1425  000021                     tblptru	equ	0xFF8
  1426                           tblptrh	equ	0xFF7
  1427                           tblptrl	equ	0xFF6
  1428                           tablat	equ	0xFF5
  1429                           postinc0	equ	0xFEE
  1430                           wreg	equ	0xFE8
  1431                           postdec1	equ	0xFE5
  1432                           fsr1l	equ	0xFE1
  1433                           
  1434                           ; 1 bytes @ 0x20
  1435 ;;
  1436 ;;Main: autosize = 0, tempsize = 2, incstack = 0, save=0
  1437 ;;
  1438 ;; *************** function _main *****************
  1439 ;; Defined at:
  1440 ;;		line 87 in file "batterua.c"
  1441 ;; Parameters:    Size  Location     Type
  1442 ;;		None
  1443 ;; Auto vars:     Size  Location     Type
  1444 ;;  percentuale     4   37[BANK1 ] float 
  1445 ;;  ore             2   43[BANK1 ] unsigned int 
  1446 ;;  minuti          2   41[BANK1 ] unsigned int 
  1447 ;; Return value:  Size  Location     Type
  1448 ;;                  1    wreg      void 
  1449 ;; Registers used:
  1450 ;;		wreg, fsr1l, fsr1h, fsr2l, fsr2h, status,2, status,0, tblptrl, tblptrh, tblptru, prodl, prodh, cstack
  1451 ;; Tracked objects:
  1452 ;;		On entry : 0/0
  1453 ;;		On exit  : 0/0
  1454 ;;		Unchanged: 0/0
  1455 ;; Data sizes:     COMRAM   BANK0   BANK1   BANK2   BANK3   BANK4   BANK5   BANK6   BANK7
  1456 ;;      Params:         0       0       0       0       0       0       0       0       0
  1457 ;;      Locals:         0       0      12       0       0       0       0       0       0
  1458 ;;      Temps:          0       2       0       0       0       0       0       0       0
  1459 ;;      Totals:         0       2      12       0       0       0       0       0       0
  1460 ;;Total ram usage:       14 bytes
  1461 ;; Hardware stack levels required when called:   10
  1462 ;; This function calls:
  1463 ;;		_LCD_clear
  1464 ;;		_LCD_goto_line
  1465 ;;		_LCD_goto_xy
  1466 ;;		_LCD_home
  1467 ;;		_LCD_initialize
  1468 ;;		_LCD_write_integer
  1469 ;;		_LCD_write_message
  1470 ;;		_LCD_write_string
  1471 ;;		___fladd
  1472 ;;		___fldiv
  1473 ;;		___flge
  1474 ;;		___flmul
  1475 ;;		___fltol
  1476 ;;		___lwdiv
  1477 ;;		___wmul
  1478 ;;		___xxtofl
  1479 ;;		_delay_ms
  1480 ;;		_delay_s
  1481 ;;		_inizializzazione
  1482 ;;		_read_adc
  1483 ;;		_ricarica
  1484 ;;		_scarica
  1485 ;;		_sprintf
  1486 ;;		_stabilizzazione
  1487 ;; This function is called by:
  1488 ;;		Startup code after reset
  1489 ;; This function uses a non-reentrant model
  1490 ;;
  1491                           
  1492                           	psect	text0
  1493  000924                     __ptext0:
  1494                           	opt stack 0
  1495  000924                     _main:
  1496                           	opt stack 21
  1497                           
  1498                           ;batterua.c: 90: inizializzazione();
  1499                           
  1500                           ;incstack = 0
  1501  000924  EC5F  F020         	call	_inizializzazione	;wreg free
  1502                           
  1503                           ;batterua.c: 91: read_adc();
  1504  000928  ECD0  F009         	call	_read_adc	;wreg free
  1505                           
  1506                           ;batterua.c: 92: LCD_write_message("selezionare capacita");
  1507  00092C  0E75               	movlw	low STR_1
  1508  00092E  0100               	movlb	0	; () banked
  1509  000930  6F70               	movwf	LCD_write_message@buffer& (0+255),b
  1510  000932  0E7F               	movlw	high STR_1
  1511  000934  0100               	movlb	0	; () banked
  1512  000936  6F71               	movwf	(LCD_write_message@buffer+1)& (0+255),b
  1513  000938  EC33  F022         	call	_LCD_write_message	;wreg free
  1514                           
  1515                           ;batterua.c: 93: LCD_goto_line(2);
  1516  00093C  0E02               	movlw	2
  1517  00093E  ECAA  F01C         	call	_LCD_goto_line
  1518                           
  1519                           ;batterua.c: 94: LCD_write_message("batteria:");
  1520  000942  0E6B               	movlw	low (STR_14+11)
  1521  000944  0100               	movlb	0	; () banked
  1522  000946  6F70               	movwf	LCD_write_message@buffer& (0+255),b
  1523  000948  0E7F               	movlw	high (STR_14+11)
  1524  00094A  0100               	movlb	0	; () banked
  1525  00094C  6F71               	movwf	(LCD_write_message@buffer+1)& (0+255),b
  1526  00094E  EC33  F022         	call	_LCD_write_message	;wreg free
  1527                           
  1528                           ;batterua.c: 96: while (inizio != 1) {
  1529                           
  1530                           ;batterua.c: 95: while (1) {
  1531  000952  D101               	goto	l6461
  1532  000954                     l6407:
  1533                           
  1534                           ;batterua.c: 97: LCD_goto_xy(10, 2);
  1535  000954  0E02               	movlw	2
  1536  000956  0100               	movlb	0	; () banked
  1537  000958  6F6E               	movwf	LCD_goto_xy@y& (0+255),b
  1538  00095A  0E0A               	movlw	10
  1539  00095C  EC81  F022         	call	_LCD_goto_xy
  1540                           
  1541                           ;batterua.c: 98: LCD_write_integer(battery, 3, 0x01);
  1542  000960  C0F5  F07E         	movff	_battery,LCD_write_integer@value	;volatile
  1543  000964  C0F6  F07F         	movff	_battery+1,LCD_write_integer@value+1	;volatile
  1544  000968  0E03               	movlw	3
  1545  00096A  0100               	movlb	0	; () banked
  1546  00096C  6F80               	movwf	LCD_write_integer@number_of_digits& (0+255),b
  1547  00096E  0E01               	movlw	1
  1548  000970  0100               	movlb	0	; () banked
  1549  000972  6F81               	movwf	LCD_write_integer@zero_cleaning& (0+255),b
  1550  000974  ECE5  F015         	call	_LCD_write_integer	;wreg free
  1551                           
  1552                           ;batterua.c: 99: LCD_write_message("Ah");
  1553  000978  0EFA               	movlw	low STR_3
  1554  00097A  0100               	movlb	0	; () banked
  1555  00097C  6F70               	movwf	LCD_write_message@buffer& (0+255),b
  1556  00097E  0E7F               	movlw	high STR_3
  1557  000980  0100               	movlb	0	; () banked
  1558  000982  6F71               	movwf	(LCD_write_message@buffer+1)& (0+255),b
  1559  000984  EC33  F022         	call	_LCD_write_message	;wreg free
  1560                           
  1561                           ;batterua.c: 100: delay_ms(10);
  1562  000988  0E00               	movlw	0
  1563  00098A  0100               	movlb	0	; () banked
  1564  00098C  6F67               	movwf	(delay_ms@value_ms+1)& (0+255),b
  1565  00098E  0E0A               	movlw	10
  1566  000990  6F66               	movwf	delay_ms@value_ms& (0+255),b
  1567  000992  EC63  F021         	call	_delay_ms	;wreg free
  1568                           
  1569                           ;batterua.c: 101: if (PORTBbits.RB1 == 0) {
  1570  000996  B281               	btfsc	3969,1,c	;volatile
  1571  000998  D0DE               	goto	l6461
  1572  00099A                     l228:
  1573  00099A  A281               	btfss	3969,1,c	;volatile
  1574  00099C  D7FE               	goto	l228
  1575                           
  1576                           ;batterua.c: 103: LCD_clear();
  1577  00099E  EC04  F022         	call	_LCD_clear	;wreg free
  1578                           
  1579                           ;batterua.c: 104: while (inizio != 1) {
  1580  0009A2  D024               	goto	l231
  1581  0009A4                     l6421:
  1582                           
  1583                           ;batterua.c: 105: LCD_home();
  1584  0009A4  ECD2  F021         	call	_LCD_home	;wreg free
  1585                           
  1586                           ;batterua.c: 106: LCD_write_message("Carico a fine test?");
  1587  0009A8  0E8A               	movlw	low STR_4
  1588  0009AA  0100               	movlb	0	; () banked
  1589  0009AC  6F70               	movwf	LCD_write_message@buffer& (0+255),b
  1590  0009AE  0E7F               	movlw	high STR_4
  1591  0009B0  0100               	movlb	0	; () banked
  1592  0009B2  6F71               	movwf	(LCD_write_message@buffer+1)& (0+255),b
  1593  0009B4  EC33  F022         	call	_LCD_write_message	;wreg free
  1594                           
  1595                           ;batterua.c: 107: LCD_goto_line(2);
  1596  0009B8  0E02               	movlw	2
  1597  0009BA  ECAA  F01C         	call	_LCD_goto_line
  1598                           
  1599                           ;batterua.c: 108: if (ricaricaFineCiclo == 1) {
  1600  0009BE  A23E               	btfss	_ricaricaFineCiclo/(0+8),_ricaricaFineCiclo& (0+7),c	;volatile
  1601  0009C0  D009               	goto	l6431
  1602                           
  1603                           ;batterua.c: 109: LCD_write_message("         S         ");
  1604  0009C2  0ECD               	movlw	low STR_5
  1605  0009C4  0100               	movlb	0	; () banked
  1606  0009C6  6F70               	movwf	LCD_write_message@buffer& (0+255),b
  1607  0009C8  0E7E               	movlw	high STR_5
  1608  0009CA  0100               	movlb	0	; () banked
  1609  0009CC  6F71               	movwf	(LCD_write_message@buffer+1)& (0+255),b
  1610  0009CE  EC33  F022         	call	_LCD_write_message	;wreg free
  1611                           
  1612                           ;batterua.c: 110: } else {
  1613  0009D2  D008               	goto	l6433
  1614  0009D4                     l6431:
  1615                           
  1616                           ;batterua.c: 111: LCD_write_message("         No         ");
  1617  0009D4  0EE2               	movlw	low STR_6
  1618  0009D6  0100               	movlb	0	; () banked
  1619  0009D8  6F70               	movwf	LCD_write_message@buffer& (0+255),b
  1620  0009DA  0E7E               	movlw	high STR_6
  1621  0009DC  0100               	movlb	0	; () banked
  1622  0009DE  6F71               	movwf	(LCD_write_message@buffer+1)& (0+255),b
  1623  0009E0  EC33  F022         	call	_LCD_write_message	;wreg free
  1624  0009E4                     l6433:
  1625                           
  1626                           ;batterua.c: 112: }
  1627                           ;batterua.c: 113: if (PORTBbits.RB1 == 0) {
  1628  0009E4  B281               	btfsc	3969,1,c	;volatile
  1629  0009E6  D002               	goto	l231
  1630                           
  1631                           ;batterua.c: 114: inizio = 1;
  1632  0009E8  803E               	bsf	_inizio/(0+8),_inizio& (0+7),c	;volatile
  1633                           
  1634                           ;batterua.c: 115: INTCONbits.INT0IE = 0;
  1635  0009EA  98F2               	bcf	intcon,4,c	;volatile
  1636  0009EC                     l231:
  1637  0009EC  A03E               	btfss	_inizio/(0+8),_inizio& (0+7),c	;volatile
  1638  0009EE  D7DA               	goto	l6421
  1639                           
  1640                           ;batterua.c: 116: }
  1641                           ;batterua.c: 117: }
  1642                           ;batterua.c: 119: unsigned int ore, minuti = 0;
  1643  0009F0  0E00               	movlw	0
  1644  0009F2  0101               	movlb	1	; () banked
  1645  0009F4  6F2A               	movwf	(main@minuti+1)& (0+255),b
  1646  0009F6  0E00               	movlw	0
  1647  0009F8  6F29               	movwf	main@minuti& (0+255),b
  1648                           
  1649                           ; BSR set to: 1
  1650                           ;batterua.c: 120: ore = battery / 9;
  1651  0009FA  C0F5  F066         	movff	_battery,___lwdiv@dividend	;volatile
  1652  0009FE  C0F6  F067         	movff	_battery+1,___lwdiv@dividend+1	;volatile
  1653  000A02  0E00               	movlw	0
  1654  000A04  0100               	movlb	0	; () banked
  1655  000A06  6F69               	movwf	(___lwdiv@divisor+1)& (0+255),b
  1656  000A08  0E09               	movlw	9
  1657  000A0A  6F68               	movwf	___lwdiv@divisor& (0+255),b
  1658  000A0C  EC23  F020         	call	___lwdiv	;wreg free
  1659  000A10  C066  F12B         	movff	?___lwdiv,main@ore
  1660  000A14  C067  F12C         	movff	?___lwdiv+1,main@ore+1
  1661                           
  1662                           ;batterua.c: 121: minuti = (((battery * 100) / 9)-(ore * 100))*0.6;
  1663  000A18  0E9A               	movlw	154
  1664  000A1A  0100               	movlb	0	; () banked
  1665  000A1C  6FAC               	movwf	___flmul@a& (0+255),b
  1666  000A1E  0E99               	movlw	153
  1667  000A20  6FAD               	movwf	(___flmul@a+1)& (0+255),b
  1668  000A22  0E19               	movlw	25
  1669  000A24  6FAE               	movwf	(___flmul@a+2)& (0+255),b
  1670  000A26  0E3F               	movlw	63
  1671  000A28  6FAF               	movwf	(___flmul@a+3)& (0+255),b
  1672  000A2A  0E00               	movlw	0
  1673  000A2C  0100               	movlb	0	; () banked
  1674  000A2E  6F69               	movwf	(___lwdiv@divisor+1)& (0+255),b
  1675  000A30  0E09               	movlw	9
  1676  000A32  6F68               	movwf	___lwdiv@divisor& (0+255),b
  1677  000A34  C0F5  F060         	movff	_battery,___wmul@multiplier	;volatile
  1678  000A38  C0F6  F061         	movff	_battery+1,___wmul@multiplier+1	;volatile
  1679  000A3C  0E00               	movlw	0
  1680  000A3E  0100               	movlb	0	; () banked
  1681  000A40  6F63               	movwf	(___wmul@multiplicand+1)& (0+255),b
  1682  000A42  0E64               	movlw	100
  1683  000A44  6F62               	movwf	___wmul@multiplicand& (0+255),b
  1684  000A46  ECB7  F021         	call	___wmul	;wreg free
  1685  000A4A  C060  F066         	movff	?___wmul,___lwdiv@dividend
  1686  000A4E  C061  F067         	movff	?___wmul+1,___lwdiv@dividend+1
  1687  000A52  EC23  F020         	call	___lwdiv	;wreg free
  1688  000A56  C066  F0E7         	movff	?___lwdiv,??_main
  1689  000A5A  C067  F0E8         	movff	?___lwdiv+1,??_main+1
  1690  000A5E  0E00               	movlw	0
  1691  000A60  0100               	movlb	0	; () banked
  1692  000A62  6F63               	movwf	(___wmul@multiplicand+1)& (0+255),b
  1693  000A64  0E64               	movlw	100
  1694  000A66  6F62               	movwf	___wmul@multiplicand& (0+255),b
  1695  000A68  C12B  F060         	movff	main@ore,___wmul@multiplier
  1696  000A6C  C12C  F061         	movff	main@ore+1,___wmul@multiplier+1
  1697  000A70  ECB7  F021         	call	___wmul	;wreg free
  1698  000A74  0100               	movlb	0	; () banked
  1699  000A76  1F60               	comf	?___wmul& (0+255),f,b
  1700  000A78  0100               	movlb	0	; () banked
  1701  000A7A  1F61               	comf	(?___wmul+1)& (0+255),f,b
  1702  000A7C  0100               	movlb	0	; () banked
  1703  000A7E  4B60               	infsnz	?___wmul& (0+255),f,b
  1704  000A80  2B61               	incf	(?___wmul+1)& (0+255),f,b
  1705  000A82  0100               	movlb	0	; () banked
  1706  000A84  5160               	movf	?___wmul& (0+255),w,b
  1707  000A86  0100               	movlb	0	; () banked
  1708  000A88  27E7               	addwf	??_main& (0+255),f,b
  1709  000A8A  0100               	movlb	0	; () banked
  1710  000A8C  5161               	movf	(?___wmul+1)& (0+255),w,b
  1711  000A8E  0100               	movlb	0	; () banked
  1712  000A90  23E8               	addwfc	(??_main+1)& (0+255),f,b
  1713  000A92  C0E7  F06D         	movff	??_main,___xxtofl@val
  1714  000A96  C0E8  F06E         	movff	??_main+1,___xxtofl@val+1
  1715  000A9A  0100               	movlb	0	; () banked
  1716  000A9C  6B6F               	clrf	(___xxtofl@val+2)& (0+255),b
  1717  000A9E  6B70               	clrf	(___xxtofl@val+3)& (0+255),b
  1718  000AA0  0E00               	movlw	0
  1719  000AA2  ECFE  F014         	call	___xxtofl
  1720  000AA6  C06D  F0A8         	movff	?___xxtofl,___flmul@b
  1721  000AAA  C06E  F0A9         	movff	?___xxtofl+1,___flmul@b+1
  1722  000AAE  C06F  F0AA         	movff	?___xxtofl+2,___flmul@b+2
  1723  000AB2  C070  F0AB         	movff	?___xxtofl+3,___flmul@b+3
  1724  000AB6  EC79  F00E         	call	___flmul	;wreg free
  1725  000ABA  C0A8  F0CA         	movff	?___flmul,___fltol@f1
  1726  000ABE  C0A9  F0CB         	movff	?___flmul+1,___fltol@f1+1
  1727  000AC2  C0AA  F0CC         	movff	?___flmul+2,___fltol@f1+2
  1728  000AC6  C0AB  F0CD         	movff	?___flmul+3,___fltol@f1+3
  1729  000ACA  ECAD  F01B         	call	___fltol	;wreg free
  1730  000ACE  C0CA  F129         	movff	?___fltol,main@minuti
  1731  000AD2  C0CB  F12A         	movff	?___fltol+1,main@minuti+1
  1732                           
  1733                           ;batterua.c: 122: LCD_home();
  1734  000AD6  ECD2  F021         	call	_LCD_home	;wreg free
  1735                           
  1736                           ;batterua.c: 123: LCD_write_message("  Durata  scarica:  ");
  1737  000ADA  0E0C               	movlw	low STR_7
  1738  000ADC  0100               	movlb	0	; () banked
  1739  000ADE  6F70               	movwf	LCD_write_message@buffer& (0+255),b
  1740  000AE0  0E7F               	movlw	high STR_7
  1741  000AE2  0100               	movlb	0	; () banked
  1742  000AE4  6F71               	movwf	(LCD_write_message@buffer+1)& (0+255),b
  1743  000AE6  EC33  F022         	call	_LCD_write_message	;wreg free
  1744                           
  1745                           ;batterua.c: 124: LCD_goto_line(2);
  1746  000AEA  0E02               	movlw	2
  1747  000AEC  ECAA  F01C         	call	_LCD_goto_line
  1748                           
  1749                           ;batterua.c: 125: LCD_write_message("       ");
  1750  000AF0  0EDA               	movlw	low (STR_5+13)
  1751  000AF2  0100               	movlb	0	; () banked
  1752  000AF4  6F70               	movwf	LCD_write_message@buffer& (0+255),b
  1753  000AF6  0E7E               	movlw	high (STR_5+13)
  1754  000AF8  0100               	movlb	0	; () banked
  1755  000AFA  6F71               	movwf	(LCD_write_message@buffer+1)& (0+255),b
  1756  000AFC  EC33  F022         	call	_LCD_write_message	;wreg free
  1757                           
  1758                           ;batterua.c: 126: LCD_write_integer(ore, 2, 0x01);
  1759  000B00  C12B  F07E         	movff	main@ore,LCD_write_integer@value
  1760  000B04  C12C  F07F         	movff	main@ore+1,LCD_write_integer@value+1
  1761  000B08  0E02               	movlw	2
  1762  000B0A  0100               	movlb	0	; () banked
  1763  000B0C  6F80               	movwf	LCD_write_integer@number_of_digits& (0+255),b
  1764  000B0E  0E01               	movlw	1
  1765  000B10  0100               	movlb	0	; () banked
  1766  000B12  6F81               	movwf	LCD_write_integer@zero_cleaning& (0+255),b
  1767  000B14  ECE5  F015         	call	_LCD_write_integer	;wreg free
  1768                           
  1769                           ;batterua.c: 127: LCD_write_message(":");
  1770  000B18  0EDA               	movlw	low (STR_12+9)
  1771  000B1A  0100               	movlb	0	; () banked
  1772  000B1C  6F70               	movwf	LCD_write_message@buffer& (0+255),b
  1773  000B1E  0E7F               	movlw	high (STR_12+9)
  1774  000B20  0100               	movlb	0	; () banked
  1775  000B22  6F71               	movwf	(LCD_write_message@buffer+1)& (0+255),b
  1776  000B24  EC33  F022         	call	_LCD_write_message	;wreg free
  1777                           
  1778                           ;batterua.c: 128: LCD_write_integer(minuti, 2, 0x00);
  1779  000B28  C129  F07E         	movff	main@minuti,LCD_write_integer@value
  1780  000B2C  C12A  F07F         	movff	main@minuti+1,LCD_write_integer@value+1
  1781  000B30  0E02               	movlw	2
  1782  000B32  0100               	movlb	0	; () banked
  1783  000B34  6F80               	movwf	LCD_write_integer@number_of_digits& (0+255),b
  1784  000B36  0E00               	movlw	0
  1785  000B38  0100               	movlb	0	; () banked
  1786  000B3A  6F81               	movwf	LCD_write_integer@zero_cleaning& (0+255),b
  1787  000B3C  ECE5  F015         	call	_LCD_write_integer	;wreg free
  1788                           
  1789                           ;batterua.c: 129: LCD_write_message("        ");
  1790  000B40  0ED9               	movlw	low (STR_5+12)
  1791  000B42  0100               	movlb	0	; () banked
  1792  000B44  6F70               	movwf	LCD_write_message@buffer& (0+255),b
  1793  000B46  0E7E               	movlw	high (STR_5+12)
  1794  000B48  0100               	movlb	0	; () banked
  1795  000B4A  6F71               	movwf	(LCD_write_message@buffer+1)& (0+255),b
  1796  000B4C  EC33  F022         	call	_LCD_write_message	;wreg free
  1797                           
  1798                           ;batterua.c: 130: delay_s(2);
  1799  000B50  0E02               	movlw	2
  1800  000B52  EC1D  F022         	call	_delay_s
  1801  000B56                     l6461:
  1802  000B56  A03E               	btfss	_inizio/(0+8),_inizio& (0+7),c	;volatile
  1803  000B58  D6FD               	goto	l6407
  1804                           
  1805                           ;batterua.c: 131: }
  1806                           ;batterua.c: 132: }
  1807                           ;batterua.c: 134: ricarica();
  1808  000B5A  EC9A  F01A         	call	_ricarica	;wreg free
  1809                           
  1810                           ;batterua.c: 135: stabilizzazione();
  1811  000B5E  ECE6  F01F         	call	_stabilizzazione	;wreg free
  1812                           
  1813                           ;batterua.c: 136: scarica();
  1814  000B62  EC15  F014         	call	_scarica	;wreg free
  1815                           
  1816                           ;batterua.c: 138: if (stati == 4) {
  1817  000B66  0E04               	movlw	4
  1818  000B68  1835               	xorwf	_stati,w,c	;volatile
  1819  000B6A  A4D8               	btfss	status,2,c
  1820  000B6C  D7F4               	goto	l6461
  1821                           
  1822                           ;batterua.c: 139: LCD_initialize(16);
  1823  000B6E  0E10               	movlw	16
  1824  000B70  ECE3  F019         	call	_LCD_initialize
  1825                           
  1826                           ;batterua.c: 140: LATEbits.LATE0 = 0;
  1827  000B74  908D               	bcf	3981,0,c	;volatile
  1828                           
  1829                           ;batterua.c: 141: if (somme != 0) {
  1830  000B76  5021               	movf	_somme,w,c	;volatile
  1831  000B78  1022               	iorwf	_somme+1,w,c	;volatile
  1832  000B7A  1023               	iorwf	_somme+2,w,c	;volatile
  1833  000B7C  1024               	iorwf	_somme+3,w,c	;volatile
  1834  000B7E  B4D8               	btfsc	status,2,c
  1835  000B80  D025               	goto	l239
  1836                           
  1837                           ;batterua.c: 142: sommatoriaCorrente = sommatoriaCorrente / somme;
  1838  000B82  C0ED  F07B         	movff	_sommatoriaCorrente,___fldiv@b	;volatile
  1839  000B86  C0EE  F07C         	movff	_sommatoriaCorrente+1,___fldiv@b+1	;volatile
  1840  000B8A  C0EF  F07D         	movff	_sommatoriaCorrente+2,___fldiv@b+2	;volatile
  1841  000B8E  C0F0  F07E         	movff	_sommatoriaCorrente+3,___fldiv@b+3	;volatile
  1842  000B92  C021  F06D         	movff	_somme,___xxtofl@val	;volatile
  1843  000B96  C022  F06E         	movff	_somme+1,___xxtofl@val+1	;volatile
  1844  000B9A  C023  F06F         	movff	_somme+2,___xxtofl@val+2	;volatile
  1845  000B9E  C024  F070         	movff	_somme+3,___xxtofl@val+3	;volatile
  1846  000BA2  0E00               	movlw	0
  1847  000BA4  ECFE  F014         	call	___xxtofl
  1848  000BA8  C06D  F07F         	movff	?___xxtofl,___fldiv@a
  1849  000BAC  C06E  F080         	movff	?___xxtofl+1,___fldiv@a+1
  1850  000BB0  C06F  F081         	movff	?___xxtofl+2,___fldiv@a+2
  1851  000BB4  C070  F082         	movff	?___xxtofl+3,___fldiv@a+3
  1852  000BB8  ECCC  F010         	call	___fldiv	;wreg free
  1853  000BBC  C07B  F0ED         	movff	?___fldiv,_sommatoriaCorrente	;volatile
  1854  000BC0  C07C  F0EE         	movff	?___fldiv+1,_sommatoriaCorrente+1	;volatile
  1855  000BC4  C07D  F0EF         	movff	?___fldiv+2,_sommatoriaCorrente+2	;volatile
  1856  000BC8  C07E  F0F0         	movff	?___fldiv+3,_sommatoriaCorrente+3	;volatile
  1857  000BCC                     l239:
  1858                           
  1859                           ;batterua.c: 143: }
  1860                           ;batterua.c: 144: sommatoriaCorrente = sommatoriaCorrente * (ore + ((float) minuti / 60)
      +                          +((float) secondi / 3600));
  1861  000BCC  0E00               	movlw	0
  1862  000BCE  0100               	movlb	0	; () banked
  1863  000BD0  6F7F               	movwf	___fldiv@a& (0+255),b
  1864  000BD2  0E00               	movlw	0
  1865  000BD4  6F80               	movwf	(___fldiv@a+1)& (0+255),b
  1866  000BD6  0E70               	movlw	112
  1867  000BD8  6F81               	movwf	(___fldiv@a+2)& (0+255),b
  1868  000BDA  0E42               	movlw	66
  1869  000BDC  6F82               	movwf	(___fldiv@a+3)& (0+255),b
  1870  000BDE  C02F  F06D         	movff	_minuti,___xxtofl@val	;volatile
  1871  000BE2  C030  F06E         	movff	_minuti+1,___xxtofl@val+1	;volatile
  1872  000BE6  0100               	movlb	0	; () banked
  1873  000BE8  6B6F               	clrf	(___xxtofl@val+2)& (0+255),b
  1874  000BEA  6B70               	clrf	(___xxtofl@val+3)& (0+255),b
  1875  000BEC  0E00               	movlw	0
  1876  000BEE  ECFE  F014         	call	___xxtofl
  1877  000BF2  C06D  F07B         	movff	?___xxtofl,___fldiv@b
  1878  000BF6  C06E  F07C         	movff	?___xxtofl+1,___fldiv@b+1
  1879  000BFA  C06F  F07D         	movff	?___xxtofl+2,___fldiv@b+2
  1880  000BFE  C070  F07E         	movff	?___xxtofl+3,___fldiv@b+3
  1881  000C02  ECCC  F010         	call	___fldiv	;wreg free
  1882  000C06  C07B  F098         	movff	?___fldiv,___fladd@a
  1883  000C0A  C07C  F099         	movff	?___fldiv+1,___fladd@a+1
  1884  000C0E  C07D  F09A         	movff	?___fldiv+2,___fladd@a+2
  1885  000C12  C07E  F09B         	movff	?___fldiv+3,___fladd@a+3
  1886  000C16  C031  F06D         	movff	_ore,___xxtofl@val	;volatile
  1887  000C1A  C032  F06E         	movff	_ore+1,___xxtofl@val+1	;volatile
  1888  000C1E  0100               	movlb	0	; () banked
  1889  000C20  6B6F               	clrf	(___xxtofl@val+2)& (0+255),b
  1890  000C22  6B70               	clrf	(___xxtofl@val+3)& (0+255),b
  1891  000C24  0E00               	movlw	0
  1892  000C26  ECFE  F014         	call	___xxtofl
  1893  000C2A  C06D  F094         	movff	?___xxtofl,___fladd@b
  1894  000C2E  C06E  F095         	movff	?___xxtofl+1,___fladd@b+1
  1895  000C32  C06F  F096         	movff	?___xxtofl+2,___fladd@b+2
  1896  000C36  C070  F097         	movff	?___xxtofl+3,___fladd@b+3
  1897  000C3A  EC25  F00C         	call	___fladd	;wreg free
  1898  000C3E  C094  F121         	movff	?___fladd,_main$1515
  1899  000C42  C095  F122         	movff	?___fladd+1,_main$1515+1
  1900  000C46  C096  F123         	movff	?___fladd+2,_main$1515+2
  1901  000C4A  C097  F124         	movff	?___fladd+3,_main$1515+3
  1902                           
  1903                           ;batterua.c: 143: }
  1904                           ;batterua.c: 144: sommatoriaCorrente = sommatoriaCorrente * (ore + ((float) minuti / 60)
      +                          +((float) secondi / 3600));
  1905  000C4E  0E00               	movlw	0
  1906  000C50  0100               	movlb	0	; () banked
  1907  000C52  6F7F               	movwf	___fldiv@a& (0+255),b
  1908  000C54  0E00               	movlw	0
  1909  000C56  6F80               	movwf	(___fldiv@a+1)& (0+255),b
  1910  000C58  0E61               	movlw	97
  1911  000C5A  6F81               	movwf	(___fldiv@a+2)& (0+255),b
  1912  000C5C  0E45               	movlw	69
  1913  000C5E  6F82               	movwf	(___fldiv@a+3)& (0+255),b
  1914  000C60  C033  F06D         	movff	_secondi,___xxtofl@val	;volatile
  1915  000C64  C034  F06E         	movff	_secondi+1,___xxtofl@val+1	;volatile
  1916  000C68  0100               	movlb	0	; () banked
  1917  000C6A  6B6F               	clrf	(___xxtofl@val+2)& (0+255),b
  1918  000C6C  6B70               	clrf	(___xxtofl@val+3)& (0+255),b
  1919  000C6E  0E00               	movlw	0
  1920  000C70  ECFE  F014         	call	___xxtofl
  1921  000C74  C06D  F07B         	movff	?___xxtofl,___fldiv@b
  1922  000C78  C06E  F07C         	movff	?___xxtofl+1,___fldiv@b+1
  1923  000C7C  C06F  F07D         	movff	?___xxtofl+2,___fldiv@b+2
  1924  000C80  C070  F07E         	movff	?___xxtofl+3,___fldiv@b+3
  1925  000C84  ECCC  F010         	call	___fldiv	;wreg free
  1926  000C88  C07B  F098         	movff	?___fldiv,___fladd@a
  1927  000C8C  C07C  F099         	movff	?___fldiv+1,___fladd@a+1
  1928  000C90  C07D  F09A         	movff	?___fldiv+2,___fladd@a+2
  1929  000C94  C07E  F09B         	movff	?___fldiv+3,___fladd@a+3
  1930  000C98  C121  F094         	movff	_main$1515,___fladd@b
  1931  000C9C  C122  F095         	movff	_main$1515+1,___fladd@b+1
  1932  000CA0  C123  F096         	movff	_main$1515+2,___fladd@b+2
  1933  000CA4  C124  F097         	movff	_main$1515+3,___fladd@b+3
  1934  000CA8  EC25  F00C         	call	___fladd	;wreg free
  1935  000CAC  C094  F0A8         	movff	?___fladd,___flmul@b
  1936  000CB0  C095  F0A9         	movff	?___fladd+1,___flmul@b+1
  1937  000CB4  C096  F0AA         	movff	?___fladd+2,___flmul@b+2
  1938  000CB8  C097  F0AB         	movff	?___fladd+3,___flmul@b+3
  1939  000CBC  C0ED  F0AC         	movff	_sommatoriaCorrente,___flmul@a	;volatile
  1940  000CC0  C0EE  F0AD         	movff	_sommatoriaCorrente+1,___flmul@a+1	;volatile
  1941  000CC4  C0EF  F0AE         	movff	_sommatoriaCorrente+2,___flmul@a+2	;volatile
  1942  000CC8  C0F0  F0AF         	movff	_sommatoriaCorrente+3,___flmul@a+3	;volatile
  1943  000CCC  EC79  F00E         	call	___flmul	;wreg free
  1944  000CD0  C0A8  F0ED         	movff	?___flmul,_sommatoriaCorrente	;volatile
  1945  000CD4  C0A9  F0EE         	movff	?___flmul+1,_sommatoriaCorrente+1	;volatile
  1946  000CD8  C0AA  F0EF         	movff	?___flmul+2,_sommatoriaCorrente+2	;volatile
  1947  000CDC  C0AB  F0F0         	movff	?___flmul+3,_sommatoriaCorrente+3	;volatile
  1948  000CE0                     l6477:
  1949                           
  1950                           ;batterua.c: 147: LCD_clear();
  1951  000CE0  EC04  F022         	call	_LCD_clear	;wreg free
  1952                           
  1953                           ;batterua.c: 148: LCD_write_message("test completato:");
  1954  000CE4  0EAF               	movlw	low STR_11
  1955  000CE6  0100               	movlb	0	; () banked
  1956  000CE8  6F70               	movwf	LCD_write_message@buffer& (0+255),b
  1957  000CEA  0E7F               	movlw	high STR_11
  1958  000CEC  0100               	movlb	0	; () banked
  1959  000CEE  6F71               	movwf	(LCD_write_message@buffer+1)& (0+255),b
  1960  000CF0  EC33  F022         	call	_LCD_write_message	;wreg free
  1961                           
  1962                           ;batterua.c: 149: LCD_goto_line(2);
  1963  000CF4  0E02               	movlw	2
  1964  000CF6  ECAA  F01C         	call	_LCD_goto_line
  1965                           
  1966                           ;batterua.c: 150: LCD_write_message("capacita':");
  1967  000CFA  0ED1               	movlw	low STR_12
  1968  000CFC  0100               	movlb	0	; () banked
  1969  000CFE  6F70               	movwf	LCD_write_message@buffer& (0+255),b
  1970  000D00  0E7F               	movlw	high STR_12
  1971  000D02  0100               	movlb	0	; () banked
  1972  000D04  6F71               	movwf	(LCD_write_message@buffer+1)& (0+255),b
  1973  000D06  EC33  F022         	call	_LCD_write_message	;wreg free
  1974                           
  1975                           ;batterua.c: 151: sprintf(str, "%.3f", sommatoriaCorrente);
  1976  000D0A  0E36               	movlw	low _str
  1977  000D0C  0100               	movlb	0	; () banked
  1978  000D0E  6FD4               	movwf	sprintf@sp& (0+255),b
  1979  000D10  0E00               	movlw	high _str
  1980  000D12  0100               	movlb	0	; () banked
  1981  000D14  6FD5               	movwf	(sprintf@sp+1)& (0+255),b
  1982  000D16  0EE7               	movlw	low (STR_27+3)
  1983  000D18  0100               	movlb	0	; () banked
  1984  000D1A  6FD6               	movwf	sprintf@f& (0+255),b
  1985  000D1C  0E7F               	movlw	high (STR_27+3)
  1986  000D1E  0100               	movlb	0	; () banked
  1987  000D20  6FD7               	movwf	(sprintf@f+1)& (0+255),b
  1988  000D22  C0ED  F0D8         	movff	_sommatoriaCorrente,?_sprintf+4	;volatile
  1989  000D26  C0EE  F0D9         	movff	_sommatoriaCorrente+1,?_sprintf+5	;volatile
  1990  000D2A  C0EF  F0DA         	movff	_sommatoriaCorrente+2,?_sprintf+6	;volatile
  1991  000D2E  C0F0  F0DB         	movff	_sommatoriaCorrente+3,?_sprintf+7	;volatile
  1992  000D32  EC5E  F000         	call	_sprintf	;wreg free
  1993                           
  1994                           ;batterua.c: 152: str[5] = '\0';
  1995  000D36  0E00               	movlw	0
  1996  000D38  6E3B               	movwf	_str+5,c	;volatile
  1997                           
  1998                           ;batterua.c: 153: LCD_write_string(str);
  1999  000D3A  0E36               	movlw	low _str
  2000  000D3C  0100               	movlb	0	; () banked
  2001  000D3E  6F70               	movwf	LCD_write_string@buffer& (0+255),b
  2002  000D40  0E00               	movlw	high _str
  2003  000D42  0100               	movlb	0	; () banked
  2004  000D44  6F71               	movwf	(LCD_write_string@buffer+1)& (0+255),b
  2005  000D46  EC5D  F022         	call	_LCD_write_string	;wreg free
  2006                           
  2007                           ;batterua.c: 154: delay_ms(1500);
  2008  000D4A  0E05               	movlw	5
  2009  000D4C  0100               	movlb	0	; () banked
  2010  000D4E  6F67               	movwf	(delay_ms@value_ms+1)& (0+255),b
  2011  000D50  0EDC               	movlw	220
  2012  000D52  6F66               	movwf	delay_ms@value_ms& (0+255),b
  2013  000D54  EC63  F021         	call	_delay_ms	;wreg free
  2014                           
  2015                           ;batterua.c: 156: LCD_clear();
  2016  000D58  EC04  F022         	call	_LCD_clear	;wreg free
  2017                           
  2018                           ;batterua.c: 157: LCD_write_message("efficienza batteria:");
  2019  000D5C  0E60               	movlw	low STR_14
  2020  000D5E  0100               	movlb	0	; () banked
  2021  000D60  6F70               	movwf	LCD_write_message@buffer& (0+255),b
  2022  000D62  0E7F               	movlw	high STR_14
  2023  000D64  0100               	movlb	0	; () banked
  2024  000D66  6F71               	movwf	(LCD_write_message@buffer+1)& (0+255),b
  2025  000D68  EC33  F022         	call	_LCD_write_message	;wreg free
  2026                           
  2027                           ;batterua.c: 158: float percentuale = 0;
  2028  000D6C  0E00               	movlw	0
  2029  000D6E  0101               	movlb	1	; () banked
  2030  000D70  6F25               	movwf	main@percentuale& (0+255),b
  2031  000D72  0E00               	movlw	0
  2032  000D74  6F26               	movwf	(main@percentuale+1)& (0+255),b
  2033  000D76  0E00               	movlw	0
  2034  000D78  6F27               	movwf	(main@percentuale+2)& (0+255),b
  2035  000D7A  0E00               	movlw	0
  2036  000D7C  6F28               	movwf	(main@percentuale+3)& (0+255),b
  2037                           
  2038                           ; BSR set to: 1
  2039                           ;batterua.c: 159: percentuale = (sommatoriaCorrente * 100) / battery;
  2040  000D7E  0E00               	movlw	0
  2041  000D80  0100               	movlb	0	; () banked
  2042  000D82  6FAC               	movwf	___flmul@a& (0+255),b
  2043  000D84  0E00               	movlw	0
  2044  000D86  6FAD               	movwf	(___flmul@a+1)& (0+255),b
  2045  000D88  0EC8               	movlw	200
  2046  000D8A  6FAE               	movwf	(___flmul@a+2)& (0+255),b
  2047  000D8C  0E42               	movlw	66
  2048  000D8E  6FAF               	movwf	(___flmul@a+3)& (0+255),b
  2049  000D90  C0ED  F0A8         	movff	_sommatoriaCorrente,___flmul@b	;volatile
  2050  000D94  C0EE  F0A9         	movff	_sommatoriaCorrente+1,___flmul@b+1	;volatile
  2051  000D98  C0EF  F0AA         	movff	_sommatoriaCorrente+2,___flmul@b+2	;volatile
  2052  000D9C  C0F0  F0AB         	movff	_sommatoriaCorrente+3,___flmul@b+3	;volatile
  2053  000DA0  EC79  F00E         	call	___flmul	;wreg free
  2054  000DA4  C0A8  F07B         	movff	?___flmul,___fldiv@b
  2055  000DA8  C0A9  F07C         	movff	?___flmul+1,___fldiv@b+1
  2056  000DAC  C0AA  F07D         	movff	?___flmul+2,___fldiv@b+2
  2057  000DB0  C0AB  F07E         	movff	?___flmul+3,___fldiv@b+3
  2058  000DB4  C0F5  F06D         	movff	_battery,___xxtofl@val	;volatile
  2059  000DB8  C0F6  F06E         	movff	_battery+1,___xxtofl@val+1	;volatile
  2060  000DBC  0100               	movlb	0	; () banked
  2061  000DBE  6B6F               	clrf	(___xxtofl@val+2)& (0+255),b
  2062  000DC0  6B70               	clrf	(___xxtofl@val+3)& (0+255),b
  2063  000DC2  0E00               	movlw	0
  2064  000DC4  ECFE  F014         	call	___xxtofl
  2065  000DC8  C06D  F07F         	movff	?___xxtofl,___fldiv@a
  2066  000DCC  C06E  F080         	movff	?___xxtofl+1,___fldiv@a+1
  2067  000DD0  C06F  F081         	movff	?___xxtofl+2,___fldiv@a+2
  2068  000DD4  C070  F082         	movff	?___xxtofl+3,___fldiv@a+3
  2069  000DD8  ECCC  F010         	call	___fldiv	;wreg free
  2070  000DDC  C07B  F125         	movff	?___fldiv,main@percentuale
  2071  000DE0  C07C  F126         	movff	?___fldiv+1,main@percentuale+1
  2072  000DE4  C07D  F127         	movff	?___fldiv+2,main@percentuale+2
  2073  000DE8  C07E  F128         	movff	?___fldiv+3,main@percentuale+3
  2074                           
  2075                           ;batterua.c: 160: LCD_goto_line(2);
  2076  000DEC  0E02               	movlw	2
  2077  000DEE  ECAA  F01C         	call	_LCD_goto_line
  2078                           
  2079                           ;batterua.c: 161: sprintf(str, "%.2f", percentuale);
  2080  000DF2  0E36               	movlw	low _str
  2081  000DF4  0100               	movlb	0	; () banked
  2082  000DF6  6FD4               	movwf	sprintf@sp& (0+255),b
  2083  000DF8  0E00               	movlw	high _str
  2084  000DFA  0100               	movlb	0	; () banked
  2085  000DFC  6FD5               	movwf	(sprintf@sp+1)& (0+255),b
  2086  000DFE  0EDF               	movlw	low (STR_28+3)
  2087  000E00  0100               	movlb	0	; () banked
  2088  000E02  6FD6               	movwf	sprintf@f& (0+255),b
  2089  000E04  0E7F               	movlw	high (STR_28+3)
  2090  000E06  0100               	movlb	0	; () banked
  2091  000E08  6FD7               	movwf	(sprintf@f+1)& (0+255),b
  2092  000E0A  C125  F0D8         	movff	main@percentuale,?_sprintf+4
  2093  000E0E  C126  F0D9         	movff	main@percentuale+1,?_sprintf+5
  2094  000E12  C127  F0DA         	movff	main@percentuale+2,?_sprintf+6
  2095  000E16  C128  F0DB         	movff	main@percentuale+3,?_sprintf+7
  2096  000E1A  EC5E  F000         	call	_sprintf	;wreg free
  2097                           
  2098                           ;batterua.c: 162: str[5] = '\0';
  2099  000E1E  0E00               	movlw	0
  2100  000E20  6E3B               	movwf	_str+5,c	;volatile
  2101                           
  2102                           ;batterua.c: 163: LCD_write_string(str);
  2103  000E22  0E36               	movlw	low _str
  2104  000E24  0100               	movlb	0	; () banked
  2105  000E26  6F70               	movwf	LCD_write_string@buffer& (0+255),b
  2106  000E28  0E00               	movlw	high _str
  2107  000E2A  0100               	movlb	0	; () banked
  2108  000E2C  6F71               	movwf	(LCD_write_string@buffer+1)& (0+255),b
  2109  000E2E  EC5D  F022         	call	_LCD_write_string	;wreg free
  2110                           
  2111                           ;batterua.c: 164: LCD_write_message("%");
  2112  000E32  0EFD               	movlw	low STR_16
  2113  000E34  0100               	movlb	0	; () banked
  2114  000E36  6F70               	movwf	LCD_write_message@buffer& (0+255),b
  2115  000E38  0E7F               	movlw	high STR_16
  2116  000E3A  0100               	movlb	0	; () banked
  2117  000E3C  6F71               	movwf	(LCD_write_message@buffer+1)& (0+255),b
  2118  000E3E  EC33  F022         	call	_LCD_write_message	;wreg free
  2119                           
  2120                           ;batterua.c: 165: delay_ms(1500);
  2121  000E42  0E05               	movlw	5
  2122  000E44  0100               	movlb	0	; () banked
  2123  000E46  6F67               	movwf	(delay_ms@value_ms+1)& (0+255),b
  2124  000E48  0EDC               	movlw	220
  2125  000E4A  6F66               	movwf	delay_ms@value_ms& (0+255),b
  2126  000E4C  EC63  F021         	call	_delay_ms	;wreg free
  2127                           
  2128                           ;batterua.c: 166: if (ricaricaFineCiclo == 1) {
  2129  000E50  A23E               	btfss	_ricaricaFineCiclo/(0+8),_ricaricaFineCiclo& (0+7),c	;volatile
  2130  000E52  D746               	goto	l6477
  2131                           
  2132                           ;batterua.c: 167: if ((current < -0.5) || (voltage < 14)) {
  2133  000E54  C0E9  F060         	movff	_current,___flge@ff1	;volatile
  2134  000E58  C0EA  F061         	movff	_current+1,___flge@ff1+1	;volatile
  2135  000E5C  C0EB  F062         	movff	_current+2,___flge@ff1+2	;volatile
  2136  000E60  C0EC  F063         	movff	_current+3,___flge@ff1+3	;volatile
  2137  000E64  0E00               	movlw	0
  2138  000E66  0100               	movlb	0	; () banked
  2139  000E68  6F64               	movwf	___flge@ff2& (0+255),b
  2140  000E6A  0E00               	movlw	0
  2141  000E6C  6F65               	movwf	(___flge@ff2+1)& (0+255),b
  2142  000E6E  0E00               	movlw	0
  2143  000E70  6F66               	movwf	(___flge@ff2+2)& (0+255),b
  2144  000E72  0EBF               	movlw	191
  2145  000E74  6F67               	movwf	(___flge@ff2+3)& (0+255),b
  2146  000E76  EC94  F017         	call	___flge	;wreg free
  2147  000E7A  0100               	movlb	0	; () banked
  2148  000E7C  A0D8               	btfss	status,0,c
  2149  000E7E  D016               	goto	l244
  2150                           
  2151                           ; BSR set to: 0
  2152  000E80  C0F1  F060         	movff	_voltage,___flge@ff1	;volatile
  2153  000E84  C0F2  F061         	movff	_voltage+1,___flge@ff1+1	;volatile
  2154  000E88  C0F3  F062         	movff	_voltage+2,___flge@ff1+2	;volatile
  2155  000E8C  C0F4  F063         	movff	_voltage+3,___flge@ff1+3	;volatile
  2156  000E90  0E00               	movlw	0
  2157  000E92  0100               	movlb	0	; () banked
  2158  000E94  6F64               	movwf	___flge@ff2& (0+255),b
  2159  000E96  0E00               	movlw	0
  2160  000E98  6F65               	movwf	(___flge@ff2+1)& (0+255),b
  2161  000E9A  0E60               	movlw	96
  2162  000E9C  6F66               	movwf	(___flge@ff2+2)& (0+255),b
  2163  000E9E  0E41               	movlw	65
  2164  000EA0  6F67               	movwf	(___flge@ff2+3)& (0+255),b
  2165  000EA2  EC94  F017         	call	___flge	;wreg free
  2166  000EA6  0100               	movlb	0	; () banked
  2167  000EA8  B0D8               	btfsc	status,0,c
  2168  000EAA  D002               	goto	l242
  2169  000EAC                     l244:
  2170                           
  2171                           ; BSR set to: 0
  2172                           ;batterua.c: 168: LATBbits.LATB7 = 1;
  2173  000EAC  8E8A               	bsf	3978,7,c	;volatile
  2174                           
  2175                           ;batterua.c: 169: } else {
  2176  000EAE  D718               	goto	l6477
  2177  000EB0                     l242:
  2178                           
  2179                           ; BSR set to: 0
  2180                           ;batterua.c: 170: LATBbits.LATB7 = 0;
  2181  000EB0  9E8A               	bcf	3978,7,c	;volatile
  2182                           
  2183                           ; BSR set to: 0
  2184                           ;batterua.c: 171: LCD_clear();
  2185  000EB2  EC04  F022         	call	_LCD_clear	;wreg free
  2186                           
  2187                           ;batterua.c: 172: LCD_write_message("  Batteria carica!  ");
  2188  000EB6  0EF7               	movlw	low STR_17
  2189  000EB8  0100               	movlb	0	; () banked
  2190  000EBA  6F70               	movwf	LCD_write_message@buffer& (0+255),b
  2191  000EBC  0E7E               	movlw	high STR_17
  2192  000EBE  0100               	movlb	0	; () banked
  2193  000EC0  6F71               	movwf	(LCD_write_message@buffer+1)& (0+255),b
  2194  000EC2  EC33  F022         	call	_LCD_write_message	;wreg free
  2195                           
  2196                           ;batterua.c: 173: delay_s(1);
  2197  000EC6  0E01               	movlw	1
  2198  000EC8  EC1D  F022         	call	_delay_s
  2199  000ECC  D709               	goto	l6477
  2200  000ECE                     __end_of_main:
  2201                           	opt stack 0
  2202                           tblptru	equ	0xFF8
  2203                           tblptrh	equ	0xFF7
  2204                           tblptrl	equ	0xFF6
  2205                           tablat	equ	0xFF5
  2206                           intcon	equ	0xFF2
  2207                           postinc0	equ	0xFEE
  2208                           wreg	equ	0xFE8
  2209                           postdec1	equ	0xFE5
  2210                           fsr1l	equ	0xFE1
  2211                           status	equ	0xFD8
  2212                           
  2213 ;; *************** function _stabilizzazione *****************
  2214 ;; Defined at:
  2215 ;;		line 207 in file "batterua.c"
  2216 ;; Parameters:    Size  Location     Type
  2217 ;;		None
  2218 ;; Auto vars:     Size  Location     Type
  2219 ;;		None
  2220 ;; Return value:  Size  Location     Type
  2221 ;;                  1    wreg      void 
  2222 ;; Registers used:
  2223 ;;		wreg, fsr1l, fsr1h, fsr2l, fsr2h, status,2, status,0, tblptrl, tblptrh, tblptru, prodl, prodh, cstack
  2224 ;; Tracked objects:
  2225 ;;		On entry : 0/0
  2226 ;;		On exit  : 0/0
  2227 ;;		Unchanged: 0/0
  2228 ;; Data sizes:     COMRAM   BANK0   BANK1   BANK2   BANK3   BANK4   BANK5   BANK6   BANK7
  2229 ;;      Params:         0       0       0       0       0       0       0       0       0
  2230 ;;      Locals:         0       0       0       0       0       0       0       0       0
  2231 ;;      Temps:          0       0       0       0       0       0       0       0       0
  2232 ;;      Totals:         0       0       0       0       0       0       0       0       0
  2233 ;;Total ram usage:        0 bytes
  2234 ;; Hardware stack levels used:    1
  2235 ;; Hardware stack levels required when called:    9
  2236 ;; This function calls:
  2237 ;;		_LCD_goto_line
  2238 ;;		_LCD_initialize
  2239 ;;		_LCD_write_message
  2240 ;;		___flge
  2241 ;;		_delay_ms
  2242 ;;		_delay_s
  2243 ;;		_display_voltage
  2244 ;; This function is called by:
  2245 ;;		_main
  2246 ;; This function uses a non-reentrant model
  2247 ;;
  2248                           
  2249                           	psect	text1
  2250  003FCC                     __ptext1:
  2251                           	opt stack 0
  2252  003FCC                     _stabilizzazione:
  2253                           	opt stack 21
  2254                           
  2255                           ;batterua.c: 208: LCD_initialize(16);
  2256                           
  2257                           ;incstack = 0
  2258  003FCC  0E10               	movlw	16
  2259  003FCE  ECE3  F019         	call	_LCD_initialize
  2260                           
  2261                           ;batterua.c: 209: if (stati == 1) {
  2262  003FD2  0435               	decf	_stati,w,c	;volatile
  2263  003FD4  A4D8               	btfss	status,2,c
  2264  003FD6  0012               	return	
  2265                           
  2266                           ;batterua.c: 210: LCD_initialize(16);
  2267  003FD8  0E10               	movlw	16
  2268  003FDA  ECE3  F019         	call	_LCD_initialize
  2269                           
  2270                           ;batterua.c: 211: while (voltage > 13.2) {
  2271  003FDE  D01A               	goto	l6347
  2272  003FE0                     l6333:
  2273                           
  2274                           ;batterua.c: 212: LCD_goto_line(1);
  2275  003FE0  0E01               	movlw	1
  2276  003FE2  ECAA  F01C         	call	_LCD_goto_line
  2277                           
  2278                           ;batterua.c: 213: LCD_write_message(" Attesa Stabilizzaz.");
  2279  003FE6  0E4B               	movlw	low STR_22
  2280  003FE8  0100               	movlb	0	; () banked
  2281  003FEA  6F70               	movwf	LCD_write_message@buffer& (0+255),b
  2282  003FEC  0E7F               	movlw	high STR_22
  2283  003FEE  0100               	movlb	0	; () banked
  2284  003FF0  6F71               	movwf	(LCD_write_message@buffer+1)& (0+255),b
  2285  003FF2  EC33  F022         	call	_LCD_write_message	;wreg free
  2286                           
  2287                           ;batterua.c: 214: display_voltage(2);
  2288  003FF6  0E02               	movlw	2
  2289  003FF8  EC20  F01D         	call	_display_voltage
  2290                           
  2291                           ;batterua.c: 215: delay_s(2);
  2292  003FFC  0E02               	movlw	2
  2293  003FFE  EC1D  F022         	call	_delay_s
  2294                           
  2295                           ;batterua.c: 216: LATEbits.LATE0 = 1;
  2296  004002  808D               	bsf	3981,0,c	;volatile
  2297                           
  2298                           ;batterua.c: 217: delay_ms(10);
  2299  004004  0E00               	movlw	0
  2300  004006  0100               	movlb	0	; () banked
  2301  004008  6F67               	movwf	(delay_ms@value_ms+1)& (0+255),b
  2302  00400A  0E0A               	movlw	10
  2303  00400C  6F66               	movwf	delay_ms@value_ms& (0+255),b
  2304  00400E  EC63  F021         	call	_delay_ms	;wreg free
  2305                           
  2306                           ;batterua.c: 218: LATEbits.LATE0 = 0;
  2307  004012  908D               	bcf	3981,0,c	;volatile
  2308  004014                     l6347:
  2309  004014  0E33               	movlw	51
  2310  004016  0100               	movlb	0	; () banked
  2311  004018  6F60               	movwf	___flge@ff1& (0+255),b
  2312  00401A  0E33               	movlw	51
  2313  00401C  6F61               	movwf	(___flge@ff1+1)& (0+255),b
  2314  00401E  0E53               	movlw	83
  2315  004020  6F62               	movwf	(___flge@ff1+2)& (0+255),b
  2316  004022  0E41               	movlw	65
  2317  004024  6F63               	movwf	(___flge@ff1+3)& (0+255),b
  2318  004026  C0F1  F064         	movff	_voltage,___flge@ff2	;volatile
  2319  00402A  C0F2  F065         	movff	_voltage+1,___flge@ff2+1	;volatile
  2320  00402E  C0F3  F066         	movff	_voltage+2,___flge@ff2+2	;volatile
  2321  004032  C0F4  F067         	movff	_voltage+3,___flge@ff2+3	;volatile
  2322  004036  EC94  F017         	call	___flge	;wreg free
  2323  00403A  0100               	movlb	0	; () banked
  2324  00403C  A0D8               	btfss	status,0,c
  2325  00403E  D7D0               	goto	l6333
  2326                           
  2327                           ; BSR set to: 0
  2328                           ;batterua.c: 219: }
  2329                           ;batterua.c: 220: stati = 2;
  2330                           
  2331                           ; BSR set to: 0
  2332  004040  0E02               	movlw	2
  2333  004042  6E35               	movwf	_stati,c	;volatile
  2334  004044  0012               	return	
  2335  004046                     __end_of_stabilizzazione:
  2336                           	opt stack 0
  2337                           tblptru	equ	0xFF8
  2338                           tblptrh	equ	0xFF7
  2339                           tblptrl	equ	0xFF6
  2340                           tablat	equ	0xFF5
  2341                           intcon	equ	0xFF2
  2342                           postinc0	equ	0xFEE
  2343                           wreg	equ	0xFE8
  2344                           postdec1	equ	0xFE5
  2345                           fsr1l	equ	0xFE1
  2346                           status	equ	0xFD8
  2347                           
  2348 ;; *************** function _scarica *****************
  2349 ;; Defined at:
  2350 ;;		line 224 in file "batterua.c"
  2351 ;; Parameters:    Size  Location     Type
  2352 ;;		None
  2353 ;; Auto vars:     Size  Location     Type
  2354 ;;		None
  2355 ;; Return value:  Size  Location     Type
  2356 ;;                  1    wreg      void 
  2357 ;; Registers used:
  2358 ;;		wreg, fsr1l, fsr1h, fsr2l, fsr2h, status,2, status,0, tblptrl, tblptrh, tblptru, prodl, prodh, cstack
  2359 ;; Tracked objects:
  2360 ;;		On entry : 0/0
  2361 ;;		On exit  : 0/0
  2362 ;;		Unchanged: 0/0
  2363 ;; Data sizes:     COMRAM   BANK0   BANK1   BANK2   BANK3   BANK4   BANK5   BANK6   BANK7
  2364 ;;      Params:         0       0       0       0       0       0       0       0       0
  2365 ;;      Locals:         0       0       0       0       0       0       0       0       0
  2366 ;;      Temps:          0       0       8       0       0       0       0       0       0
  2367 ;;      Totals:         0       0       8       0       0       0       0       0       0
  2368 ;;Total ram usage:        8 bytes
  2369 ;; Hardware stack levels used:    1
  2370 ;; Hardware stack levels required when called:    9
  2371 ;; This function calls:
  2372 ;;		_LCD_home
  2373 ;;		_LCD_initialize
  2374 ;;		_LCD_write_integer
  2375 ;;		_LCD_write_message
  2376 ;;		___fladd
  2377 ;;		___flge
  2378 ;;		_delay_ms
  2379 ;;		_display_voltage
  2380 ;; This function is called by:
  2381 ;;		_main
  2382 ;; This function uses a non-reentrant model
  2383 ;;
  2384                           
  2385                           	psect	text2
  2386  00282A                     __ptext2:
  2387                           	opt stack 0
  2388  00282A                     _scarica:
  2389                           	opt stack 21
  2390                           
  2391                           ;batterua.c: 225: LCD_initialize(16);
  2392                           
  2393                           ;incstack = 0
  2394  00282A  0E10               	movlw	16
  2395  00282C  ECE3  F019         	call	_LCD_initialize
  2396                           
  2397                           ;batterua.c: 226: if (stati == 2) {
  2398  002830  0E02               	movlw	2
  2399  002832  1835               	xorwf	_stati,w,c	;volatile
  2400  002834  A4D8               	btfss	status,2,c
  2401  002836  0012               	return	
  2402                           
  2403                           ;batterua.c: 227: tempo = 0;
  2404  002838  0E00               	movlw	0
  2405  00283A  6E25               	movwf	_tempo,c	;volatile
  2406  00283C  0E00               	movlw	0
  2407  00283E  6E26               	movwf	_tempo+1,c	;volatile
  2408  002840  0E00               	movlw	0
  2409  002842  6E27               	movwf	_tempo+2,c	;volatile
  2410  002844  0E00               	movlw	0
  2411  002846  6E28               	movwf	_tempo+3,c	;volatile
  2412                           
  2413                           ;batterua.c: 228: secondi = 0;
  2414  002848  0E00               	movlw	0
  2415  00284A  6E34               	movwf	_secondi+1,c	;volatile
  2416  00284C  0E00               	movlw	0
  2417  00284E  6E33               	movwf	_secondi,c	;volatile
  2418                           
  2419                           ;batterua.c: 229: minuti = 0;
  2420  002850  0E00               	movlw	0
  2421  002852  6E30               	movwf	_minuti+1,c	;volatile
  2422  002854  0E00               	movlw	0
  2423  002856  6E2F               	movwf	_minuti,c	;volatile
  2424                           
  2425                           ;batterua.c: 230: ore = 0;
  2426  002858  0E00               	movlw	0
  2427  00285A  6E32               	movwf	_ore+1,c	;volatile
  2428  00285C  0E00               	movlw	0
  2429  00285E  6E31               	movwf	_ore,c	;volatile
  2430                           
  2431                           ;batterua.c: 231: T0CON = 0x85;
  2432  002860  0E85               	movlw	133
  2433  002862  6ED5               	movwf	4053,c	;volatile
  2434                           
  2435                           ;batterua.c: 232: TMR0H = 0x0B;
  2436  002864  0E0B               	movlw	11
  2437  002866  6ED7               	movwf	4055,c	;volatile
  2438                           
  2439                           ;batterua.c: 233: TMR0L = 0xDC;
  2440  002868  0EDC               	movlw	220
  2441  00286A  6ED6               	movwf	4054,c	;volatile
  2442                           
  2443                           ;batterua.c: 234: LATEbits.LATE0 = 1;
  2444  00286C  808D               	bsf	3981,0,c	;volatile
  2445                           
  2446                           ;batterua.c: 235: somme = 0;
  2447  00286E  0E00               	movlw	0
  2448  002870  6E21               	movwf	_somme,c	;volatile
  2449  002872  0E00               	movlw	0
  2450  002874  6E22               	movwf	_somme+1,c	;volatile
  2451  002876  0E00               	movlw	0
  2452  002878  6E23               	movwf	_somme+2,c	;volatile
  2453  00287A  0E00               	movlw	0
  2454  00287C  6E24               	movwf	_somme+3,c	;volatile
  2455                           
  2456                           ;batterua.c: 236: LCD_initialize(16);
  2457  00287E  0E10               	movlw	16
  2458  002880  ECE3  F019         	call	_LCD_initialize
  2459                           
  2460                           ;batterua.c: 237: while (voltage > 10) {
  2461  002884  D0A2               	goto	l6385
  2462  002886                     l6361:
  2463                           
  2464                           ;batterua.c: 238: LCD_home();
  2465  002886  ECD2  F021         	call	_LCD_home	;wreg free
  2466                           
  2467                           ;batterua.c: 239: LCD_write_message("tempo:");
  2468  00288A  0EEC               	movlw	low STR_23
  2469  00288C  0100               	movlb	0	; () banked
  2470  00288E  6F70               	movwf	LCD_write_message@buffer& (0+255),b
  2471  002890  0E7F               	movlw	high STR_23
  2472  002892  0100               	movlb	0	; () banked
  2473  002894  6F71               	movwf	(LCD_write_message@buffer+1)& (0+255),b
  2474  002896  EC33  F022         	call	_LCD_write_message	;wreg free
  2475                           
  2476                           ;batterua.c: 240: LCD_write_integer(ore, 2, 0x00);
  2477  00289A  C031  F07E         	movff	_ore,LCD_write_integer@value	;volatile
  2478  00289E  C032  F07F         	movff	_ore+1,LCD_write_integer@value+1	;volatile
  2479  0028A2  0E02               	movlw	2
  2480  0028A4  0100               	movlb	0	; () banked
  2481  0028A6  6F80               	movwf	LCD_write_integer@number_of_digits& (0+255),b
  2482  0028A8  0E00               	movlw	0
  2483  0028AA  0100               	movlb	0	; () banked
  2484  0028AC  6F81               	movwf	LCD_write_integer@zero_cleaning& (0+255),b
  2485  0028AE  ECE5  F015         	call	_LCD_write_integer	;wreg free
  2486                           
  2487                           ;batterua.c: 241: LCD_write_message(":");
  2488  0028B2  0EDA               	movlw	low (STR_12+9)
  2489  0028B4  0100               	movlb	0	; () banked
  2490  0028B6  6F70               	movwf	LCD_write_message@buffer& (0+255),b
  2491  0028B8  0E7F               	movlw	high (STR_12+9)
  2492  0028BA  0100               	movlb	0	; () banked
  2493  0028BC  6F71               	movwf	(LCD_write_message@buffer+1)& (0+255),b
  2494  0028BE  EC33  F022         	call	_LCD_write_message	;wreg free
  2495                           
  2496                           ;batterua.c: 242: LCD_write_integer(minuti, 2, 0x00);
  2497  0028C2  C02F  F07E         	movff	_minuti,LCD_write_integer@value	;volatile
  2498  0028C6  C030  F07F         	movff	_minuti+1,LCD_write_integer@value+1	;volatile
  2499  0028CA  0E02               	movlw	2
  2500  0028CC  0100               	movlb	0	; () banked
  2501  0028CE  6F80               	movwf	LCD_write_integer@number_of_digits& (0+255),b
  2502  0028D0  0E00               	movlw	0
  2503  0028D2  0100               	movlb	0	; () banked
  2504  0028D4  6F81               	movwf	LCD_write_integer@zero_cleaning& (0+255),b
  2505  0028D6  ECE5  F015         	call	_LCD_write_integer	;wreg free
  2506                           
  2507                           ;batterua.c: 243: LCD_write_message(":");
  2508  0028DA  0EDA               	movlw	low (STR_12+9)
  2509  0028DC  0100               	movlb	0	; () banked
  2510  0028DE  6F70               	movwf	LCD_write_message@buffer& (0+255),b
  2511  0028E0  0E7F               	movlw	high (STR_12+9)
  2512  0028E2  0100               	movlb	0	; () banked
  2513  0028E4  6F71               	movwf	(LCD_write_message@buffer+1)& (0+255),b
  2514  0028E6  EC33  F022         	call	_LCD_write_message	;wreg free
  2515                           
  2516                           ;batterua.c: 244: LCD_write_integer(secondi, 2, 0x00);
  2517  0028EA  C033  F07E         	movff	_secondi,LCD_write_integer@value	;volatile
  2518  0028EE  C034  F07F         	movff	_secondi+1,LCD_write_integer@value+1	;volatile
  2519  0028F2  0E02               	movlw	2
  2520  0028F4  0100               	movlb	0	; () banked
  2521  0028F6  6F80               	movwf	LCD_write_integer@number_of_digits& (0+255),b
  2522  0028F8  0E00               	movlw	0
  2523  0028FA  0100               	movlb	0	; () banked
  2524  0028FC  6F81               	movwf	LCD_write_integer@zero_cleaning& (0+255),b
  2525  0028FE  ECE5  F015         	call	_LCD_write_integer	;wreg free
  2526                           
  2527                           ;batterua.c: 245: display_voltage(2);
  2528  002902  0E02               	movlw	2
  2529  002904  EC20  F01D         	call	_display_voltage
  2530                           
  2531                           ;batterua.c: 246: delay_ms(100);
  2532  002908  0E00               	movlw	0
  2533  00290A  0100               	movlb	0	; () banked
  2534  00290C  6F67               	movwf	(delay_ms@value_ms+1)& (0+255),b
  2535  00290E  0E64               	movlw	100
  2536  002910  6F66               	movwf	delay_ms@value_ms& (0+255),b
  2537  002912  EC63  F021         	call	_delay_ms	;wreg free
  2538                           
  2539                           ;batterua.c: 247: if (tempo - tempo_old >= 59) {
  2540  002916  C029  F119         	movff	_tempo_old,??_scarica	;volatile
  2541  00291A  C02A  F11A         	movff	_tempo_old+1,??_scarica+1	;volatile
  2542  00291E  C02B  F11B         	movff	_tempo_old+2,??_scarica+2	;volatile
  2543  002922  C02C  F11C         	movff	_tempo_old+3,??_scarica+3	;volatile
  2544  002926  0101               	movlb	1	; () banked
  2545  002928  1F19               	comf	??_scarica& (0+255),f,b
  2546  00292A  1F1A               	comf	(??_scarica+1)& (0+255),f,b
  2547  00292C  1F1B               	comf	(??_scarica+2)& (0+255),f,b
  2548  00292E  1F1C               	comf	(??_scarica+3)& (0+255),f,b
  2549  002930  2B19               	incf	??_scarica& (0+255),f,b
  2550  002932  0E00               	movlw	0
  2551  002934  231A               	addwfc	(??_scarica+1)& (0+255),f,b
  2552  002936  231B               	addwfc	(??_scarica+2)& (0+255),f,b
  2553  002938  231C               	addwfc	(??_scarica+3)& (0+255),f,b
  2554  00293A  5025               	movf	_tempo,w,c	;volatile
  2555  00293C  0101               	movlb	1	; () banked
  2556  00293E  2519               	addwf	??_scarica& (0+255),w,b
  2557  002940  0101               	movlb	1	; () banked
  2558  002942  6F1D               	movwf	(??_scarica+4)& (0+255),b
  2559  002944  5026               	movf	_tempo+1,w,c	;volatile
  2560  002946  0101               	movlb	1	; () banked
  2561  002948  211A               	addwfc	(??_scarica+1)& (0+255),w,b
  2562  00294A  0101               	movlb	1	; () banked
  2563  00294C  6F1E               	movwf	(??_scarica+5)& (0+255),b
  2564  00294E  5027               	movf	_tempo+2,w,c	;volatile
  2565  002950  0101               	movlb	1	; () banked
  2566  002952  211B               	addwfc	(??_scarica+2)& (0+255),w,b
  2567  002954  0101               	movlb	1	; () banked
  2568  002956  6F1F               	movwf	(??_scarica+6)& (0+255),b
  2569  002958  5028               	movf	_tempo+3,w,c	;volatile
  2570  00295A  0101               	movlb	1	; () banked
  2571  00295C  211C               	addwfc	(??_scarica+3)& (0+255),w,b
  2572  00295E  0101               	movlb	1	; () banked
  2573  002960  6F20               	movwf	(??_scarica+7)& (0+255),b
  2574  002962  0101               	movlb	1	; () banked
  2575  002964  5120               	movf	(??_scarica+7)& (0+255),w,b
  2576  002966  0101               	movlb	1	; () banked
  2577  002968  111F               	iorwf	(??_scarica+6)& (0+255),w,b
  2578  00296A  0101               	movlb	1	; () banked
  2579  00296C  111E               	iorwf	(??_scarica+5)& (0+255),w,b
  2580  00296E  E105               	bnz	u7100
  2581  002970  0E3B               	movlw	59
  2582  002972  0101               	movlb	1	; () banked
  2583  002974  5D1D               	subwf	(??_scarica+4)& (0+255),w,b
  2584  002976  A0D8               	btfss	status,0,c
  2585  002978  D028               	goto	l6385
  2586  00297A                     u7100:
  2587                           
  2588                           ; BSR set to: 1
  2589                           ;batterua.c: 248: tempo_old = tempo;
  2590  00297A  C025  F029         	movff	_tempo,_tempo_old	;volatile
  2591  00297E  C026  F02A         	movff	_tempo+1,_tempo_old+1	;volatile
  2592  002982  C027  F02B         	movff	_tempo+2,_tempo_old+2	;volatile
  2593  002986  C028  F02C         	movff	_tempo+3,_tempo_old+3	;volatile
  2594                           
  2595                           ; BSR set to: 1
  2596                           ;batterua.c: 249: somme++;
  2597  00298A  0E01               	movlw	1
  2598  00298C  2621               	addwf	_somme,f,c	;volatile
  2599  00298E  0E00               	movlw	0
  2600  002990  2222               	addwfc	_somme+1,f,c	;volatile
  2601  002992  2223               	addwfc	_somme+2,f,c	;volatile
  2602  002994  2224               	addwfc	_somme+3,f,c	;volatile
  2603                           
  2604                           ; BSR set to: 1
  2605                           ;batterua.c: 250: sommatoriaCorrente = current + sommatoriaCorrente;
  2606  002996  C0E9  F094         	movff	_current,___fladd@b	;volatile
  2607  00299A  C0EA  F095         	movff	_current+1,___fladd@b+1	;volatile
  2608  00299E  C0EB  F096         	movff	_current+2,___fladd@b+2	;volatile
  2609  0029A2  C0EC  F097         	movff	_current+3,___fladd@b+3	;volatile
  2610  0029A6  C0ED  F098         	movff	_sommatoriaCorrente,___fladd@a	;volatile
  2611  0029AA  C0EE  F099         	movff	_sommatoriaCorrente+1,___fladd@a+1	;volatile
  2612  0029AE  C0EF  F09A         	movff	_sommatoriaCorrente+2,___fladd@a+2	;volatile
  2613  0029B2  C0F0  F09B         	movff	_sommatoriaCorrente+3,___fladd@a+3	;volatile
  2614  0029B6  EC25  F00C         	call	___fladd	;wreg free
  2615  0029BA  C094  F0ED         	movff	?___fladd,_sommatoriaCorrente	;volatile
  2616  0029BE  C095  F0EE         	movff	?___fladd+1,_sommatoriaCorrente+1	;volatile
  2617  0029C2  C096  F0EF         	movff	?___fladd+2,_sommatoriaCorrente+2	;volatile
  2618  0029C6  C097  F0F0         	movff	?___fladd+3,_sommatoriaCorrente+3	;volatile
  2619  0029CA                     l6385:
  2620  0029CA  0E00               	movlw	0
  2621  0029CC  0100               	movlb	0	; () banked
  2622  0029CE  6F60               	movwf	___flge@ff1& (0+255),b
  2623  0029D0  0E00               	movlw	0
  2624  0029D2  6F61               	movwf	(___flge@ff1+1)& (0+255),b
  2625  0029D4  0E20               	movlw	32
  2626  0029D6  6F62               	movwf	(___flge@ff1+2)& (0+255),b
  2627  0029D8  0E41               	movlw	65
  2628  0029DA  6F63               	movwf	(___flge@ff1+3)& (0+255),b
  2629  0029DC  C0F1  F064         	movff	_voltage,___flge@ff2	;volatile
  2630  0029E0  C0F2  F065         	movff	_voltage+1,___flge@ff2+1	;volatile
  2631  0029E4  C0F3  F066         	movff	_voltage+2,___flge@ff2+2	;volatile
  2632  0029E8  C0F4  F067         	movff	_voltage+3,___flge@ff2+3	;volatile
  2633  0029EC  EC94  F017         	call	___flge	;wreg free
  2634  0029F0  0100               	movlb	0	; () banked
  2635  0029F2  A0D8               	btfss	status,0,c
  2636  0029F4  D748               	goto	l6361
  2637                           
  2638                           ; BSR set to: 0
  2639                           ;batterua.c: 251: }
  2640                           ;batterua.c: 252: }
  2641                           ;batterua.c: 253: stati = 4;
  2642                           
  2643                           ; BSR set to: 0
  2644  0029F6  0E04               	movlw	4
  2645  0029F8  6E35               	movwf	_stati,c	;volatile
  2646  0029FA  0012               	return	
  2647  0029FC                     __end_of_scarica:
  2648                           	opt stack 0
  2649                           tblptru	equ	0xFF8
  2650                           tblptrh	equ	0xFF7
  2651                           tblptrl	equ	0xFF6
  2652                           tablat	equ	0xFF5
  2653                           intcon	equ	0xFF2
  2654                           postinc0	equ	0xFEE
  2655                           wreg	equ	0xFE8
  2656                           postdec1	equ	0xFE5
  2657                           fsr1l	equ	0xFE1
  2658                           status	equ	0xFD8
  2659                           
  2660 ;; *************** function _LCD_write_integer *****************
  2661 ;; Defined at:
  2662 ;;		line 210 in file "C:/Users/simon/Desktop/LaurTec_PIC_libraries_v_3.3.1 - Copia/src\LCD_44780.c"
  2663 ;; Parameters:    Size  Location     Type
  2664 ;;  value           2   30[BANK0 ] int 
  2665 ;;  number_of_di    1   32[BANK0 ] unsigned char 
  2666 ;;  zero_cleanin    1   33[BANK0 ] unsigned char 
  2667 ;; Auto vars:     Size  Location     Type
  2668 ;;  convertedInt    6   39[BANK0 ] unsigned char [6]
  2669 ;;  index           1   45[BANK0 ] unsigned char 
  2670 ;; Return value:  Size  Location     Type
  2671 ;;                  1    wreg      void 
  2672 ;; Registers used:
  2673 ;;		wreg, fsr1l, fsr1h, fsr2l, fsr2h, status,2, status,0, prodl, prodh, cstack
  2674 ;; Tracked objects:
  2675 ;;		On entry : 0/0
  2676 ;;		On exit  : 0/0
  2677 ;;		Unchanged: 0/0
  2678 ;; Data sizes:     COMRAM   BANK0   BANK1   BANK2   BANK3   BANK4   BANK5   BANK6   BANK7
  2679 ;;      Params:         0       4       0       0       0       0       0       0       0
  2680 ;;      Locals:         0       7       0       0       0       0       0       0       0
  2681 ;;      Temps:          0       5       0       0       0       0       0       0       0
  2682 ;;      Totals:         0      16       0       0       0       0       0       0       0
  2683 ;;Total ram usage:       16 bytes
  2684 ;; Hardware stack levels used:    1
  2685 ;; Hardware stack levels required when called:    8
  2686 ;; This function calls:
  2687 ;;		_LCD_write_string
  2688 ;;		_itoa
  2689 ;; This function is called by:
  2690 ;;		_main
  2691 ;;		_scarica
  2692 ;; This function uses a non-reentrant model
  2693 ;;
  2694                           
  2695                           	psect	text3
  2696  002BCA                     __ptext3:
  2697                           	opt stack 0
  2698  002BCA                     _LCD_write_integer:
  2699                           	opt stack 21
  2700                           
  2701                           ;src\LCD_44780.c: 213: unsigned char convertedInt [6] = {0,0,0,0,0,0};
  2702                           
  2703                           ;incstack = 0
  2704  002BCA  EE21  F035         	lfsr	2,LCD_write_integer@F4453
  2705  002BCE  EE10  F087         	lfsr	1,LCD_write_integer@convertedInt
  2706  002BD2  0E05               	movlw	5
  2707  002BD4                     u6951:
  2708  002BD4  CFDB FFE3          	movff	plusw2,plusw1
  2709  002BD8  06E8               	decf	wreg,f,c
  2710  002BDA  E2FC               	bc	u6951
  2711                           
  2712                           ;src\LCD_44780.c: 216: unsigned char index;
  2713                           ;src\LCD_44780.c: 224: itoa ((unsigned char*) convertedInt, value,10);
  2714  002BDC  0E87               	movlw	low LCD_write_integer@convertedInt
  2715  002BDE  0100               	movlb	0	; () banked
  2716  002BE0  6F76               	movwf	itoa@buf& (0+255),b
  2717  002BE2  0E00               	movlw	high LCD_write_integer@convertedInt
  2718  002BE4  0100               	movlb	0	; () banked
  2719  002BE6  6F77               	movwf	(itoa@buf+1)& (0+255),b
  2720  002BE8  C07E  F078         	movff	LCD_write_integer@value,itoa@val
  2721  002BEC  C07F  F079         	movff	LCD_write_integer@value+1,itoa@val+1
  2722  002BF0  0E00               	movlw	0
  2723  002BF2  0100               	movlb	0	; () banked
  2724  002BF4  6F7B               	movwf	(itoa@base+1)& (0+255),b
  2725  002BF6  0E0A               	movlw	10
  2726  002BF8  6F7A               	movwf	itoa@base& (0+255),b
  2727  002BFA  EC1B  F021         	call	_itoa	;wreg free
  2728                           
  2729                           ;src\LCD_44780.c: 228: if (number_of_digits >0 ) {
  2730  002BFE  0100               	movlb	0	; () banked
  2731  002C00  5180               	movf	LCD_write_integer@number_of_digits& (0+255),w,b
  2732  002C02  0100               	movlb	0	; () banked
  2733  002C04  B4D8               	btfsc	status,2,c
  2734  002C06  D0B8               	goto	l6151
  2735                           
  2736                           ; BSR set to: 0
  2737                           ;src\LCD_44780.c: 230: convertedInt[number_of_digits] = '\0';
  2738  002C08  0100               	movlb	0	; () banked
  2739  002C0A  5180               	movf	LCD_write_integer@number_of_digits& (0+255),w,b
  2740  002C0C  0D01               	mullw	1
  2741  002C0E  0E87               	movlw	low LCD_write_integer@convertedInt
  2742  002C10  24F3               	addwf	prodl,w,c
  2743  002C12  6ED9               	movwf	fsr2l,c
  2744  002C14  0E00               	movlw	high LCD_write_integer@convertedInt
  2745  002C16  20F4               	addwfc	prodh,w,c
  2746  002C18  6EDA               	movwf	fsr2h,c
  2747  002C1A  0E00               	movlw	0
  2748  002C1C  6EDF               	movwf	indf2,c
  2749                           
  2750                           ;src\LCD_44780.c: 234: while (!(convertedInt[number_of_digits-1] <= '9' && convertedInt[
      +                          number_of_digits-1] >= '0')){
  2751  002C1E  D070               	goto	l6147
  2752  002C20                     l6129:
  2753                           
  2754                           ; BSR set to: 0
  2755                           ;src\LCD_44780.c: 236: for (index = number_of_digits-1; index > 0; index--){
  2756  002C20  0100               	movlb	0	; () banked
  2757  002C22  0580               	decf	LCD_write_integer@number_of_digits& (0+255),w,b
  2758  002C24  0100               	movlb	0	; () banked
  2759  002C26  6F8D               	movwf	LCD_write_integer@index& (0+255),b
  2760  002C28                     l6131:
  2761                           
  2762                           ; BSR set to: 0
  2763  002C28  0100               	movlb	0	; () banked
  2764  002C2A  518D               	movf	LCD_write_integer@index& (0+255),w,b
  2765  002C2C  0100               	movlb	0	; () banked
  2766  002C2E  B4D8               	btfsc	status,2,c
  2767  002C30  D067               	goto	l6147
  2768                           
  2769                           ; BSR set to: 0
  2770                           ;src\LCD_44780.c: 237: convertedInt[index] = convertedInt[index-1];
  2771                           
  2772                           ; BSR set to: 0
  2773                           
  2774                           ; BSR set to: 0
  2775  002C32  0EFF               	movlw	255
  2776  002C34  0100               	movlb	0	; () banked
  2777  002C36  6F82               	movwf	??_LCD_write_integer& (0+255),b
  2778  002C38  0EFF               	movlw	255
  2779  002C3A  0100               	movlb	0	; () banked
  2780  002C3C  6F83               	movwf	(??_LCD_write_integer+1)& (0+255),b
  2781  002C3E  0100               	movlb	0	; () banked
  2782  002C40  518D               	movf	LCD_write_integer@index& (0+255),w,b
  2783  002C42  0100               	movlb	0	; () banked
  2784  002C44  6F84               	movwf	(??_LCD_write_integer+2)& (0+255),b
  2785  002C46  6B85               	clrf	(??_LCD_write_integer+3)& (0+255),b
  2786  002C48  0100               	movlb	0	; () banked
  2787  002C4A  5182               	movf	??_LCD_write_integer& (0+255),w,b
  2788  002C4C  0100               	movlb	0	; () banked
  2789  002C4E  2784               	addwf	(??_LCD_write_integer+2)& (0+255),f,b
  2790  002C50  0100               	movlb	0	; () banked
  2791  002C52  5183               	movf	(??_LCD_write_integer+1)& (0+255),w,b
  2792  002C54  0100               	movlb	0	; () banked
  2793  002C56  2385               	addwfc	(??_LCD_write_integer+3)& (0+255),f,b
  2794  002C58  0E87               	movlw	low LCD_write_integer@convertedInt
  2795  002C5A  0100               	movlb	0	; () banked
  2796  002C5C  2584               	addwf	(??_LCD_write_integer+2)& (0+255),w,b
  2797  002C5E  6ED9               	movwf	fsr2l,c
  2798  002C60  0E00               	movlw	high LCD_write_integer@convertedInt
  2799  002C62  0100               	movlb	0	; () banked
  2800  002C64  2185               	addwfc	(??_LCD_write_integer+3)& (0+255),w,b
  2801  002C66  6EDA               	movwf	fsr2h,c
  2802  002C68  0100               	movlb	0	; () banked
  2803  002C6A  518D               	movf	LCD_write_integer@index& (0+255),w,b
  2804  002C6C  0D01               	mullw	1
  2805  002C6E  0E87               	movlw	low LCD_write_integer@convertedInt
  2806  002C70  24F3               	addwf	prodl,w,c
  2807  002C72  6EE1               	movwf	fsr1l,c
  2808  002C74  0E00               	movlw	high LCD_write_integer@convertedInt
  2809  002C76  20F4               	addwfc	prodh,w,c
  2810  002C78  6EE2               	movwf	fsr1h,c
  2811  002C7A  CFDF FFE7          	movff	indf2,indf1
  2812                           
  2813                           ; BSR set to: 0
  2814                           ;src\LCD_44780.c: 239: if (zero_cleaning == 0x01) {
  2815  002C7E  0100               	movlb	0	; () banked
  2816  002C80  0581               	decf	LCD_write_integer@zero_cleaning& (0+255),w,b
  2817  002C82  A4D8               	btfss	status,2,c
  2818  002C84  D01D               	goto	l6141
  2819                           
  2820                           ; BSR set to: 0
  2821                           ;src\LCD_44780.c: 240: convertedInt[index-1] = ' ';
  2822  002C86  0EFF               	movlw	255
  2823  002C88  0100               	movlb	0	; () banked
  2824  002C8A  6F82               	movwf	??_LCD_write_integer& (0+255),b
  2825  002C8C  0EFF               	movlw	255
  2826  002C8E  0100               	movlb	0	; () banked
  2827  002C90  6F83               	movwf	(??_LCD_write_integer+1)& (0+255),b
  2828  002C92  0100               	movlb	0	; () banked
  2829  002C94  518D               	movf	LCD_write_integer@index& (0+255),w,b
  2830  002C96  0100               	movlb	0	; () banked
  2831  002C98  6F84               	movwf	(??_LCD_write_integer+2)& (0+255),b
  2832  002C9A  6B85               	clrf	(??_LCD_write_integer+3)& (0+255),b
  2833  002C9C  0100               	movlb	0	; () banked
  2834  002C9E  5182               	movf	??_LCD_write_integer& (0+255),w,b
  2835  002CA0  0100               	movlb	0	; () banked
  2836  002CA2  2784               	addwf	(??_LCD_write_integer+2)& (0+255),f,b
  2837  002CA4  0100               	movlb	0	; () banked
  2838  002CA6  5183               	movf	(??_LCD_write_integer+1)& (0+255),w,b
  2839  002CA8  0100               	movlb	0	; () banked
  2840  002CAA  2385               	addwfc	(??_LCD_write_integer+3)& (0+255),f,b
  2841  002CAC  0E87               	movlw	low LCD_write_integer@convertedInt
  2842  002CAE  0100               	movlb	0	; () banked
  2843  002CB0  2584               	addwf	(??_LCD_write_integer+2)& (0+255),w,b
  2844  002CB2  6ED9               	movwf	fsr2l,c
  2845  002CB4  0E00               	movlw	high LCD_write_integer@convertedInt
  2846  002CB6  0100               	movlb	0	; () banked
  2847  002CB8  2185               	addwfc	(??_LCD_write_integer+3)& (0+255),w,b
  2848  002CBA  6EDA               	movwf	fsr2h,c
  2849  002CBC  0E20               	movlw	32
  2850  002CBE  D01C               	goto	L1
  2851  002CC0                     l6141:
  2852                           
  2853                           ; BSR set to: 0
  2854                           ;src\LCD_44780.c: 242: convertedInt[index-1] = '0';
  2855  002CC0  0EFF               	movlw	255
  2856  002CC2  0100               	movlb	0	; () banked
  2857  002CC4  6F82               	movwf	??_LCD_write_integer& (0+255),b
  2858  002CC6  0EFF               	movlw	255
  2859  002CC8  0100               	movlb	0	; () banked
  2860  002CCA  6F83               	movwf	(??_LCD_write_integer+1)& (0+255),b
  2861  002CCC  0100               	movlb	0	; () banked
  2862  002CCE  518D               	movf	LCD_write_integer@index& (0+255),w,b
  2863  002CD0  0100               	movlb	0	; () banked
  2864  002CD2  6F84               	movwf	(??_LCD_write_integer+2)& (0+255),b
  2865  002CD4  6B85               	clrf	(??_LCD_write_integer+3)& (0+255),b
  2866  002CD6  0100               	movlb	0	; () banked
  2867  002CD8  5182               	movf	??_LCD_write_integer& (0+255),w,b
  2868  002CDA  0100               	movlb	0	; () banked
  2869  002CDC  2784               	addwf	(??_LCD_write_integer+2)& (0+255),f,b
  2870  002CDE  0100               	movlb	0	; () banked
  2871  002CE0  5183               	movf	(??_LCD_write_integer+1)& (0+255),w,b
  2872  002CE2  0100               	movlb	0	; () banked
  2873  002CE4  2385               	addwfc	(??_LCD_write_integer+3)& (0+255),f,b
  2874  002CE6  0E87               	movlw	low LCD_write_integer@convertedInt
  2875  002CE8  0100               	movlb	0	; () banked
  2876  002CEA  2584               	addwf	(??_LCD_write_integer+2)& (0+255),w,b
  2877  002CEC  6ED9               	movwf	fsr2l,c
  2878  002CEE  0E00               	movlw	high LCD_write_integer@convertedInt
  2879  002CF0  0100               	movlb	0	; () banked
  2880  002CF2  2185               	addwfc	(??_LCD_write_integer+3)& (0+255),w,b
  2881  002CF4  6EDA               	movwf	fsr2h,c
  2882  002CF6  0E30               	movlw	48
  2883  002CF8                     L1:
  2884  002CF8  6EDF               	movwf	indf2,c
  2885                           
  2886                           ; BSR set to: 0
  2887                           
  2888                           ; BSR set to: 0
  2889  002CFA  0100               	movlb	0	; () banked
  2890  002CFC  078D               	decf	LCD_write_integer@index& (0+255),f,b
  2891  002CFE  D794               	goto	l6131
  2892  002D00                     l6147:
  2893                           
  2894                           ; BSR set to: 0
  2895  002D00  0EFF               	movlw	255
  2896  002D02  0100               	movlb	0	; () banked
  2897  002D04  6F82               	movwf	??_LCD_write_integer& (0+255),b
  2898  002D06  0EFF               	movlw	255
  2899  002D08  0100               	movlb	0	; () banked
  2900  002D0A  6F83               	movwf	(??_LCD_write_integer+1)& (0+255),b
  2901  002D0C  0100               	movlb	0	; () banked
  2902  002D0E  5180               	movf	LCD_write_integer@number_of_digits& (0+255),w,b
  2903  002D10  0100               	movlb	0	; () banked
  2904  002D12  6F84               	movwf	(??_LCD_write_integer+2)& (0+255),b
  2905  002D14  6B85               	clrf	(??_LCD_write_integer+3)& (0+255),b
  2906  002D16  0100               	movlb	0	; () banked
  2907  002D18  5182               	movf	??_LCD_write_integer& (0+255),w,b
  2908  002D1A  0100               	movlb	0	; () banked
  2909  002D1C  2784               	addwf	(??_LCD_write_integer+2)& (0+255),f,b
  2910  002D1E  0100               	movlb	0	; () banked
  2911  002D20  5183               	movf	(??_LCD_write_integer+1)& (0+255),w,b
  2912  002D22  0100               	movlb	0	; () banked
  2913  002D24  2385               	addwfc	(??_LCD_write_integer+3)& (0+255),f,b
  2914  002D26  0E87               	movlw	low LCD_write_integer@convertedInt
  2915  002D28  0100               	movlb	0	; () banked
  2916  002D2A  2584               	addwf	(??_LCD_write_integer+2)& (0+255),w,b
  2917  002D2C  6ED9               	movwf	fsr2l,c
  2918  002D2E  0E00               	movlw	high LCD_write_integer@convertedInt
  2919  002D30  0100               	movlb	0	; () banked
  2920  002D32  2185               	addwfc	(??_LCD_write_integer+3)& (0+255),w,b
  2921  002D34  6EDA               	movwf	fsr2h,c
  2922  002D36  0E3A               	movlw	58
  2923  002D38  60DF               	cpfslt	indf2,c
  2924  002D3A  D772               	goto	l6129
  2925                           
  2926                           ; BSR set to: 0
  2927  002D3C  0EFF               	movlw	255
  2928  002D3E  0100               	movlb	0	; () banked
  2929  002D40  6F82               	movwf	??_LCD_write_integer& (0+255),b
  2930  002D42  0EFF               	movlw	255
  2931  002D44  0100               	movlb	0	; () banked
  2932  002D46  6F83               	movwf	(??_LCD_write_integer+1)& (0+255),b
  2933  002D48  0100               	movlb	0	; () banked
  2934  002D4A  5180               	movf	LCD_write_integer@number_of_digits& (0+255),w,b
  2935  002D4C  0100               	movlb	0	; () banked
  2936  002D4E  6F84               	movwf	(??_LCD_write_integer+2)& (0+255),b
  2937  002D50  6B85               	clrf	(??_LCD_write_integer+3)& (0+255),b
  2938  002D52  0100               	movlb	0	; () banked
  2939  002D54  5182               	movf	??_LCD_write_integer& (0+255),w,b
  2940  002D56  0100               	movlb	0	; () banked
  2941  002D58  2784               	addwf	(??_LCD_write_integer+2)& (0+255),f,b
  2942  002D5A  0100               	movlb	0	; () banked
  2943  002D5C  5183               	movf	(??_LCD_write_integer+1)& (0+255),w,b
  2944  002D5E  0100               	movlb	0	; () banked
  2945  002D60  2385               	addwfc	(??_LCD_write_integer+3)& (0+255),f,b
  2946  002D62  0E87               	movlw	low LCD_write_integer@convertedInt
  2947  002D64  0100               	movlb	0	; () banked
  2948  002D66  2584               	addwf	(??_LCD_write_integer+2)& (0+255),w,b
  2949  002D68  6ED9               	movwf	fsr2l,c
  2950  002D6A  0E00               	movlw	high LCD_write_integer@convertedInt
  2951  002D6C  0100               	movlb	0	; () banked
  2952  002D6E  2185               	addwfc	(??_LCD_write_integer+3)& (0+255),w,b
  2953  002D70  6EDA               	movwf	fsr2h,c
  2954  002D72  0E2F               	movlw	47
  2955  002D74  64DF               	cpfsgt	indf2,c
  2956  002D76  D754               	goto	l6129
  2957  002D78                     l6151:
  2958                           
  2959                           ; BSR set to: 0
  2960                           ;src\LCD_44780.c: 243: }
  2961                           ;src\LCD_44780.c: 245: }
  2962                           ;src\LCD_44780.c: 246: }
  2963                           ;src\LCD_44780.c: 247: }
  2964                           ;src\LCD_44780.c: 249: LCD_write_string (convertedInt);
  2965  002D78  0E87               	movlw	low LCD_write_integer@convertedInt
  2966  002D7A  0100               	movlb	0	; () banked
  2967  002D7C  6F70               	movwf	LCD_write_string@buffer& (0+255),b
  2968  002D7E  0E00               	movlw	high LCD_write_integer@convertedInt
  2969  002D80  0100               	movlb	0	; () banked
  2970  002D82  6F71               	movwf	(LCD_write_string@buffer+1)& (0+255),b
  2971  002D84  EC5D  F022         	call	_LCD_write_string	;wreg free
  2972  002D88  0012               	return		;funcret
  2973  002D8A                     __end_of_LCD_write_integer:
  2974                           	opt stack 0
  2975                           tblptru	equ	0xFF8
  2976                           tblptrh	equ	0xFF7
  2977                           tblptrl	equ	0xFF6
  2978                           tablat	equ	0xFF5
  2979                           prodh	equ	0xFF4
  2980                           prodl	equ	0xFF3
  2981                           intcon	equ	0xFF2
  2982                           postinc0	equ	0xFEE
  2983                           wreg	equ	0xFE8
  2984                           indf1	equ	0xFE7
  2985                           postdec1	equ	0xFE5
  2986                           plusw1	equ	0xFE3
  2987                           fsr1h	equ	0xFE2
  2988                           fsr1l	equ	0xFE1
  2989                           indf2	equ	0xFDF
  2990                           plusw2	equ	0xFDB
  2991                           fsr2h	equ	0xFDA
  2992                           fsr2l	equ	0xFD9
  2993                           status	equ	0xFD8
  2994                           
  2995 ;; *************** function _itoa *****************
  2996 ;; Defined at:
  2997 ;;		line 4 in file "C:\Program Files (x86)\Microchip\xc8\v1.37\sources\common\itoa.c"
  2998 ;; Parameters:    Size  Location     Type
  2999 ;;  buf             2   22[BANK0 ] PTR unsigned char 
  3000 ;;		 -> LCD_write_integer@convertedInt(6), 
  3001 ;;  val             2   24[BANK0 ] int 
  3002 ;;  base            2   26[BANK0 ] int 
  3003 ;; Auto vars:     Size  Location     Type
  3004 ;;  cp              2   28[BANK0 ] PTR unsigned char 
  3005 ;;		 -> LCD_write_integer@convertedInt(6), 
  3006 ;; Return value:  Size  Location     Type
  3007 ;;                  2   22[BANK0 ] PTR unsigned char 
  3008 ;; Registers used:
  3009 ;;		wreg, fsr2l, fsr2h, status,2, status,0, cstack
  3010 ;; Tracked objects:
  3011 ;;		On entry : 0/0
  3012 ;;		On exit  : 0/0
  3013 ;;		Unchanged: 0/0
  3014 ;; Data sizes:     COMRAM   BANK0   BANK1   BANK2   BANK3   BANK4   BANK5   BANK6   BANK7
  3015 ;;      Params:         0       6       0       0       0       0       0       0       0
  3016 ;;      Locals:         0       2       0       0       0       0       0       0       0
  3017 ;;      Temps:          0       0       0       0       0       0       0       0       0
  3018 ;;      Totals:         0       8       0       0       0       0       0       0       0
  3019 ;;Total ram usage:        8 bytes
  3020 ;; Hardware stack levels used:    1
  3021 ;; Hardware stack levels required when called:    4
  3022 ;; This function calls:
  3023 ;;		_utoa
  3024 ;; This function is called by:
  3025 ;;		_LCD_write_integer
  3026 ;; This function uses a non-reentrant model
  3027 ;;
  3028                           
  3029                           	psect	text4
  3030  004236                     __ptext4:
  3031                           	opt stack 0
  3032  004236                     _itoa:
  3033                           	opt stack 24
  3034                           
  3035                           ;incstack = 0
  3036  004236  C076  F07C         	movff	itoa@buf,itoa@cp
  3037  00423A  C077  F07D         	movff	itoa@buf+1,itoa@cp+1
  3038  00423E  0100               	movlb	0	; () banked
  3039  004240  AF79               	btfss	(itoa@val+1)& (0+255),7,b
  3040  004242  D00E               	goto	l5833
  3041                           
  3042                           ; BSR set to: 0
  3043  004244  C076  FFD9         	movff	itoa@buf,fsr2l
  3044  004248  C077  FFDA         	movff	itoa@buf+1,fsr2h
  3045  00424C  0E2D               	movlw	45
  3046  00424E  6EDF               	movwf	indf2,c
  3047                           
  3048                           ; BSR set to: 0
  3049  004250  0100               	movlb	0	; () banked
  3050  004252  4B76               	infsnz	itoa@buf& (0+255),f,b
  3051  004254  2B77               	incf	(itoa@buf+1)& (0+255),f,b
  3052                           
  3053                           ; BSR set to: 0
  3054  004256  0100               	movlb	0	; () banked
  3055  004258  6D78               	negf	itoa@val& (0+255),b
  3056  00425A  1F79               	comf	(itoa@val+1)& (0+255),f,b
  3057  00425C  B0D8               	btfsc	status,0,c
  3058  00425E  2B79               	incf	(itoa@val+1)& (0+255),f,b
  3059  004260                     l5833:
  3060                           
  3061                           ; BSR set to: 0
  3062  004260  C076  F06D         	movff	itoa@buf,utoa@buf
  3063  004264  C077  F06E         	movff	itoa@buf+1,utoa@buf+1
  3064  004268  C078  F06F         	movff	itoa@val,utoa@val
  3065  00426C  C079  F070         	movff	itoa@val+1,utoa@val+1
  3066  004270  C07A  F071         	movff	itoa@base,utoa@base
  3067  004274  C07B  F072         	movff	itoa@base+1,utoa@base+1
  3068  004278  EC89  F01D         	call	_utoa	;wreg free
  3069  00427C  0012               	return	
  3070  00427E                     __end_of_itoa:
  3071                           	opt stack 0
  3072                           tblptru	equ	0xFF8
  3073                           tblptrh	equ	0xFF7
  3074                           tblptrl	equ	0xFF6
  3075                           tablat	equ	0xFF5
  3076                           prodh	equ	0xFF4
  3077                           prodl	equ	0xFF3
  3078                           intcon	equ	0xFF2
  3079                           postinc0	equ	0xFEE
  3080                           wreg	equ	0xFE8
  3081                           indf1	equ	0xFE7
  3082                           postdec1	equ	0xFE5
  3083                           plusw1	equ	0xFE3
  3084                           fsr1h	equ	0xFE2
  3085                           fsr1l	equ	0xFE1
  3086                           indf2	equ	0xFDF
  3087                           plusw2	equ	0xFDB
  3088                           fsr2h	equ	0xFDA
  3089                           fsr2l	equ	0xFD9
  3090                           status	equ	0xFD8
  3091                           
  3092 ;; *************** function _utoa *****************
  3093 ;; Defined at:
  3094 ;;		line 17 in file "C:\Program Files (x86)\Microchip\xc8\v1.37\sources\common\itoa.c"
  3095 ;; Parameters:    Size  Location     Type
  3096 ;;  buf             2   13[BANK0 ] PTR unsigned char 
  3097 ;;		 -> LCD_write_integer@convertedInt(6), 
  3098 ;;  val             2   15[BANK0 ] unsigned int 
  3099 ;;  base            2   17[BANK0 ] int 
  3100 ;; Auto vars:     Size  Location     Type
  3101 ;;  v               2   19[BANK0 ] unsigned int 
  3102 ;;  c               1   21[BANK0 ] unsigned char 
  3103 ;; Return value:  Size  Location     Type
  3104 ;;                  2   13[BANK0 ] PTR unsigned char 
  3105 ;; Registers used:
  3106 ;;		wreg, fsr2l, fsr2h, status,2, status,0, cstack
  3107 ;; Tracked objects:
  3108 ;;		On entry : 0/0
  3109 ;;		On exit  : 0/0
  3110 ;;		Unchanged: 0/0
  3111 ;; Data sizes:     COMRAM   BANK0   BANK1   BANK2   BANK3   BANK4   BANK5   BANK6   BANK7
  3112 ;;      Params:         0       6       0       0       0       0       0       0       0
  3113 ;;      Locals:         0       3       0       0       0       0       0       0       0
  3114 ;;      Temps:          0       0       0       0       0       0       0       0       0
  3115 ;;      Totals:         0       9       0       0       0       0       0       0       0
  3116 ;;Total ram usage:        9 bytes
  3117 ;; Hardware stack levels used:    1
  3118 ;; Hardware stack levels required when called:    3
  3119 ;; This function calls:
  3120 ;;		___lwdiv
  3121 ;;		___lwmod
  3122 ;; This function is called by:
  3123 ;;		_itoa
  3124 ;; This function uses a non-reentrant model
  3125 ;;
  3126                           
  3127                           	psect	text5
  3128  003B12                     __ptext5:
  3129                           	opt stack 0
  3130  003B12                     _utoa:
  3131                           	opt stack 24
  3132                           
  3133                           ;incstack = 0
  3134  003B12  C06F  F073         	movff	utoa@val,utoa@v
  3135  003B16  C070  F074         	movff	utoa@val+1,utoa@v+1
  3136  003B1A                     l5739:
  3137  003B1A  C073  F066         	movff	utoa@v,___lwdiv@dividend
  3138  003B1E  C074  F067         	movff	utoa@v+1,___lwdiv@dividend+1
  3139  003B22  C071  F068         	movff	utoa@base,___lwdiv@divisor
  3140  003B26  C072  F069         	movff	utoa@base+1,___lwdiv@divisor+1
  3141  003B2A  EC23  F020         	call	___lwdiv	;wreg free
  3142  003B2E  C066  F073         	movff	?___lwdiv,utoa@v
  3143  003B32  C067  F074         	movff	?___lwdiv+1,utoa@v+1
  3144  003B36  0100               	movlb	0	; () banked
  3145  003B38  4B6D               	infsnz	utoa@buf& (0+255),f,b
  3146  003B3A  2B6E               	incf	(utoa@buf+1)& (0+255),f,b
  3147                           
  3148                           ; BSR set to: 0
  3149  003B3C  0100               	movlb	0	; () banked
  3150  003B3E  5173               	movf	utoa@v& (0+255),w,b
  3151  003B40  0100               	movlb	0	; () banked
  3152  003B42  1174               	iorwf	(utoa@v+1)& (0+255),w,b
  3153  003B44  A4D8               	btfss	status,2,c
  3154  003B46  D7E9               	goto	l5739
  3155                           
  3156                           ; BSR set to: 0
  3157                           
  3158                           ; BSR set to: 0
  3159  003B48  C06D  FFD9         	movff	utoa@buf,fsr2l
  3160  003B4C  C06E  FFDA         	movff	utoa@buf+1,fsr2h
  3161  003B50  0E00               	movlw	0
  3162  003B52  6EDF               	movwf	indf2,c
  3163                           
  3164                           ; BSR set to: 0
  3165  003B54  0100               	movlb	0	; () banked
  3166  003B56  076D               	decf	utoa@buf& (0+255),f,b
  3167  003B58  A0D8               	btfss	status,0,c
  3168  003B5A  076E               	decf	(utoa@buf+1)& (0+255),f,b
  3169  003B5C                     l5749:
  3170                           
  3171                           ; BSR set to: 0
  3172  003B5C  C06F  F060         	movff	utoa@val,___lwmod@dividend
  3173  003B60  C070  F061         	movff	utoa@val+1,___lwmod@dividend+1
  3174  003B64  C071  F062         	movff	utoa@base,___lwmod@divisor
  3175  003B68  C072  F063         	movff	utoa@base+1,___lwmod@divisor+1
  3176  003B6C  ECC7  F020         	call	___lwmod	;wreg free
  3177  003B70  0100               	movlb	0	; () banked
  3178  003B72  5160               	movf	?___lwmod& (0+255),w,b
  3179  003B74  0100               	movlb	0	; () banked
  3180  003B76  6F75               	movwf	utoa@c& (0+255),b
  3181                           
  3182                           ; BSR set to: 0
  3183  003B78  C06F  F066         	movff	utoa@val,___lwdiv@dividend
  3184  003B7C  C070  F067         	movff	utoa@val+1,___lwdiv@dividend+1
  3185  003B80  C071  F068         	movff	utoa@base,___lwdiv@divisor
  3186  003B84  C072  F069         	movff	utoa@base+1,___lwdiv@divisor+1
  3187  003B88  EC23  F020         	call	___lwdiv	;wreg free
  3188  003B8C  C066  F06F         	movff	?___lwdiv,utoa@val
  3189  003B90  C067  F070         	movff	?___lwdiv+1,utoa@val+1
  3190  003B94  0E09               	movlw	9
  3191  003B96  0100               	movlb	0	; () banked
  3192  003B98  6575               	cpfsgt	utoa@c& (0+255),b
  3193  003B9A  D003               	goto	l763
  3194                           
  3195                           ; BSR set to: 0
  3196  003B9C  0E07               	movlw	7
  3197  003B9E  0100               	movlb	0	; () banked
  3198  003BA0  2775               	addwf	utoa@c& (0+255),f,b
  3199  003BA2                     l763:
  3200                           
  3201                           ; BSR set to: 0
  3202  003BA2  0E30               	movlw	48
  3203  003BA4  0100               	movlb	0	; () banked
  3204  003BA6  2775               	addwf	utoa@c& (0+255),f,b
  3205                           
  3206                           ; BSR set to: 0
  3207  003BA8  C06D  FFD9         	movff	utoa@buf,fsr2l
  3208  003BAC  C06E  FFDA         	movff	utoa@buf+1,fsr2h
  3209  003BB0  C075  FFDF         	movff	utoa@c,indf2
  3210                           
  3211                           ; BSR set to: 0
  3212  003BB4  0100               	movlb	0	; () banked
  3213  003BB6  076D               	decf	utoa@buf& (0+255),f,b
  3214  003BB8  A0D8               	btfss	status,0,c
  3215  003BBA  076E               	decf	(utoa@buf+1)& (0+255),f,b
  3216                           
  3217                           ; BSR set to: 0
  3218  003BBC  0100               	movlb	0	; () banked
  3219  003BBE  516F               	movf	utoa@val& (0+255),w,b
  3220  003BC0  0100               	movlb	0	; () banked
  3221  003BC2  1170               	iorwf	(utoa@val+1)& (0+255),w,b
  3222  003BC4  A4D8               	btfss	status,2,c
  3223  003BC6  D7CA               	goto	l5749
  3224                           
  3225                           ; BSR set to: 0
  3226                           ;	Return value of _utoa is never used
  3227                           
  3228                           ; BSR set to: 0
  3229  003BC8  0100               	movlb	0	; () banked
  3230  003BCA  4B6D               	infsnz	utoa@buf& (0+255),f,b
  3231  003BCC  2B6E               	incf	(utoa@buf+1)& (0+255),f,b
  3232  003BCE  0012               	return	
  3233  003BD0                     __end_of_utoa:
  3234                           	opt stack 0
  3235                           tblptru	equ	0xFF8
  3236                           tblptrh	equ	0xFF7
  3237                           tblptrl	equ	0xFF6
  3238                           tablat	equ	0xFF5
  3239                           prodh	equ	0xFF4
  3240                           prodl	equ	0xFF3
  3241                           intcon	equ	0xFF2
  3242                           postinc0	equ	0xFEE
  3243                           wreg	equ	0xFE8
  3244                           indf1	equ	0xFE7
  3245                           postdec1	equ	0xFE5
  3246                           plusw1	equ	0xFE3
  3247                           fsr1h	equ	0xFE2
  3248                           fsr1l	equ	0xFE1
  3249                           indf2	equ	0xFDF
  3250                           plusw2	equ	0xFDB
  3251                           fsr2h	equ	0xFDA
  3252                           fsr2l	equ	0xFD9
  3253                           status	equ	0xFD8
  3254                           
  3255 ;; *************** function ___lwmod *****************
  3256 ;; Defined at:
  3257 ;;		line 8 in file "C:\Program Files (x86)\Microchip\xc8\v1.37\sources\common\lwmod.c"
  3258 ;; Parameters:    Size  Location     Type
  3259 ;;  dividend        2    0[BANK0 ] unsigned int 
  3260 ;;  divisor         2    2[BANK0 ] unsigned int 
  3261 ;; Auto vars:     Size  Location     Type
  3262 ;;  counter         1   31[COMRAM] unsigned char 
  3263 ;; Return value:  Size  Location     Type
  3264 ;;                  2    0[BANK0 ] unsigned int 
  3265 ;; Registers used:
  3266 ;;		wreg, status,2, status,0
  3267 ;; Tracked objects:
  3268 ;;		On entry : 0/0
  3269 ;;		On exit  : 0/0
  3270 ;;		Unchanged: 0/0
  3271 ;; Data sizes:     COMRAM   BANK0   BANK1   BANK2   BANK3   BANK4   BANK5   BANK6   BANK7
  3272 ;;      Params:         0       4       0       0       0       0       0       0       0
  3273 ;;      Locals:         1       0       0       0       0       0       0       0       0
  3274 ;;      Temps:          0       0       0       0       0       0       0       0       0
  3275 ;;      Totals:         1       4       0       0       0       0       0       0       0
  3276 ;;Total ram usage:        5 bytes
  3277 ;; Hardware stack levels used:    1
  3278 ;; Hardware stack levels required when called:    2
  3279 ;; This function calls:
  3280 ;;		Nothing
  3281 ;; This function is called by:
  3282 ;;		_utoa
  3283 ;; This function uses a non-reentrant model
  3284 ;;
  3285                           
  3286                           	psect	text6
  3287  00418E                     __ptext6:
  3288                           	opt stack 0
  3289  00418E                     ___lwmod:
  3290                           	opt stack 24
  3291                           
  3292                           ; BSR set to: 0
  3293                           ;incstack = 0
  3294  00418E  0100               	movlb	0	; () banked
  3295  004190  5162               	movf	___lwmod@divisor& (0+255),w,b
  3296  004192  0100               	movlb	0	; () banked
  3297  004194  1163               	iorwf	(___lwmod@divisor+1)& (0+255),w,b
  3298  004196  B4D8               	btfsc	status,2,c
  3299  004198  D023               	goto	l868
  3300                           
  3301                           ; BSR set to: 0
  3302  00419A  0E01               	movlw	1
  3303  00419C  6E20               	movwf	___lwmod@counter,c
  3304  00419E  D005               	goto	l5241
  3305  0041A0                     l5239:
  3306                           
  3307                           ; BSR set to: 0
  3308  0041A0  0100               	movlb	0	; () banked
  3309  0041A2  90D8               	bcf	status,0,c
  3310  0041A4  3762               	rlcf	___lwmod@divisor& (0+255),f,b
  3311  0041A6  3763               	rlcf	(___lwmod@divisor+1)& (0+255),f,b
  3312  0041A8  2A20               	incf	___lwmod@counter,f,c
  3313  0041AA                     l5241:
  3314                           
  3315                           ; BSR set to: 0
  3316  0041AA  0100               	movlb	0	; () banked
  3317  0041AC  AF63               	btfss	(___lwmod@divisor+1)& (0+255),7,b
  3318  0041AE  D7F8               	goto	l5239
  3319  0041B0                     l5243:
  3320                           
  3321                           ; BSR set to: 0
  3322  0041B0  0100               	movlb	0	; () banked
  3323  0041B2  5162               	movf	___lwmod@divisor& (0+255),w,b
  3324  0041B4  0100               	movlb	0	; () banked
  3325  0041B6  5D60               	subwf	___lwmod@dividend& (0+255),w,b
  3326  0041B8  0100               	movlb	0	; () banked
  3327  0041BA  5163               	movf	(___lwmod@divisor+1)& (0+255),w,b
  3328  0041BC  0100               	movlb	0	; () banked
  3329  0041BE  5961               	subwfb	(___lwmod@dividend+1)& (0+255),w,b
  3330  0041C0  A0D8               	btfss	status,0,c
  3331  0041C2  D008               	goto	l5247
  3332                           
  3333                           ; BSR set to: 0
  3334  0041C4  0100               	movlb	0	; () banked
  3335  0041C6  5162               	movf	___lwmod@divisor& (0+255),w,b
  3336  0041C8  0100               	movlb	0	; () banked
  3337  0041CA  5F60               	subwf	___lwmod@dividend& (0+255),f,b
  3338  0041CC  0100               	movlb	0	; () banked
  3339  0041CE  5163               	movf	(___lwmod@divisor+1)& (0+255),w,b
  3340  0041D0  0100               	movlb	0	; () banked
  3341  0041D2  5B61               	subwfb	(___lwmod@dividend+1)& (0+255),f,b
  3342  0041D4                     l5247:
  3343                           
  3344                           ; BSR set to: 0
  3345  0041D4  0100               	movlb	0	; () banked
  3346  0041D6  90D8               	bcf	status,0,c
  3347  0041D8  3363               	rrcf	(___lwmod@divisor+1)& (0+255),f,b
  3348  0041DA  3362               	rrcf	___lwmod@divisor& (0+255),f,b
  3349                           
  3350                           ; BSR set to: 0
  3351  0041DC  2E20               	decfsz	___lwmod@counter,f,c
  3352  0041DE  D7E8               	goto	l5243
  3353  0041E0                     l868:
  3354                           
  3355                           ; BSR set to: 0
  3356  0041E0  C060  F060         	movff	___lwmod@dividend,?___lwmod
  3357  0041E4  C061  F061         	movff	___lwmod@dividend+1,?___lwmod+1
  3358                           
  3359                           ; BSR set to: 0
  3360  0041E8  0012               	return		;funcret
  3361  0041EA                     __end_of___lwmod:
  3362                           	opt stack 0
  3363                           tblptru	equ	0xFF8
  3364                           tblptrh	equ	0xFF7
  3365                           tblptrl	equ	0xFF6
  3366                           tablat	equ	0xFF5
  3367                           prodh	equ	0xFF4
  3368                           prodl	equ	0xFF3
  3369                           intcon	equ	0xFF2
  3370                           postinc0	equ	0xFEE
  3371                           wreg	equ	0xFE8
  3372                           indf1	equ	0xFE7
  3373                           postdec1	equ	0xFE5
  3374                           plusw1	equ	0xFE3
  3375                           fsr1h	equ	0xFE2
  3376                           fsr1l	equ	0xFE1
  3377                           indf2	equ	0xFDF
  3378                           plusw2	equ	0xFDB
  3379                           fsr2h	equ	0xFDA
  3380                           fsr2l	equ	0xFD9
  3381                           status	equ	0xFD8
  3382                           
  3383 ;; *************** function ___lwdiv *****************
  3384 ;; Defined at:
  3385 ;;		line 8 in file "C:\Program Files (x86)\Microchip\xc8\v1.37\sources\common\lwdiv.c"
  3386 ;; Parameters:    Size  Location     Type
  3387 ;;  dividend        2    6[BANK0 ] unsigned int 
  3388 ;;  divisor         2    8[BANK0 ] unsigned int 
  3389 ;; Auto vars:     Size  Location     Type
  3390 ;;  quotient        2   11[BANK0 ] unsigned int 
  3391 ;;  counter         1   10[BANK0 ] unsigned char 
  3392 ;; Return value:  Size  Location     Type
  3393 ;;                  2    6[BANK0 ] unsigned int 
  3394 ;; Registers used:
  3395 ;;		wreg, status,2, status,0
  3396 ;; Tracked objects:
  3397 ;;		On entry : 0/0
  3398 ;;		On exit  : 0/0
  3399 ;;		Unchanged: 0/0
  3400 ;; Data sizes:     COMRAM   BANK0   BANK1   BANK2   BANK3   BANK4   BANK5   BANK6   BANK7
  3401 ;;      Params:         0       4       0       0       0       0       0       0       0
  3402 ;;      Locals:         0       3       0       0       0       0       0       0       0
  3403 ;;      Temps:          0       0       0       0       0       0       0       0       0
  3404 ;;      Totals:         0       7       0       0       0       0       0       0       0
  3405 ;;Total ram usage:        7 bytes
  3406 ;; Hardware stack levels used:    1
  3407 ;; Hardware stack levels required when called:    2
  3408 ;; This function calls:
  3409 ;;		Nothing
  3410 ;; This function is called by:
  3411 ;;		_main
  3412 ;;		_utoa
  3413 ;; This function uses a non-reentrant model
  3414 ;;
  3415                           
  3416                           	psect	text7
  3417  004046                     __ptext7:
  3418                           	opt stack 0
  3419  004046                     ___lwdiv:
  3420                           	opt stack 24
  3421                           
  3422                           ; BSR set to: 0
  3423                           ;incstack = 0
  3424  004046  0E00               	movlw	0
  3425  004048  0100               	movlb	0	; () banked
  3426  00404A  6F6C               	movwf	(___lwdiv@quotient+1)& (0+255),b
  3427  00404C  0E00               	movlw	0
  3428  00404E  6F6B               	movwf	___lwdiv@quotient& (0+255),b
  3429                           
  3430                           ; BSR set to: 0
  3431  004050  0100               	movlb	0	; () banked
  3432  004052  5168               	movf	___lwdiv@divisor& (0+255),w,b
  3433  004054  0100               	movlb	0	; () banked
  3434  004056  1169               	iorwf	(___lwdiv@divisor+1)& (0+255),w,b
  3435  004058  B4D8               	btfsc	status,2,c
  3436  00405A  D02C               	goto	l858
  3437                           
  3438                           ; BSR set to: 0
  3439  00405C  0E01               	movlw	1
  3440  00405E  0100               	movlb	0	; () banked
  3441  004060  6F6A               	movwf	___lwdiv@counter& (0+255),b
  3442  004062  D006               	goto	l5221
  3443  004064                     l5219:
  3444                           
  3445                           ; BSR set to: 0
  3446  004064  0100               	movlb	0	; () banked
  3447  004066  90D8               	bcf	status,0,c
  3448  004068  3768               	rlcf	___lwdiv@divisor& (0+255),f,b
  3449  00406A  3769               	rlcf	(___lwdiv@divisor+1)& (0+255),f,b
  3450  00406C  0100               	movlb	0	; () banked
  3451  00406E  2B6A               	incf	___lwdiv@counter& (0+255),f,b
  3452  004070                     l5221:
  3453                           
  3454                           ; BSR set to: 0
  3455  004070  0100               	movlb	0	; () banked
  3456  004072  AF69               	btfss	(___lwdiv@divisor+1)& (0+255),7,b
  3457  004074  D7F7               	goto	l5219
  3458  004076                     l5223:
  3459                           
  3460                           ; BSR set to: 0
  3461  004076  0100               	movlb	0	; () banked
  3462  004078  90D8               	bcf	status,0,c
  3463  00407A  376B               	rlcf	___lwdiv@quotient& (0+255),f,b
  3464  00407C  376C               	rlcf	(___lwdiv@quotient+1)& (0+255),f,b
  3465                           
  3466                           ; BSR set to: 0
  3467  00407E  0100               	movlb	0	; () banked
  3468  004080  5168               	movf	___lwdiv@divisor& (0+255),w,b
  3469  004082  0100               	movlb	0	; () banked
  3470  004084  5D66               	subwf	___lwdiv@dividend& (0+255),w,b
  3471  004086  0100               	movlb	0	; () banked
  3472  004088  5169               	movf	(___lwdiv@divisor+1)& (0+255),w,b
  3473  00408A  0100               	movlb	0	; () banked
  3474  00408C  5967               	subwfb	(___lwdiv@dividend+1)& (0+255),w,b
  3475  00408E  A0D8               	btfss	status,0,c
  3476  004090  D00A               	goto	l5231
  3477                           
  3478                           ; BSR set to: 0
  3479  004092  0100               	movlb	0	; () banked
  3480  004094  5168               	movf	___lwdiv@divisor& (0+255),w,b
  3481  004096  0100               	movlb	0	; () banked
  3482  004098  5F66               	subwf	___lwdiv@dividend& (0+255),f,b
  3483  00409A  0100               	movlb	0	; () banked
  3484  00409C  5169               	movf	(___lwdiv@divisor+1)& (0+255),w,b
  3485  00409E  0100               	movlb	0	; () banked
  3486  0040A0  5B67               	subwfb	(___lwdiv@dividend+1)& (0+255),f,b
  3487                           
  3488                           ; BSR set to: 0
  3489  0040A2  0100               	movlb	0	; () banked
  3490  0040A4  816B               	bsf	___lwdiv@quotient& (0+255),0,b
  3491  0040A6                     l5231:
  3492                           
  3493                           ; BSR set to: 0
  3494  0040A6  0100               	movlb	0	; () banked
  3495  0040A8  90D8               	bcf	status,0,c
  3496  0040AA  3369               	rrcf	(___lwdiv@divisor+1)& (0+255),f,b
  3497  0040AC  3368               	rrcf	___lwdiv@divisor& (0+255),f,b
  3498                           
  3499                           ; BSR set to: 0
  3500  0040AE  0100               	movlb	0	; () banked
  3501  0040B0  2F6A               	decfsz	___lwdiv@counter& (0+255),f,b
  3502  0040B2  D7E1               	goto	l5223
  3503  0040B4                     l858:
  3504                           
  3505                           ; BSR set to: 0
  3506  0040B4  C06B  F066         	movff	___lwdiv@quotient,?___lwdiv
  3507  0040B8  C06C  F067         	movff	___lwdiv@quotient+1,?___lwdiv+1
  3508                           
  3509                           ; BSR set to: 0
  3510  0040BC  0012               	return		;funcret
  3511  0040BE                     __end_of___lwdiv:
  3512                           	opt stack 0
  3513                           tblptru	equ	0xFF8
  3514                           tblptrh	equ	0xFF7
  3515                           tblptrl	equ	0xFF6
  3516                           tablat	equ	0xFF5
  3517                           prodh	equ	0xFF4
  3518                           prodl	equ	0xFF3
  3519                           intcon	equ	0xFF2
  3520                           postinc0	equ	0xFEE
  3521                           wreg	equ	0xFE8
  3522                           indf1	equ	0xFE7
  3523                           postdec1	equ	0xFE5
  3524                           plusw1	equ	0xFE3
  3525                           fsr1h	equ	0xFE2
  3526                           fsr1l	equ	0xFE1
  3527                           indf2	equ	0xFDF
  3528                           plusw2	equ	0xFDB
  3529                           fsr2h	equ	0xFDA
  3530                           fsr2l	equ	0xFD9
  3531                           status	equ	0xFD8
  3532                           
  3533 ;; *************** function _ricarica *****************
  3534 ;; Defined at:
  3535 ;;		line 181 in file "batterua.c"
  3536 ;; Parameters:    Size  Location     Type
  3537 ;;		None
  3538 ;; Auto vars:     Size  Location     Type
  3539 ;;		None
  3540 ;; Return value:  Size  Location     Type
  3541 ;;                  1    wreg      void 
  3542 ;; Registers used:
  3543 ;;		wreg, fsr1l, fsr1h, fsr2l, fsr2h, status,2, status,0, tblptrl, tblptrh, tblptru, prodl, prodh, cstack
  3544 ;; Tracked objects:
  3545 ;;		On entry : 0/0
  3546 ;;		On exit  : 0/0
  3547 ;;		Unchanged: 0/0
  3548 ;; Data sizes:     COMRAM   BANK0   BANK1   BANK2   BANK3   BANK4   BANK5   BANK6   BANK7
  3549 ;;      Params:         0       0       0       0       0       0       0       0       0
  3550 ;;      Locals:         0       0       0       0       0       0       0       0       0
  3551 ;;      Temps:          0       0       0       0       0       0       0       0       0
  3552 ;;      Totals:         0       0       0       0       0       0       0       0       0
  3553 ;;Total ram usage:        0 bytes
  3554 ;; Hardware stack levels used:    1
  3555 ;; Hardware stack levels required when called:    9
  3556 ;; This function calls:
  3557 ;;		_LCD_clear
  3558 ;;		_LCD_goto_line
  3559 ;;		_LCD_home
  3560 ;;		_LCD_initialize
  3561 ;;		_LCD_write_message
  3562 ;;		___flge
  3563 ;;		_delay_ms
  3564 ;;		_delay_s
  3565 ;;		_display_voltage
  3566 ;;		_read_adc
  3567 ;; This function is called by:
  3568 ;;		_main
  3569 ;; This function uses a non-reentrant model
  3570 ;;
  3571                           
  3572                           	psect	text8
  3573  003534                     __ptext8:
  3574                           	opt stack 0
  3575  003534                     _ricarica:
  3576                           	opt stack 21
  3577                           
  3578                           ;batterua.c: 182: LCD_initialize(16);
  3579                           
  3580                           ; BSR set to: 0
  3581                           ;incstack = 0
  3582  003534  0E10               	movlw	16
  3583  003536  ECE3  F019         	call	_LCD_initialize
  3584                           
  3585                           ;batterua.c: 183: while ((current < -0.5) || (voltage < 14)) {
  3586  00353A  D04A               	goto	l6315
  3587  00353C                     l6293:
  3588                           
  3589                           ;batterua.c: 184: if ((voltage > 13) || (current < 0)) {
  3590  00353C  0E00               	movlw	0
  3591  00353E  0100               	movlb	0	; () banked
  3592  003540  6F60               	movwf	___flge@ff1& (0+255),b
  3593  003542  0E00               	movlw	0
  3594  003544  6F61               	movwf	(___flge@ff1+1)& (0+255),b
  3595  003546  0E50               	movlw	80
  3596  003548  6F62               	movwf	(___flge@ff1+2)& (0+255),b
  3597  00354A  0E41               	movlw	65
  3598  00354C  6F63               	movwf	(___flge@ff1+3)& (0+255),b
  3599  00354E  C0F1  F064         	movff	_voltage,___flge@ff2	;volatile
  3600  003552  C0F2  F065         	movff	_voltage+1,___flge@ff2+1	;volatile
  3601  003556  C0F3  F066         	movff	_voltage+2,___flge@ff2+2	;volatile
  3602  00355A  C0F4  F067         	movff	_voltage+3,___flge@ff2+3	;volatile
  3603  00355E  EC94  F017         	call	___flge	;wreg free
  3604  003562  0100               	movlb	0	; () banked
  3605  003564  A0D8               	btfss	status,0,c
  3606  003566  D003               	goto	l257
  3607                           
  3608                           ; BSR set to: 0
  3609  003568  0100               	movlb	0	; () banked
  3610  00356A  AFEC               	btfss	(_current+3)& (0+255),7,b	;volatile
  3611  00356C  D015               	goto	l6307
  3612  00356E                     l257:
  3613                           
  3614                           ; BSR set to: 0
  3615                           ;batterua.c: 185: LATBbits.LATB7 = 1;
  3616  00356E  8E8A               	bsf	3978,7,c	;volatile
  3617                           
  3618                           ; BSR set to: 0
  3619                           ;batterua.c: 186: LCD_goto_line(1);
  3620  003570  0E01               	movlw	1
  3621  003572  ECAA  F01C         	call	_LCD_goto_line
  3622                           
  3623                           ;batterua.c: 187: LCD_write_message("Carica in corso:");
  3624  003576  0E9E               	movlw	low STR_18
  3625  003578  0100               	movlb	0	; () banked
  3626  00357A  6F70               	movwf	LCD_write_message@buffer& (0+255),b
  3627  00357C  0E7F               	movlw	high STR_18
  3628  00357E  0100               	movlb	0	; () banked
  3629  003580  6F71               	movwf	(LCD_write_message@buffer+1)& (0+255),b
  3630  003582  EC33  F022         	call	_LCD_write_message	;wreg free
  3631                           
  3632                           ;batterua.c: 188: display_voltage(2);
  3633  003586  0E02               	movlw	2
  3634  003588  EC20  F01D         	call	_display_voltage
  3635                           
  3636                           ;batterua.c: 189: delay_s(1);
  3637  00358C  0E01               	movlw	1
  3638  00358E  EC1D  F022         	call	_delay_s
  3639                           
  3640                           ;batterua.c: 190: read_adc();
  3641  003592  ECD0  F009         	call	_read_adc	;wreg free
  3642                           
  3643                           ;batterua.c: 191: } else {
  3644  003596  D01C               	goto	l6315
  3645  003598                     l6307:
  3646                           
  3647                           ;batterua.c: 192: LCD_home();
  3648  003598  ECD2  F021         	call	_LCD_home	;wreg free
  3649                           
  3650                           ;batterua.c: 193: LCD_write_message("ERRORE! Carica bat. ");
  3651  00359C  0E21               	movlw	low STR_19
  3652  00359E  0100               	movlb	0	; () banked
  3653  0035A0  6F70               	movwf	LCD_write_message@buffer& (0+255),b
  3654  0035A2  0E7F               	movlw	high STR_19
  3655  0035A4  0100               	movlb	0	; () banked
  3656  0035A6  6F71               	movwf	(LCD_write_message@buffer+1)& (0+255),b
  3657  0035A8  EC33  F022         	call	_LCD_write_message	;wreg free
  3658                           
  3659                           ;batterua.c: 194: LCD_goto_line(2);
  3660  0035AC  0E02               	movlw	2
  3661  0035AE  ECAA  F01C         	call	_LCD_goto_line
  3662                           
  3663                           ;batterua.c: 195: LCD_write_message("scollegato o guasto.");
  3664  0035B2  0E36               	movlw	low STR_20
  3665  0035B4  0100               	movlb	0	; () banked
  3666  0035B6  6F70               	movwf	LCD_write_message@buffer& (0+255),b
  3667  0035B8  0E7F               	movlw	high STR_20
  3668  0035BA  0100               	movlb	0	; () banked
  3669  0035BC  6F71               	movwf	(LCD_write_message@buffer+1)& (0+255),b
  3670  0035BE  EC33  F022         	call	_LCD_write_message	;wreg free
  3671                           
  3672                           ;batterua.c: 196: delay_ms(100);
  3673  0035C2  0E00               	movlw	0
  3674  0035C4  0100               	movlb	0	; () banked
  3675  0035C6  6F67               	movwf	(delay_ms@value_ms+1)& (0+255),b
  3676  0035C8  0E64               	movlw	100
  3677  0035CA  6F66               	movwf	delay_ms@value_ms& (0+255),b
  3678  0035CC  EC63  F021         	call	_delay_ms	;wreg free
  3679  0035D0                     l6315:
  3680  0035D0  C0E9  F060         	movff	_current,___flge@ff1	;volatile
  3681  0035D4  C0EA  F061         	movff	_current+1,___flge@ff1+1	;volatile
  3682  0035D8  C0EB  F062         	movff	_current+2,___flge@ff1+2	;volatile
  3683  0035DC  C0EC  F063         	movff	_current+3,___flge@ff1+3	;volatile
  3684  0035E0  0E00               	movlw	0
  3685  0035E2  0100               	movlb	0	; () banked
  3686  0035E4  6F64               	movwf	___flge@ff2& (0+255),b
  3687  0035E6  0E00               	movlw	0
  3688  0035E8  6F65               	movwf	(___flge@ff2+1)& (0+255),b
  3689  0035EA  0E00               	movlw	0
  3690  0035EC  6F66               	movwf	(___flge@ff2+2)& (0+255),b
  3691  0035EE  0EBF               	movlw	191
  3692  0035F0  6F67               	movwf	(___flge@ff2+3)& (0+255),b
  3693  0035F2  EC94  F017         	call	___flge	;wreg free
  3694  0035F6  0100               	movlb	0	; () banked
  3695  0035F8  A0D8               	btfss	status,0,c
  3696  0035FA  D7A0               	goto	l6293
  3697                           
  3698                           ; BSR set to: 0
  3699  0035FC  C0F1  F060         	movff	_voltage,___flge@ff1	;volatile
  3700  003600  C0F2  F061         	movff	_voltage+1,___flge@ff1+1	;volatile
  3701  003604  C0F3  F062         	movff	_voltage+2,___flge@ff1+2	;volatile
  3702  003608  C0F4  F063         	movff	_voltage+3,___flge@ff1+3	;volatile
  3703  00360C  0E00               	movlw	0
  3704  00360E  0100               	movlb	0	; () banked
  3705  003610  6F64               	movwf	___flge@ff2& (0+255),b
  3706  003612  0E00               	movlw	0
  3707  003614  6F65               	movwf	(___flge@ff2+1)& (0+255),b
  3708  003616  0E60               	movlw	96
  3709  003618  6F66               	movwf	(___flge@ff2+2)& (0+255),b
  3710  00361A  0E41               	movlw	65
  3711  00361C  6F67               	movwf	(___flge@ff2+3)& (0+255),b
  3712  00361E  EC94  F017         	call	___flge	;wreg free
  3713  003622  0100               	movlb	0	; () banked
  3714  003624  A0D8               	btfss	status,0,c
  3715  003626  D78A               	goto	l6293
  3716                           
  3717                           ; BSR set to: 0
  3718                           ;batterua.c: 197: }
  3719                           ;batterua.c: 198: }
  3720                           ;batterua.c: 200: LATBbits.LATB7 = 0;
  3721  003628  9E8A               	bcf	3978,7,c	;volatile
  3722                           
  3723                           ; BSR set to: 0
  3724                           ;batterua.c: 201: LCD_clear();
  3725  00362A  EC04  F022         	call	_LCD_clear	;wreg free
  3726                           
  3727                           ;batterua.c: 202: LCD_write_message("Carica terminata");
  3728  00362E  0EC0               	movlw	low STR_21
  3729  003630  0100               	movlb	0	; () banked
  3730  003632  6F70               	movwf	LCD_write_message@buffer& (0+255),b
  3731  003634  0E7F               	movlw	high STR_21
  3732  003636  0100               	movlb	0	; () banked
  3733  003638  6F71               	movwf	(LCD_write_message@buffer+1)& (0+255),b
  3734  00363A  EC33  F022         	call	_LCD_write_message	;wreg free
  3735                           
  3736                           ;batterua.c: 203: stati = 1;
  3737  00363E  0E01               	movlw	1
  3738  003640  6E35               	movwf	_stati,c	;volatile
  3739                           
  3740                           ;batterua.c: 204: delay_s(5);
  3741  003642  0E05               	movlw	5
  3742  003644  EC1D  F022         	call	_delay_s
  3743  003648  0012               	return		;funcret
  3744  00364A                     __end_of_ricarica:
  3745                           	opt stack 0
  3746                           tblptru	equ	0xFF8
  3747                           tblptrh	equ	0xFF7
  3748                           tblptrl	equ	0xFF6
  3749                           tablat	equ	0xFF5
  3750                           prodh	equ	0xFF4
  3751                           prodl	equ	0xFF3
  3752                           intcon	equ	0xFF2
  3753                           postinc0	equ	0xFEE
  3754                           wreg	equ	0xFE8
  3755                           indf1	equ	0xFE7
  3756                           postdec1	equ	0xFE5
  3757                           plusw1	equ	0xFE3
  3758                           fsr1h	equ	0xFE2
  3759                           fsr1l	equ	0xFE1
  3760                           indf2	equ	0xFDF
  3761                           plusw2	equ	0xFDB
  3762                           fsr2h	equ	0xFDA
  3763                           fsr2l	equ	0xFD9
  3764                           status	equ	0xFD8
  3765                           
  3766 ;; *************** function _display_voltage *****************
  3767 ;; Defined at:
  3768 ;;		line 257 in file "batterua.c"
  3769 ;; Parameters:    Size  Location     Type
  3770 ;;  line            1    wreg     unsigned char 
  3771 ;; Auto vars:     Size  Location     Type
  3772 ;;  line            1  134[BANK0 ] unsigned char 
  3773 ;; Return value:  Size  Location     Type
  3774 ;;                  1    wreg      void 
  3775 ;; Registers used:
  3776 ;;		wreg, fsr1l, fsr1h, fsr2l, fsr2h, status,2, status,0, tblptrl, tblptrh, tblptru, prodl, prodh, cstack
  3777 ;; Tracked objects:
  3778 ;;		On entry : 0/0
  3779 ;;		On exit  : 0/0
  3780 ;;		Unchanged: 0/0
  3781 ;; Data sizes:     COMRAM   BANK0   BANK1   BANK2   BANK3   BANK4   BANK5   BANK6   BANK7
  3782 ;;      Params:         0       0       0       0       0       0       0       0       0
  3783 ;;      Locals:         0       1       0       0       0       0       0       0       0
  3784 ;;      Temps:          0       0       0       0       0       0       0       0       0
  3785 ;;      Totals:         0       1       0       0       0       0       0       0       0
  3786 ;;Total ram usage:        1 bytes
  3787 ;; Hardware stack levels used:    1
  3788 ;; Hardware stack levels required when called:    8
  3789 ;; This function calls:
  3790 ;;		_LCD_goto_line
  3791 ;;		_LCD_write_string
  3792 ;;		_read_adc
  3793 ;;		_sprintf
  3794 ;; This function is called by:
  3795 ;;		_ricarica
  3796 ;;		_stabilizzazione
  3797 ;;		_scarica
  3798 ;; This function uses a non-reentrant model
  3799 ;;
  3800                           
  3801                           	psect	text9
  3802  003A40                     __ptext9:
  3803                           	opt stack 0
  3804  003A40                     _display_voltage:
  3805                           	opt stack 21
  3806                           
  3807                           ;incstack = 0
  3808                           ;display_voltage@line stored from wreg
  3809  003A40  0100               	movlb	0	; () banked
  3810  003A42  6FE6               	movwf	display_voltage@line& (0+255),b
  3811                           
  3812                           ;batterua.c: 258: read_adc();
  3813  003A44  ECD0  F009         	call	_read_adc	;wreg free
  3814                           
  3815                           ;batterua.c: 259: LCD_goto_line(line);
  3816  003A48  0100               	movlb	0	; () banked
  3817  003A4A  51E6               	movf	display_voltage@line& (0+255),w,b
  3818  003A4C  ECAA  F01C         	call	_LCD_goto_line
  3819                           
  3820                           ;batterua.c: 260: sprintf(str, "V:%.2f", voltage);
  3821  003A50  0E36               	movlw	low _str
  3822  003A52  0100               	movlb	0	; () banked
  3823  003A54  6FD4               	movwf	sprintf@sp& (0+255),b
  3824  003A56  0E00               	movlw	high _str
  3825  003A58  0100               	movlb	0	; () banked
  3826  003A5A  6FD5               	movwf	(sprintf@sp+1)& (0+255),b
  3827  003A5C  0EF3               	movlw	low STR_26
  3828  003A5E  0100               	movlb	0	; () banked
  3829  003A60  6FD6               	movwf	sprintf@f& (0+255),b
  3830  003A62  0E7F               	movlw	high STR_26
  3831  003A64  0100               	movlb	0	; () banked
  3832  003A66  6FD7               	movwf	(sprintf@f+1)& (0+255),b
  3833  003A68  C0F1  F0D8         	movff	_voltage,?_sprintf+4	;volatile
  3834  003A6C  C0F2  F0D9         	movff	_voltage+1,?_sprintf+5	;volatile
  3835  003A70  C0F3  F0DA         	movff	_voltage+2,?_sprintf+6	;volatile
  3836  003A74  C0F4  F0DB         	movff	_voltage+3,?_sprintf+7	;volatile
  3837  003A78  EC5E  F000         	call	_sprintf	;wreg free
  3838                           
  3839                           ;batterua.c: 261: str[7] = '\0';
  3840  003A7C  0E00               	movlw	0
  3841  003A7E  6E3D               	movwf	_str+7,c	;volatile
  3842                           
  3843                           ;batterua.c: 262: LCD_write_string(str);
  3844  003A80  0E36               	movlw	low _str
  3845  003A82  0100               	movlb	0	; () banked
  3846  003A84  6F70               	movwf	LCD_write_string@buffer& (0+255),b
  3847  003A86  0E00               	movlw	high _str
  3848  003A88  0100               	movlb	0	; () banked
  3849  003A8A  6F71               	movwf	(LCD_write_string@buffer+1)& (0+255),b
  3850  003A8C  EC5D  F022         	call	_LCD_write_string	;wreg free
  3851                           
  3852                           ;batterua.c: 263: sprintf(str, " I:%.3f", current);
  3853  003A90  0E36               	movlw	low _str
  3854  003A92  0100               	movlb	0	; () banked
  3855  003A94  6FD4               	movwf	sprintf@sp& (0+255),b
  3856  003A96  0E00               	movlw	high _str
  3857  003A98  0100               	movlb	0	; () banked
  3858  003A9A  6FD5               	movwf	(sprintf@sp+1)& (0+255),b
  3859  003A9C  0EE4               	movlw	low STR_27
  3860  003A9E  0100               	movlb	0	; () banked
  3861  003AA0  6FD6               	movwf	sprintf@f& (0+255),b
  3862  003AA2  0E7F               	movlw	high STR_27
  3863  003AA4  0100               	movlb	0	; () banked
  3864  003AA6  6FD7               	movwf	(sprintf@f+1)& (0+255),b
  3865  003AA8  C0E9  F0D8         	movff	_current,?_sprintf+4	;volatile
  3866  003AAC  C0EA  F0D9         	movff	_current+1,?_sprintf+5	;volatile
  3867  003AB0  C0EB  F0DA         	movff	_current+2,?_sprintf+6	;volatile
  3868  003AB4  C0EC  F0DB         	movff	_current+3,?_sprintf+7	;volatile
  3869  003AB8  EC5E  F000         	call	_sprintf	;wreg free
  3870                           
  3871                           ;batterua.c: 264: str[7] = '\0';
  3872  003ABC  0E00               	movlw	0
  3873  003ABE  6E3D               	movwf	_str+7,c	;volatile
  3874                           
  3875                           ;batterua.c: 265: LCD_write_string(str);
  3876  003AC0  0E36               	movlw	low _str
  3877  003AC2  0100               	movlb	0	; () banked
  3878  003AC4  6F70               	movwf	LCD_write_string@buffer& (0+255),b
  3879  003AC6  0E00               	movlw	high _str
  3880  003AC8  0100               	movlb	0	; () banked
  3881  003ACA  6F71               	movwf	(LCD_write_string@buffer+1)& (0+255),b
  3882  003ACC  EC5D  F022         	call	_LCD_write_string	;wreg free
  3883                           
  3884                           ;batterua.c: 266: sprintf(str, " T:%.2f", temperature);
  3885  003AD0  0E36               	movlw	low _str
  3886  003AD2  0100               	movlb	0	; () banked
  3887  003AD4  6FD4               	movwf	sprintf@sp& (0+255),b
  3888  003AD6  0E00               	movlw	high _str
  3889  003AD8  0100               	movlb	0	; () banked
  3890  003ADA  6FD5               	movwf	(sprintf@sp+1)& (0+255),b
  3891  003ADC  0EDC               	movlw	low STR_28
  3892  003ADE  0100               	movlb	0	; () banked
  3893  003AE0  6FD6               	movwf	sprintf@f& (0+255),b
  3894  003AE2  0E7F               	movlw	high STR_28
  3895  003AE4  0100               	movlb	0	; () banked
  3896  003AE6  6FD7               	movwf	(sprintf@f+1)& (0+255),b
  3897  003AE8  C0F7  F0D8         	movff	_temperature,?_sprintf+4	;volatile
  3898  003AEC  C0F8  F0D9         	movff	_temperature+1,?_sprintf+5	;volatile
  3899  003AF0  C0F9  F0DA         	movff	_temperature+2,?_sprintf+6	;volatile
  3900  003AF4  C0FA  F0DB         	movff	_temperature+3,?_sprintf+7	;volatile
  3901  003AF8  EC5E  F000         	call	_sprintf	;wreg free
  3902                           
  3903                           ;batterua.c: 267: str[7] = '\0';
  3904  003AFC  0E00               	movlw	0
  3905  003AFE  6E3D               	movwf	_str+7,c	;volatile
  3906                           
  3907                           ;batterua.c: 268: LCD_write_string(str);
  3908  003B00  0E36               	movlw	low _str
  3909  003B02  0100               	movlb	0	; () banked
  3910  003B04  6F70               	movwf	LCD_write_string@buffer& (0+255),b
  3911  003B06  0E00               	movlw	high _str
  3912  003B08  0100               	movlb	0	; () banked
  3913  003B0A  6F71               	movwf	(LCD_write_string@buffer+1)& (0+255),b
  3914  003B0C  EC5D  F022         	call	_LCD_write_string	;wreg free
  3915  003B10  0012               	return		;funcret
  3916  003B12                     __end_of_display_voltage:
  3917                           	opt stack 0
  3918                           tblptru	equ	0xFF8
  3919                           tblptrh	equ	0xFF7
  3920                           tblptrl	equ	0xFF6
  3921                           tablat	equ	0xFF5
  3922                           prodh	equ	0xFF4
  3923                           prodl	equ	0xFF3
  3924                           intcon	equ	0xFF2
  3925                           postinc0	equ	0xFEE
  3926                           wreg	equ	0xFE8
  3927                           indf1	equ	0xFE7
  3928                           postdec1	equ	0xFE5
  3929                           plusw1	equ	0xFE3
  3930                           fsr1h	equ	0xFE2
  3931                           fsr1l	equ	0xFE1
  3932                           indf2	equ	0xFDF
  3933                           plusw2	equ	0xFDB
  3934                           fsr2h	equ	0xFDA
  3935                           fsr2l	equ	0xFD9
  3936                           status	equ	0xFD8
  3937                           
  3938 ;; *************** function _sprintf *****************
  3939 ;; Defined at:
  3940 ;;		line 492 in file "C:\Program Files (x86)\Microchip\xc8\v1.37\sources\common\doprnt.c"
  3941 ;; Parameters:    Size  Location     Type
  3942 ;;  sp              2  116[BANK0 ] PTR unsigned char 
  3943 ;;		 -> str(8), 
  3944 ;;  f               2  118[BANK0 ] PTR const unsigned char 
  3945 ;;		 -> STR_28(8), STR_27(8), STR_26(7), STR_15(5), 
  3946 ;;		 -> STR_13(5), 
  3947 ;; Auto vars:     Size  Location     Type
  3948 ;;  fval            4   20[BANK1 ] PTR const unsigned char 
  3949 ;;  tmpval          4   14[BANK1 ] struct .
  3950 ;;  val             4    8[BANK1 ] unsigned long 
  3951 ;;  cp              3    0        PTR const unsigned char 
  3952 ;;  prec            2   18[BANK1 ] int 
  3953 ;;  exp             2   12[BANK1 ] int 
  3954 ;;  flag            2    6[BANK1 ] unsigned short 
  3955 ;;  ap              2    4[BANK1 ] PTR void [1]
  3956 ;;		 -> ?_sprintf(2), 
  3957 ;;  len             2    0        unsigned int 
  3958 ;;  width           2    0        int 
  3959 ;;  c               1   24[BANK1 ] char 
  3960 ;;  d               1    0        unsigned char 
  3961 ;; Return value:  Size  Location     Type
  3962 ;;                  2  116[BANK0 ] int 
  3963 ;; Registers used:
  3964 ;;		wreg, fsr2l, fsr2h, status,2, status,0, tblptrl, tblptrh, tblptru, prodl, prodh, cstack
  3965 ;; Tracked objects:
  3966 ;;		On entry : 0/0
  3967 ;;		On exit  : 0/0
  3968 ;;		Unchanged: 0/0
  3969 ;; Data sizes:     COMRAM   BANK0   BANK1   BANK2   BANK3   BANK4   BANK5   BANK6   BANK7
  3970 ;;      Params:         0       8       0       0       0       0       0       0       0
  3971 ;;      Locals:         0       0      25       0       0       0       0       0       0
  3972 ;;      Temps:          0       2       0       0       0       0       0       0       0
  3973 ;;      Totals:         0      10      25       0       0       0       0       0       0
  3974 ;;Total ram usage:       35 bytes
  3975 ;; Hardware stack levels used:    1
  3976 ;; Hardware stack levels required when called:    4
  3977 ;; This function calls:
  3978 ;;		___awdiv
  3979 ;;		___fladd
  3980 ;;		___flge
  3981 ;;		___flmul
  3982 ;;		___flneg
  3983 ;;		___flsub
  3984 ;;		___fltol
  3985 ;;		___lldiv
  3986 ;;		___llmod
  3987 ;;		___wmul
  3988 ;;		___xxtofl
  3989 ;;		__div_to_l_
  3990 ;;		__tdiv_to_l_
  3991 ;;		_fround
  3992 ;;		_isdigit
  3993 ;;		_scale
  3994 ;; This function is called by:
  3995 ;;		_main
  3996 ;;		_display_voltage
  3997 ;; This function uses a non-reentrant model
  3998 ;;
  3999                           
  4000                           	psect	text10
  4001  0000BC                     __ptext10:
  4002                           	opt stack 0
  4003  0000BC                     _sprintf:
  4004                           	opt stack 24
  4005                           
  4006                           ;doprnt.c: 494: va_list ap;
  4007                           ;doprnt.c: 499: signed char c;
  4008                           ;doprnt.c: 501: int width;
  4009                           ;doprnt.c: 504: int prec;
  4010                           ;doprnt.c: 508: unsigned short flag;
  4011                           ;doprnt.c: 515: char d;
  4012                           ;doprnt.c: 516: double fval;
  4013                           ;doprnt.c: 517: int exp;
  4014                           ;doprnt.c: 523: union {
  4015                           ;doprnt.c: 524: unsigned long vd;
  4016                           ;doprnt.c: 525: double integ;
  4017                           ;doprnt.c: 526: } tmpval;
  4018                           ;doprnt.c: 528: unsigned long val;
  4019                           ;doprnt.c: 529: unsigned len;
  4020                           ;doprnt.c: 530: const char * cp;
  4021                           ;doprnt.c: 533: *ap = __va_start();
  4022                           
  4023                           ;incstack = 0
  4024  0000BC  0ED8               	movlw	low (?_sprintf+4)
  4025  0000BE  0101               	movlb	1	; () banked
  4026  0000C0  6F04               	movwf	sprintf@ap& (0+255),b
  4027  0000C2  0E00               	movlw	high (?_sprintf+4)
  4028  0000C4  0101               	movlb	1	; () banked
  4029  0000C6  6F05               	movwf	(sprintf@ap+1)& (0+255),b
  4030                           
  4031                           ;doprnt.c: 536: while(c = *f++) {
  4032  0000C8  EF7C  F004         	goto	l6097
  4033  0000CC                     l5899:
  4034                           
  4035                           ; BSR set to: 1
  4036                           ;doprnt.c: 538: if(c != '%')
  4037  0000CC  0E25               	movlw	37
  4038  0000CE  0101               	movlb	1	; () banked
  4039  0000D0  1918               	xorwf	sprintf@c& (0+255),w,b
  4040  0000D2  B4D8               	btfsc	status,2,c
  4041  0000D4  D008               	goto	l5905
  4042                           
  4043                           ; BSR set to: 1
  4044                           ;doprnt.c: 540: {
  4045                           ;doprnt.c: 541: ((*sp++ = (c)));
  4046  0000D6  C0D4  FFD9         	movff	sprintf@sp,fsr2l
  4047  0000DA  C0D5  FFDA         	movff	sprintf@sp+1,fsr2h
  4048  0000DE  C118  FFDF         	movff	sprintf@c,indf2
  4049  0000E2  EF79  F004         	goto	l6095
  4050  0000E6                     l5905:
  4051                           
  4052                           ;doprnt.c: 543: }
  4053                           ;doprnt.c: 548: flag = 0;
  4054  0000E6  0E00               	movlw	0
  4055  0000E8  0101               	movlb	1	; () banked
  4056  0000EA  6F07               	movwf	(sprintf@flag+1)& (0+255),b
  4057  0000EC  0E00               	movlw	0
  4058  0000EE  6F06               	movwf	sprintf@flag& (0+255),b
  4059                           
  4060                           ; BSR set to: 1
  4061                           ;doprnt.c: 611: if(*f == '.') {
  4062  0000F0  C0D6  FFF6         	movff	sprintf@f,tblptrl
  4063  0000F4  C0D7  FFF7         	movff	sprintf@f+1,tblptrh
  4064  0000F8                     	if	0	;tblptru may be non-zero
  4065  0000F8                     	endif
  4066  0000F8                     	if	0	;tblptru may be non-zero
  4067  0000F8                     	endif
  4068  0000F8  0008               	tblrd		*
  4069  0000FA  50F5               	movf	tablat,w,c
  4070  0000FC  0A2E               	xorlw	46
  4071  0000FE  A4D8               	btfss	status,2,c
  4072  000100  D039               	goto	l5919
  4073                           
  4074                           ; BSR set to: 1
  4075                           ;doprnt.c: 612: flag |= 0x4000;
  4076  000102  0101               	movlb	1	; () banked
  4077  000104  8D07               	bsf	(sprintf@flag+1)& (0+255),6,b
  4078                           
  4079                           ;doprnt.c: 613: f++;
  4080  000106  0100               	movlb	0	; () banked
  4081  000108  4BD6               	infsnz	sprintf@f& (0+255),f,b
  4082  00010A  2BD7               	incf	(sprintf@f+1)& (0+255),f,b
  4083                           
  4084                           ; BSR set to: 0
  4085                           ;doprnt.c: 620: {
  4086                           ;doprnt.c: 621: prec = 0;
  4087  00010C  0E00               	movlw	0
  4088  00010E  0101               	movlb	1	; () banked
  4089  000110  6F13               	movwf	(sprintf@prec+1)& (0+255),b
  4090  000112  0E00               	movlw	0
  4091  000114  6F12               	movwf	sprintf@prec& (0+255),b
  4092                           
  4093                           ;doprnt.c: 622: while(isdigit((unsigned)*f))
  4094  000116  D023               	goto	l5917
  4095  000118                     l5913:
  4096                           
  4097                           ;doprnt.c: 623: prec = prec*10 + *f++ - '0';
  4098  000118  C112  F060         	movff	sprintf@prec,___wmul@multiplier
  4099  00011C  C113  F061         	movff	sprintf@prec+1,___wmul@multiplier+1
  4100  000120  0E00               	movlw	0
  4101  000122  0100               	movlb	0	; () banked
  4102  000124  6F63               	movwf	(___wmul@multiplicand+1)& (0+255),b
  4103  000126  0E0A               	movlw	10
  4104  000128  6F62               	movwf	___wmul@multiplicand& (0+255),b
  4105  00012A  ECB7  F021         	call	___wmul	;wreg free
  4106  00012E  C0D6  FFF6         	movff	sprintf@f,tblptrl
  4107  000132  C0D7  FFF7         	movff	sprintf@f+1,tblptrh
  4108  000136                     	if	0	;tblptru may be non-zero
  4109  000136                     	endif
  4110  000136                     	if	0	;tblptru may be non-zero
  4111  000136                     	endif
  4112  000136  0008               	tblrd		*
  4113  000138  50F5               	movf	tablat,w,c
  4114  00013A  0100               	movlb	0	; () banked
  4115  00013C  2760               	addwf	?___wmul& (0+255),f,b
  4116  00013E  0E00               	movlw	0
  4117  000140  0100               	movlb	0	; () banked
  4118  000142  2361               	addwfc	(?___wmul+1)& (0+255),f,b
  4119  000144  0ED0               	movlw	208
  4120  000146  0100               	movlb	0	; () banked
  4121  000148  2560               	addwf	?___wmul& (0+255),w,b
  4122  00014A  0101               	movlb	1	; () banked
  4123  00014C  6F12               	movwf	sprintf@prec& (0+255),b
  4124  00014E  0EFF               	movlw	255
  4125  000150  0100               	movlb	0	; () banked
  4126  000152  2161               	addwfc	(?___wmul+1)& (0+255),w,b
  4127  000154  0101               	movlb	1	; () banked
  4128  000156  6F13               	movwf	(sprintf@prec+1)& (0+255),b
  4129                           
  4130                           ; BSR set to: 1
  4131  000158  0100               	movlb	0	; () banked
  4132  00015A  4BD6               	infsnz	sprintf@f& (0+255),f,b
  4133  00015C  2BD7               	incf	(sprintf@f+1)& (0+255),f,b
  4134  00015E                     l5917:
  4135  00015E  C0D6  FFF6         	movff	sprintf@f,tblptrl
  4136  000162  C0D7  FFF7         	movff	sprintf@f+1,tblptrh
  4137  000166                     	if	0	;tblptru may be non-zero
  4138  000166                     	endif
  4139  000166                     	if	0	;tblptru may be non-zero
  4140  000166                     	endif
  4141  000166  0008               	tblrd		*
  4142  000168  50F5               	movf	tablat,w,c
  4143  00016A  EC49  F022         	call	_isdigit
  4144  00016E  A0D8               	btfss	status,0,c
  4145  000170  D00C               	goto	l5927
  4146  000172  D7D2               	goto	l5913
  4147  000174                     l5919:
  4148                           
  4149                           ;doprnt.c: 626: prec = 0;
  4150  000174  0E00               	movlw	0
  4151  000176  0101               	movlb	1	; () banked
  4152  000178  6F13               	movwf	(sprintf@prec+1)& (0+255),b
  4153  00017A  0E00               	movlw	0
  4154  00017C  6F12               	movwf	sprintf@prec& (0+255),b
  4155                           
  4156                           ; BSR set to: 1
  4157                           ;doprnt.c: 628: flag |= 0x1000;
  4158  00017E  0101               	movlb	1	; () banked
  4159  000180  8907               	bsf	(sprintf@flag+1)& (0+255),4,b
  4160                           
  4161                           ; BSR set to: 1
  4162                           ;doprnt.c: 630: }
  4163                           ;doprnt.c: 635: switch(c = *f++) {
  4164  000182  D003               	goto	l5927
  4165  000184                     l5923:
  4166                           
  4167                           ; BSR set to: 1
  4168                           ;doprnt.c: 663: flag |= 0x400;
  4169  000184  0101               	movlb	1	; () banked
  4170  000186  8507               	bsf	(sprintf@flag+1)& (0+255),2,b
  4171                           
  4172                           ;doprnt.c: 664: break;
  4173  000188  D013               	goto	l5929
  4174  00018A                     l5927:
  4175  00018A  C0D6  FFF6         	movff	sprintf@f,tblptrl
  4176  00018E  C0D7  FFF7         	movff	sprintf@f+1,tblptrh
  4177  000192  0100               	movlb	0	; () banked
  4178  000194  4BD6               	infsnz	sprintf@f& (0+255),f,b
  4179  000196  2BD7               	incf	(sprintf@f+1)& (0+255),f,b
  4180  000198                     	if	0	;tblptru may be non-zero
  4181  000198                     	endif
  4182  000198                     	if	0	;tblptru may be non-zero
  4183  000198                     	endif
  4184  000198  0008               	tblrd		*
  4185  00019A  CFF5 F118          	movff	tablat,sprintf@c
  4186  00019E  0101               	movlb	1	; () banked
  4187  0001A0  5118               	movf	sprintf@c& (0+255),w,b
  4188                           
  4189                           ; Switch size 1, requested type "space"
  4190                           ; Number of cases is 2, Range of values is 0 to 102
  4191                           ; switch strategies available:
  4192                           ; Name         Instructions Cycles
  4193                           ; simple_byte            7     4 (average)
  4194                           ;	Chosen strategy is simple_byte
  4195  0001A2  0A00               	xorlw	0	; case 0
  4196  0001A4  B4D8               	btfsc	status,2,c
  4197  0001A6  D3B7               	goto	l6099
  4198  0001A8  0A66               	xorlw	102	; case 102
  4199  0001AA  B4D8               	btfsc	status,2,c
  4200  0001AC  D7EB               	goto	l5923
  4201  0001AE  D3A4               	goto	l6097
  4202  0001B0                     l5929:
  4203                           
  4204                           ; BSR set to: 1
  4205                           ;doprnt.c: 825: if(flag & (0x700)) {
  4206  0001B0  0E07               	movlw	7
  4207  0001B2  0101               	movlb	1	; () banked
  4208  0001B4  1507               	andwf	(sprintf@flag+1)& (0+255),w,b
  4209  0001B6  B4D8               	btfsc	status,2,c
  4210  0001B8  D347               	goto	l6077
  4211                           
  4212                           ; BSR set to: 1
  4213                           ;doprnt.c: 827: if(flag & 0x1000)
  4214  0001BA  0101               	movlb	1	; () banked
  4215  0001BC  A907               	btfss	(sprintf@flag+1)& (0+255),4,b
  4216  0001BE  D005               	goto	l5935
  4217                           
  4218                           ; BSR set to: 1
  4219                           ;doprnt.c: 829: prec = 6;
  4220  0001C0  0E00               	movlw	0
  4221  0001C2  0101               	movlb	1	; () banked
  4222  0001C4  6F13               	movwf	(sprintf@prec+1)& (0+255),b
  4223  0001C6  0E06               	movlw	6
  4224  0001C8  6F12               	movwf	sprintf@prec& (0+255),b
  4225  0001CA                     l5935:
  4226                           
  4227                           ; BSR set to: 1
  4228                           ;doprnt.c: 830: fval = (*(double *)__va_arg((*(double **)ap), (double)0));
  4229  0001CA  C104  FFD9         	movff	sprintf@ap,fsr2l
  4230  0001CE  C105  FFDA         	movff	sprintf@ap+1,fsr2h
  4231  0001D2  CFDE F114          	movff	postinc2,sprintf@fval
  4232  0001D6  CFDE F115          	movff	postinc2,sprintf@fval+1
  4233  0001DA  CFDE F116          	movff	postinc2,sprintf@fval+2
  4234  0001DE  CFDE F117          	movff	postinc2,sprintf@fval+3
  4235                           
  4236                           ; BSR set to: 1
  4237  0001E2  0E04               	movlw	4
  4238  0001E4  0101               	movlb	1	; () banked
  4239  0001E6  2704               	addwf	sprintf@ap& (0+255),f,b
  4240  0001E8  0E00               	movlw	0
  4241  0001EA  2305               	addwfc	(sprintf@ap+1)& (0+255),f,b
  4242                           
  4243                           ; BSR set to: 1
  4244                           ;doprnt.c: 831: if(fval < 0.0) {
  4245  0001EC  0101               	movlb	1	; () banked
  4246  0001EE  AF17               	btfss	(sprintf@fval+3)& (0+255),7,b
  4247  0001F0  D015               	goto	l5945
  4248                           
  4249                           ; BSR set to: 1
  4250                           ;doprnt.c: 832: fval = -fval;
  4251  0001F2  C114  F060         	movff	sprintf@fval,___flneg@f1
  4252  0001F6  C115  F061         	movff	sprintf@fval+1,___flneg@f1+1
  4253  0001FA  C116  F062         	movff	sprintf@fval+2,___flneg@f1+2
  4254  0001FE  C117  F063         	movff	sprintf@fval+3,___flneg@f1+3
  4255  000202  EC80  F021         	call	___flneg	;wreg free
  4256  000206  C060  F114         	movff	?___flneg,sprintf@fval
  4257  00020A  C061  F115         	movff	?___flneg+1,sprintf@fval+1
  4258  00020E  C062  F116         	movff	?___flneg+2,sprintf@fval+2
  4259  000212  C063  F117         	movff	?___flneg+3,sprintf@fval+3
  4260                           
  4261                           ;doprnt.c: 833: flag |= 0x03;
  4262  000216  0E03               	movlw	3
  4263  000218  0101               	movlb	1	; () banked
  4264  00021A  1306               	iorwf	sprintf@flag& (0+255),f,b
  4265  00021C                     l5945:
  4266                           
  4267                           ; BSR set to: 1
  4268                           ;doprnt.c: 834: }
  4269                           ;doprnt.c: 835: exp = 0;
  4270  00021C  0E00               	movlw	0
  4271  00021E  0101               	movlb	1	; () banked
  4272  000220  6F0D               	movwf	(sprintf@exp+1)& (0+255),b
  4273  000222  0E00               	movlw	0
  4274  000224  6F0C               	movwf	sprintf@exp& (0+255),b
  4275                           
  4276                           ; BSR set to: 1
  4277                           ;doprnt.c: 836: if( fval!=0) {
  4278  000226  0101               	movlb	1	; () banked
  4279  000228  5114               	movf	sprintf@fval& (0+255),w,b
  4280  00022A  0101               	movlb	1	; () banked
  4281  00022C  1115               	iorwf	(sprintf@fval+1)& (0+255),w,b
  4282  00022E  0101               	movlb	1	; () banked
  4283  000230  1116               	iorwf	(sprintf@fval+2)& (0+255),w,b
  4284  000232  0101               	movlb	1	; () banked
  4285  000234  1117               	iorwf	(sprintf@fval+3)& (0+255),w,b
  4286  000236  B4D8               	btfsc	status,2,c
  4287  000238  D08E               	goto	l5973
  4288                           
  4289                           ; BSR set to: 1
  4290                           ;doprnt.c: 837: (void)(*(&exp) = (unsigned char)((*(unsigned long *)&fval >> 23) & 255) 
      +                          - 126);
  4291  00023A  0101               	movlb	1	; () banked
  4292  00023C  3516               	rlcf	(sprintf@fval+2)& (0+255),w,b
  4293  00023E  3517               	rlcf	(sprintf@fval+3)& (0+255),w,b
  4294  000240  0F82               	addlw	130
  4295  000242  0101               	movlb	1	; () banked
  4296  000244  6F0C               	movwf	sprintf@exp& (0+255),b
  4297  000246  0101               	movlb	1	; () banked
  4298  000248  6B0D               	clrf	(sprintf@exp+1)& (0+255),b
  4299  00024A  0EFF               	movlw	255
  4300  00024C  230D               	addwfc	(sprintf@exp+1)& (0+255),f,b
  4301                           
  4302                           ; BSR set to: 1
  4303                           ;doprnt.c: 838: exp--;
  4304  00024E  0101               	movlb	1	; () banked
  4305  000250  070C               	decf	sprintf@exp& (0+255),f,b
  4306  000252  A0D8               	btfss	status,0,c
  4307  000254  070D               	decf	(sprintf@exp+1)& (0+255),f,b
  4308                           
  4309                           ; BSR set to: 1
  4310                           ;doprnt.c: 839: exp *= 3;
  4311  000256  C10C  F060         	movff	sprintf@exp,___wmul@multiplier
  4312  00025A  C10D  F061         	movff	sprintf@exp+1,___wmul@multiplier+1
  4313  00025E  0E00               	movlw	0
  4314  000260  0100               	movlb	0	; () banked
  4315  000262  6F63               	movwf	(___wmul@multiplicand+1)& (0+255),b
  4316  000264  0E03               	movlw	3
  4317  000266  6F62               	movwf	___wmul@multiplicand& (0+255),b
  4318  000268  ECB7  F021         	call	___wmul	;wreg free
  4319  00026C  C060  F10C         	movff	?___wmul,sprintf@exp
  4320  000270  C061  F10D         	movff	?___wmul+1,sprintf@exp+1
  4321                           
  4322                           ;doprnt.c: 840: exp /= 10;
  4323  000274  C10C  F066         	movff	sprintf@exp,___awdiv@dividend
  4324  000278  C10D  F067         	movff	sprintf@exp+1,___awdiv@dividend+1
  4325  00027C  0E00               	movlw	0
  4326  00027E  0100               	movlb	0	; () banked
  4327  000280  6F69               	movwf	(___awdiv@divisor+1)& (0+255),b
  4328  000282  0E0A               	movlw	10
  4329  000284  6F68               	movwf	___awdiv@divisor& (0+255),b
  4330  000286  ECE8  F01D         	call	___awdiv	;wreg free
  4331  00028A  C066  F10C         	movff	?___awdiv,sprintf@exp
  4332  00028E  C067  F10D         	movff	?___awdiv+1,sprintf@exp+1
  4333                           
  4334                           ;doprnt.c: 841: if(exp < 0)
  4335  000292  0101               	movlb	1	; () banked
  4336  000294  AF0D               	btfss	(sprintf@exp+1)& (0+255),7,b
  4337  000296  D004               	goto	l5961
  4338                           
  4339                           ; BSR set to: 1
  4340                           ;doprnt.c: 842: exp--;
  4341  000298  0101               	movlb	1	; () banked
  4342  00029A  070C               	decf	sprintf@exp& (0+255),f,b
  4343  00029C  A0D8               	btfss	status,0,c
  4344  00029E  070D               	decf	(sprintf@exp+1)& (0+255),f,b
  4345  0002A0                     l5961:
  4346                           
  4347                           ; BSR set to: 1
  4348                           ;doprnt.c: 846: tmpval.integ = scale(-exp);
  4349  0002A0  0101               	movlb	1	; () banked
  4350  0002A2  510C               	movf	sprintf@exp& (0+255),w,b
  4351  0002A4  0800               	sublw	0
  4352  0002A6  EC67  F007         	call	_scale
  4353  0002AA  C0C1  F10E         	movff	?_scale,sprintf@tmpval
  4354  0002AE  C0C2  F10F         	movff	?_scale+1,sprintf@tmpval+1
  4355  0002B2  C0C3  F110         	movff	?_scale+2,sprintf@tmpval+2
  4356  0002B6  C0C4  F111         	movff	?_scale+3,sprintf@tmpval+3
  4357                           
  4358                           ;doprnt.c: 847: tmpval.integ *= fval;
  4359  0002BA  C10E  F0A8         	movff	sprintf@tmpval,___flmul@b
  4360  0002BE  C10F  F0A9         	movff	sprintf@tmpval+1,___flmul@b+1
  4361  0002C2  C110  F0AA         	movff	sprintf@tmpval+2,___flmul@b+2
  4362  0002C6  C111  F0AB         	movff	sprintf@tmpval+3,___flmul@b+3
  4363  0002CA  C114  F0AC         	movff	sprintf@fval,___flmul@a
  4364  0002CE  C115  F0AD         	movff	sprintf@fval+1,___flmul@a+1
  4365  0002D2  C116  F0AE         	movff	sprintf@fval+2,___flmul@a+2
  4366  0002D6  C117  F0AF         	movff	sprintf@fval+3,___flmul@a+3
  4367  0002DA  EC79  F00E         	call	___flmul	;wreg free
  4368  0002DE  C0A8  F10E         	movff	?___flmul,sprintf@tmpval
  4369  0002E2  C0A9  F10F         	movff	?___flmul+1,sprintf@tmpval+1
  4370  0002E6  C0AA  F110         	movff	?___flmul+2,sprintf@tmpval+2
  4371  0002EA  C0AB  F111         	movff	?___flmul+3,sprintf@tmpval+3
  4372                           
  4373                           ;doprnt.c: 848: if(tmpval.integ < 1.0)
  4374  0002EE  C10E  F060         	movff	sprintf@tmpval,___flge@ff1
  4375  0002F2  C10F  F061         	movff	sprintf@tmpval+1,___flge@ff1+1
  4376  0002F6  C110  F062         	movff	sprintf@tmpval+2,___flge@ff1+2
  4377  0002FA  C111  F063         	movff	sprintf@tmpval+3,___flge@ff1+3
  4378  0002FE  0E00               	movlw	0
  4379  000300  0100               	movlb	0	; () banked
  4380  000302  6F64               	movwf	___flge@ff2& (0+255),b
  4381  000304  0E00               	movlw	0
  4382  000306  6F65               	movwf	(___flge@ff2+1)& (0+255),b
  4383  000308  0E80               	movlw	128
  4384  00030A  6F66               	movwf	(___flge@ff2+2)& (0+255),b
  4385  00030C  0E3F               	movlw	63
  4386  00030E  6F67               	movwf	(___flge@ff2+3)& (0+255),b
  4387  000310  EC94  F017         	call	___flge	;wreg free
  4388  000314  0100               	movlb	0	; () banked
  4389  000316  B0D8               	btfsc	status,0,c
  4390  000318  D005               	goto	l5969
  4391                           
  4392                           ; BSR set to: 0
  4393                           ;doprnt.c: 849: exp--;
  4394  00031A  0101               	movlb	1	; () banked
  4395  00031C  070C               	decf	sprintf@exp& (0+255),f,b
  4396  00031E  A0D8               	btfss	status,0,c
  4397  000320  070D               	decf	(sprintf@exp+1)& (0+255),f,b
  4398  000322  D019               	goto	l5973
  4399  000324                     l5969:
  4400                           
  4401                           ;doprnt.c: 850: else if(tmpval.integ >= 10.0)
  4402  000324  C10E  F060         	movff	sprintf@tmpval,___flge@ff1
  4403  000328  C10F  F061         	movff	sprintf@tmpval+1,___flge@ff1+1
  4404  00032C  C110  F062         	movff	sprintf@tmpval+2,___flge@ff1+2
  4405  000330  C111  F063         	movff	sprintf@tmpval+3,___flge@ff1+3
  4406  000334  0E00               	movlw	0
  4407  000336  0100               	movlb	0	; () banked
  4408  000338  6F64               	movwf	___flge@ff2& (0+255),b
  4409  00033A  0E00               	movlw	0
  4410  00033C  6F65               	movwf	(___flge@ff2+1)& (0+255),b
  4411  00033E  0E20               	movlw	32
  4412  000340  6F66               	movwf	(___flge@ff2+2)& (0+255),b
  4413  000342  0E41               	movlw	65
  4414  000344  6F67               	movwf	(___flge@ff2+3)& (0+255),b
  4415  000346  EC94  F017         	call	___flge	;wreg free
  4416  00034A  0100               	movlb	0	; () banked
  4417  00034C  A0D8               	btfss	status,0,c
  4418  00034E  D003               	goto	l5973
  4419                           
  4420                           ; BSR set to: 0
  4421                           ;doprnt.c: 851: exp++;
  4422  000350  0101               	movlb	1	; () banked
  4423  000352  4B0C               	infsnz	sprintf@exp& (0+255),f,b
  4424  000354  2B0D               	incf	(sprintf@exp+1)& (0+255),f,b
  4425  000356                     l5973:
  4426                           
  4427                           ;doprnt.c: 852: }
  4428                           ;doprnt.c: 1112: if(prec <= 12)
  4429  000356  0101               	movlb	1	; () banked
  4430  000358  BF13               	btfsc	(sprintf@prec+1)& (0+255),7,b
  4431  00035A  D008               	goto	l5975
  4432  00035C  0101               	movlb	1	; () banked
  4433  00035E  5113               	movf	(sprintf@prec+1)& (0+255),w,b
  4434  000360  E123               	bnz	l5977
  4435  000362  0E0D               	movlw	13
  4436  000364  0101               	movlb	1	; () banked
  4437  000366  5D12               	subwf	sprintf@prec& (0+255),w,b
  4438  000368  B0D8               	btfsc	status,0,c
  4439  00036A  D01E               	goto	l5977
  4440  00036C                     l5975:
  4441                           
  4442                           ; BSR set to: 1
  4443                           ;doprnt.c: 1113: fval += fround(prec);
  4444  00036C  C114  F094         	movff	sprintf@fval,___fladd@b
  4445  000370  C115  F095         	movff	sprintf@fval+1,___fladd@b+1
  4446  000374  C116  F096         	movff	sprintf@fval+2,___fladd@b+2
  4447  000378  C117  F097         	movff	sprintf@fval+3,___fladd@b+3
  4448  00037C  0101               	movlb	1	; () banked
  4449  00037E  5112               	movf	sprintf@prec& (0+255),w,b
  4450  000380  ECAC  F012         	call	_fround
  4451  000384  C0C1  F098         	movff	?_fround,___fladd@a
  4452  000388  C0C2  F099         	movff	?_fround+1,___fladd@a+1
  4453  00038C  C0C3  F09A         	movff	?_fround+2,___fladd@a+2
  4454  000390  C0C4  F09B         	movff	?_fround+3,___fladd@a+3
  4455  000394  EC25  F00C         	call	___fladd	;wreg free
  4456  000398  C094  F114         	movff	?___fladd,sprintf@fval
  4457  00039C  C095  F115         	movff	?___fladd+1,sprintf@fval+1
  4458  0003A0  C096  F116         	movff	?___fladd+2,sprintf@fval+2
  4459  0003A4  C097  F117         	movff	?___fladd+3,sprintf@fval+3
  4460  0003A8                     l5977:
  4461                           
  4462                           ;doprnt.c: 1116: if((exp > 9)||(fval != 0 && (unsigned long)fval == 0 && exp > 1)) {
  4463  0003A8  0101               	movlb	1	; () banked
  4464  0003AA  BF0D               	btfsc	(sprintf@exp+1)& (0+255),7,b
  4465  0003AC  D008               	goto	l5979
  4466  0003AE  0101               	movlb	1	; () banked
  4467  0003B0  510D               	movf	(sprintf@exp+1)& (0+255),w,b
  4468  0003B2  E12E               	bnz	l5985
  4469  0003B4  0E0A               	movlw	10
  4470  0003B6  0101               	movlb	1	; () banked
  4471  0003B8  5D0C               	subwf	sprintf@exp& (0+255),w,b
  4472  0003BA  B0D8               	btfsc	status,0,c
  4473  0003BC  D029               	goto	l5985
  4474  0003BE                     l5979:
  4475                           
  4476                           ; BSR set to: 1
  4477  0003BE  0101               	movlb	1	; () banked
  4478  0003C0  5114               	movf	sprintf@fval& (0+255),w,b
  4479  0003C2  0101               	movlb	1	; () banked
  4480  0003C4  1115               	iorwf	(sprintf@fval+1)& (0+255),w,b
  4481  0003C6  0101               	movlb	1	; () banked
  4482  0003C8  1116               	iorwf	(sprintf@fval+2)& (0+255),w,b
  4483  0003CA  0101               	movlb	1	; () banked
  4484  0003CC  1117               	iorwf	(sprintf@fval+3)& (0+255),w,b
  4485  0003CE  B4D8               	btfsc	status,2,c
  4486  0003D0  D06D               	goto	l5999
  4487                           
  4488                           ; BSR set to: 1
  4489  0003D2  C114  F0CA         	movff	sprintf@fval,___fltol@f1
  4490  0003D6  C115  F0CB         	movff	sprintf@fval+1,___fltol@f1+1
  4491  0003DA  C116  F0CC         	movff	sprintf@fval+2,___fltol@f1+2
  4492  0003DE  C117  F0CD         	movff	sprintf@fval+3,___fltol@f1+3
  4493  0003E2  ECAD  F01B         	call	___fltol	;wreg free
  4494  0003E6  0100               	movlb	0	; () banked
  4495  0003E8  51CA               	movf	?___fltol& (0+255),w,b
  4496  0003EA  0100               	movlb	0	; () banked
  4497  0003EC  11CB               	iorwf	(?___fltol+1)& (0+255),w,b
  4498  0003EE  0100               	movlb	0	; () banked
  4499  0003F0  11CC               	iorwf	(?___fltol+2)& (0+255),w,b
  4500  0003F2  0100               	movlb	0	; () banked
  4501  0003F4  11CD               	iorwf	(?___fltol+3)& (0+255),w,b
  4502  0003F6  A4D8               	btfss	status,2,c
  4503  0003F8  D059               	goto	l5999
  4504                           
  4505                           ; BSR set to: 0
  4506  0003FA  0101               	movlb	1	; () banked
  4507  0003FC  BF0D               	btfsc	(sprintf@exp+1)& (0+255),7,b
  4508  0003FE  D056               	goto	l5999
  4509  000400  0101               	movlb	1	; () banked
  4510  000402  510D               	movf	(sprintf@exp+1)& (0+255),w,b
  4511  000404  E105               	bnz	l5985
  4512  000406  0E02               	movlw	2
  4513  000408  0101               	movlb	1	; () banked
  4514  00040A  5D0C               	subwf	sprintf@exp& (0+255),w,b
  4515  00040C  A0D8               	btfss	status,0,c
  4516  00040E  D04E               	goto	l5999
  4517  000410                     l5985:
  4518                           
  4519                           ; BSR set to: 1
  4520                           ;doprnt.c: 1120: if(tmpval.integ < 4.294967296){
  4521  000410  C10E  F060         	movff	sprintf@tmpval,___flge@ff1
  4522  000414  C10F  F061         	movff	sprintf@tmpval+1,___flge@ff1+1
  4523  000418  C110  F062         	movff	sprintf@tmpval+2,___flge@ff1+2
  4524  00041C  C111  F063         	movff	sprintf@tmpval+3,___flge@ff1+3
  4525  000420  0E5F               	movlw	95
  4526  000422  0100               	movlb	0	; () banked
  4527  000424  6F64               	movwf	___flge@ff2& (0+255),b
  4528  000426  0E70               	movlw	112
  4529  000428  6F65               	movwf	(___flge@ff2+1)& (0+255),b
  4530  00042A  0E89               	movlw	137
  4531  00042C  6F66               	movwf	(___flge@ff2+2)& (0+255),b
  4532  00042E  0E40               	movlw	64
  4533  000430  6F67               	movwf	(___flge@ff2+3)& (0+255),b
  4534  000432  EC94  F017         	call	___flge	;wreg free
  4535  000436  0100               	movlb	0	; () banked
  4536  000438  B0D8               	btfsc	status,0,c
  4537  00043A  D003               	goto	l5989
  4538                           
  4539                           ; BSR set to: 0
  4540                           ;doprnt.c: 1121: exp -= (sizeof dpowers/sizeof dpowers[0])-1;
  4541  00043C  0101               	movlb	1	; () banked
  4542  00043E  0EF7               	movlw	247
  4543  000440  D002               	goto	L2
  4544  000442                     l5989:
  4545                           
  4546                           ;doprnt.c: 1123: exp -= (sizeof dpowers/sizeof dpowers[0])-2;
  4547  000442  0101               	movlb	1	; () banked
  4548  000444  0EF8               	movlw	248
  4549  000446                     L2:
  4550  000446  270C               	addwf	sprintf@exp& (0+255),f,b
  4551  000448  0EFF               	movlw	255
  4552  00044A  230D               	addwfc	(sprintf@exp+1)& (0+255),f,b
  4553                           
  4554                           ; BSR set to: 1
  4555                           ;doprnt.c: 1126: val = ((sizeof(double)== 3) ? _tdiv_to_l_(fval,tmpval.integ) : _div_to_
      +                          l_(fval,tmpval.integ));
  4556                           
  4557                           ; BSR set to: 1
  4558  00044C  0101               	movlb	1	; () banked
  4559  00044E  510C               	movf	sprintf@exp& (0+255),w,b
  4560  000450  EC67  F007         	call	_scale
  4561  000454  C0C1  F10E         	movff	?_scale,sprintf@tmpval
  4562  000458  C0C2  F10F         	movff	?_scale+1,sprintf@tmpval+1
  4563  00045C  C0C3  F110         	movff	?_scale+2,sprintf@tmpval+2
  4564  000460  C0C4  F111         	movff	?_scale+3,sprintf@tmpval+3
  4565  000464  C114  F060         	movff	sprintf@fval,__div_to_l_@f1
  4566  000468  C115  F061         	movff	sprintf@fval+1,__div_to_l_@f1+1
  4567  00046C  C116  F062         	movff	sprintf@fval+2,__div_to_l_@f1+2
  4568  000470  C117  F063         	movff	sprintf@fval+3,__div_to_l_@f1+3
  4569  000474  C10E  F064         	movff	sprintf@tmpval,__div_to_l_@f2
  4570  000478  C10F  F065         	movff	sprintf@tmpval+1,__div_to_l_@f2+1
  4571  00047C  C110  F066         	movff	sprintf@tmpval+2,__div_to_l_@f2+2
  4572  000480  C111  F067         	movff	sprintf@tmpval+3,__div_to_l_@f2+3
  4573  000484  EC5C  F018         	call	__div_to_l_	;wreg free
  4574  000488  C060  F108         	movff	?__div_to_l_,sprintf@val
  4575  00048C  C061  F109         	movff	?__div_to_l_+1,sprintf@val+1
  4576  000490  C062  F10A         	movff	?__div_to_l_+2,sprintf@val+2
  4577  000494  C063  F10B         	movff	?__div_to_l_+3,sprintf@val+3
  4578                           
  4579                           ;doprnt.c: 1129: fval = 0.0;
  4580  000498  0E00               	movlw	0
  4581  00049A  0101               	movlb	1	; () banked
  4582  00049C  6F14               	movwf	sprintf@fval& (0+255),b
  4583  00049E  0E00               	movlw	0
  4584  0004A0  6F15               	movwf	(sprintf@fval+1)& (0+255),b
  4585  0004A2  0E00               	movlw	0
  4586  0004A4  6F16               	movwf	(sprintf@fval+2)& (0+255),b
  4587  0004A6  0E00               	movlw	0
  4588  0004A8  6F17               	movwf	(sprintf@fval+3)& (0+255),b
  4589                           
  4590                           ;doprnt.c: 1130: } else {
  4591  0004AA  D03C               	goto	l6003
  4592  0004AC                     l5999:
  4593                           
  4594                           ;doprnt.c: 1131: val = (unsigned long)fval;
  4595  0004AC  C114  F0CA         	movff	sprintf@fval,___fltol@f1
  4596  0004B0  C115  F0CB         	movff	sprintf@fval+1,___fltol@f1+1
  4597  0004B4  C116  F0CC         	movff	sprintf@fval+2,___fltol@f1+2
  4598  0004B8  C117  F0CD         	movff	sprintf@fval+3,___fltol@f1+3
  4599  0004BC  ECAD  F01B         	call	___fltol	;wreg free
  4600  0004C0  C0CA  F108         	movff	?___fltol,sprintf@val
  4601  0004C4  C0CB  F109         	movff	?___fltol+1,sprintf@val+1
  4602  0004C8  C0CC  F10A         	movff	?___fltol+2,sprintf@val+2
  4603  0004CC  C0CD  F10B         	movff	?___fltol+3,sprintf@val+3
  4604                           
  4605                           ;doprnt.c: 1132: fval -= (double)val;
  4606  0004D0  C114  F0A8         	movff	sprintf@fval,___flsub@b
  4607  0004D4  C115  F0A9         	movff	sprintf@fval+1,___flsub@b+1
  4608  0004D8  C116  F0AA         	movff	sprintf@fval+2,___flsub@b+2
  4609  0004DC  C117  F0AB         	movff	sprintf@fval+3,___flsub@b+3
  4610  0004E0  C108  F06D         	movff	sprintf@val,___xxtofl@val
  4611  0004E4  C109  F06E         	movff	sprintf@val+1,___xxtofl@val+1
  4612  0004E8  C10A  F06F         	movff	sprintf@val+2,___xxtofl@val+2
  4613  0004EC  C10B  F070         	movff	sprintf@val+3,___xxtofl@val+3
  4614  0004F0  0E00               	movlw	0
  4615  0004F2  ECFE  F014         	call	___xxtofl
  4616  0004F6  C06D  F0AC         	movff	?___xxtofl,___flsub@a
  4617  0004FA  C06E  F0AD         	movff	?___xxtofl+1,___flsub@a+1
  4618  0004FE  C06F  F0AE         	movff	?___xxtofl+2,___flsub@a+2
  4619  000502  C070  F0AF         	movff	?___xxtofl+3,___flsub@a+3
  4620  000506  EC3F  F021         	call	___flsub	;wreg free
  4621  00050A  C0A8  F114         	movff	?___flsub,sprintf@fval
  4622  00050E  C0A9  F115         	movff	?___flsub+1,sprintf@fval+1
  4623  000512  C0AA  F116         	movff	?___flsub+2,sprintf@fval+2
  4624  000516  C0AB  F117         	movff	?___flsub+3,sprintf@fval+3
  4625                           
  4626                           ;doprnt.c: 1133: exp = 0;
  4627  00051A  0E00               	movlw	0
  4628  00051C  0101               	movlb	1	; () banked
  4629  00051E  6F0D               	movwf	(sprintf@exp+1)& (0+255),b
  4630  000520  0E00               	movlw	0
  4631  000522  6F0C               	movwf	sprintf@exp& (0+255),b
  4632  000524                     l6003:
  4633                           
  4634                           ; BSR set to: 1
  4635                           ;doprnt.c: 1134: }
  4636                           ;doprnt.c: 1136: for(c = 1 ; c != (sizeof dpowers/sizeof dpowers[0]) ; c++)
  4637  000524  0E01               	movlw	1
  4638  000526  0101               	movlb	1	; () banked
  4639  000528  6F18               	movwf	sprintf@c& (0+255),b
  4640  00052A                     l6005:
  4641                           
  4642                           ; BSR set to: 1
  4643  00052A  0E0A               	movlw	10
  4644  00052C  0101               	movlb	1	; () banked
  4645  00052E  1918               	xorwf	sprintf@c& (0+255),w,b
  4646  000530  B4D8               	btfsc	status,2,c
  4647  000532  D01E               	goto	l6017
  4648                           
  4649                           ; BSR set to: 1
  4650                           ;doprnt.c: 1137: if(val < dpowers[c])
  4651                           
  4652                           ; BSR set to: 1
  4653                           
  4654                           ; BSR set to: 1
  4655  000534  0101               	movlb	1	; () banked
  4656  000536  5118               	movf	sprintf@c& (0+255),w,b
  4657  000538  0D04               	mullw	4
  4658  00053A  0E81               	movlw	low _dpowers
  4659  00053C  24F3               	addwf	prodl,w,c
  4660  00053E  6EF6               	movwf	tblptrl,c
  4661  000540  0E7E               	movlw	high _dpowers
  4662  000542  20F4               	addwfc	prodh,w,c
  4663  000544  6EF7               	movwf	tblptrh,c
  4664  000546                     	if	0	;There are less than 3 active tblptr bytes
  4665  000546                     	endif
  4666  000546  0009               	tblrd		*+
  4667  000548  50F5               	movf	tablat,w,c
  4668  00054A  0101               	movlb	1	; () banked
  4669  00054C  5D08               	subwf	sprintf@val& (0+255),w,b
  4670  00054E  0009               	tblrd		*+
  4671  000550  50F5               	movf	tablat,w,c
  4672  000552  0101               	movlb	1	; () banked
  4673  000554  5909               	subwfb	(sprintf@val+1)& (0+255),w,b
  4674  000556  0009               	tblrd		*+
  4675  000558  50F5               	movf	tablat,w,c
  4676  00055A  0101               	movlb	1	; () banked
  4677  00055C  590A               	subwfb	(sprintf@val+2)& (0+255),w,b
  4678  00055E  0009               	tblrd		*+
  4679  000560  50F5               	movf	tablat,w,c
  4680  000562  0101               	movlb	1	; () banked
  4681  000564  590B               	subwfb	(sprintf@val+3)& (0+255),w,b
  4682  000566  A0D8               	btfss	status,0,c
  4683  000568  D003               	goto	l6017
  4684                           
  4685                           ; BSR set to: 1
  4686                           
  4687                           ; BSR set to: 1
  4688                           
  4689                           ; BSR set to: 1
  4690                           ;doprnt.c: 1138: break;
  4691  00056A  0101               	movlb	1	; () banked
  4692  00056C  2B18               	incf	sprintf@c& (0+255),f,b
  4693  00056E  D7DD               	goto	l6005
  4694  000570                     l6017:
  4695                           
  4696                           ; BSR set to: 1
  4697                           ;doprnt.c: 1175: {
  4698                           ;doprnt.c: 1188: if(flag & 0x03)
  4699  000570  0E03               	movlw	3
  4700  000572  0101               	movlb	1	; () banked
  4701  000574  1506               	andwf	sprintf@flag& (0+255),w,b
  4702  000576  0100               	movlb	0	; () banked
  4703  000578  6FDC               	movwf	??_sprintf& (0+255),b
  4704  00057A  0E00               	movlw	0
  4705  00057C  0101               	movlb	1	; () banked
  4706  00057E  1507               	andwf	(sprintf@flag+1)& (0+255),w,b
  4707  000580  0100               	movlb	0	; () banked
  4708  000582  6FDD               	movwf	(??_sprintf+1)& (0+255),b
  4709  000584  0100               	movlb	0	; () banked
  4710  000586  51DC               	movf	??_sprintf& (0+255),w,b
  4711  000588  0100               	movlb	0	; () banked
  4712  00058A  11DD               	iorwf	(??_sprintf+1)& (0+255),w,b
  4713  00058C  B4D8               	btfsc	status,2,c
  4714  00058E  D055               	goto	l6031
  4715                           
  4716                           ; BSR set to: 0
  4717                           ;doprnt.c: 1190: ((*sp++ = ('-')));
  4718  000590  C0D4  FFD9         	movff	sprintf@sp,fsr2l
  4719  000594  C0D5  FFDA         	movff	sprintf@sp+1,fsr2h
  4720  000598  0E2D               	movlw	45
  4721  00059A  D04D               	goto	L3
  4722  00059C                     l6021:
  4723                           
  4724                           ; BSR set to: 0
  4725  00059C  0100               	movlb	0	; () banked
  4726  00059E  4BD4               	infsnz	sprintf@sp& (0+255),f,b
  4727  0005A0  2BD5               	incf	(sprintf@sp+1)& (0+255),f,b
  4728                           
  4729                           ; BSR set to: 0
  4730                           ;doprnt.c: 1195: }
  4731                           ;doprnt.c: 1196: while(c--) {
  4732  0005A2  D04B               	goto	l6031
  4733  0005A4                     l6023:
  4734                           
  4735                           ;doprnt.c: 1200: {
  4736                           ;doprnt.c: 1201: tmpval.vd = val/dpowers[c];
  4737  0005A4  C108  F060         	movff	sprintf@val,___lldiv@dividend
  4738  0005A8  C109  F061         	movff	sprintf@val+1,___lldiv@dividend+1
  4739  0005AC  C10A  F062         	movff	sprintf@val+2,___lldiv@dividend+2
  4740  0005B0  C10B  F063         	movff	sprintf@val+3,___lldiv@dividend+3
  4741  0005B4  0101               	movlb	1	; () banked
  4742  0005B6  5118               	movf	sprintf@c& (0+255),w,b
  4743  0005B8  0D04               	mullw	4
  4744  0005BA  0E81               	movlw	low _dpowers
  4745  0005BC  24F3               	addwf	prodl,w,c
  4746  0005BE  6EF6               	movwf	tblptrl,c
  4747  0005C0  0E7E               	movlw	high _dpowers
  4748  0005C2  20F4               	addwfc	prodh,w,c
  4749  0005C4  6EF7               	movwf	tblptrh,c
  4750  0005C6                     	if	0	;There are less than 3 active tblptr bytes
  4751  0005C6                     	endif
  4752  0005C6  0009               	tblrd		*+
  4753  0005C8  CFF5 F064          	movff	tablat,___lldiv@divisor
  4754  0005CC  0009               	tblrd		*+
  4755  0005CE  CFF5 F065          	movff	tablat,___lldiv@divisor+1
  4756  0005D2  0009               	tblrd		*+
  4757  0005D4  CFF5 F066          	movff	tablat,___lldiv@divisor+2
  4758  0005D8  000A               	tblrd		*-
  4759  0005DA  CFF5 F067          	movff	tablat,___lldiv@divisor+3
  4760  0005DE  EC47  F01E         	call	___lldiv	;wreg free
  4761  0005E2  C060  F10E         	movff	?___lldiv,sprintf@tmpval
  4762  0005E6  C061  F10F         	movff	?___lldiv+1,sprintf@tmpval+1
  4763  0005EA  C062  F110         	movff	?___lldiv+2,sprintf@tmpval+2
  4764  0005EE  C063  F111         	movff	?___lldiv+3,sprintf@tmpval+3
  4765                           
  4766                           ;doprnt.c: 1202: tmpval.vd %= 10;
  4767  0005F2  C10E  F060         	movff	sprintf@tmpval,___llmod@dividend
  4768  0005F6  C10F  F061         	movff	sprintf@tmpval+1,___llmod@dividend+1
  4769  0005FA  C110  F062         	movff	sprintf@tmpval+2,___llmod@dividend+2
  4770  0005FE  C111  F063         	movff	sprintf@tmpval+3,___llmod@dividend+3
  4771  000602  0E0A               	movlw	10
  4772  000604  0100               	movlb	0	; () banked
  4773  000606  6F64               	movwf	___llmod@divisor& (0+255),b
  4774  000608  0E00               	movlw	0
  4775  00060A  6F65               	movwf	(___llmod@divisor+1)& (0+255),b
  4776  00060C  0E00               	movlw	0
  4777  00060E  6F66               	movwf	(___llmod@divisor+2)& (0+255),b
  4778  000610  0E00               	movlw	0
  4779  000612  6F67               	movwf	(___llmod@divisor+3)& (0+255),b
  4780  000614  EC9C  F01F         	call	___llmod	;wreg free
  4781  000618  C060  F10E         	movff	?___llmod,sprintf@tmpval
  4782  00061C  C061  F10F         	movff	?___llmod+1,sprintf@tmpval+1
  4783  000620  C062  F110         	movff	?___llmod+2,sprintf@tmpval+2
  4784  000624  C063  F111         	movff	?___llmod+3,sprintf@tmpval+3
  4785                           
  4786                           ;doprnt.c: 1203: ((*sp++ = ('0' + tmpval.vd)));
  4787  000628  0101               	movlb	1	; () banked
  4788  00062A  510E               	movf	sprintf@tmpval& (0+255),w,b
  4789  00062C  0F30               	addlw	48
  4790  00062E  C0D4  FFD9         	movff	sprintf@sp,fsr2l
  4791  000632  C0D5  FFDA         	movff	sprintf@sp+1,fsr2h
  4792  000636                     L3:
  4793  000636  6EDF               	movwf	indf2,c
  4794  000638  D7B1               	goto	l6021
  4795  00063A                     l6031:
  4796                           
  4797                           ; BSR set to: 0
  4798  00063A  0101               	movlb	1	; () banked
  4799  00063C  0718               	decf	sprintf@c& (0+255),f,b
  4800  00063E  0101               	movlb	1	; () banked
  4801  000640  2918               	incf	sprintf@c& (0+255),w,b
  4802  000642  B4D8               	btfsc	status,2,c
  4803  000644  D00E               	goto	l6039
  4804  000646  D7AE               	goto	l6023
  4805  000648                     l6033:
  4806                           
  4807                           ; BSR set to: 1
  4808                           ;doprnt.c: 1208: ((*sp++ = ('0')));
  4809  000648  C0D4  FFD9         	movff	sprintf@sp,fsr2l
  4810  00064C  C0D5  FFDA         	movff	sprintf@sp+1,fsr2h
  4811  000650  0E30               	movlw	48
  4812  000652  6EDF               	movwf	indf2,c
  4813                           
  4814                           ; BSR set to: 1
  4815  000654  0100               	movlb	0	; () banked
  4816  000656  4BD4               	infsnz	sprintf@sp& (0+255),f,b
  4817  000658  2BD5               	incf	(sprintf@sp+1)& (0+255),f,b
  4818                           
  4819                           ; BSR set to: 0
  4820                           ;doprnt.c: 1209: exp--;
  4821  00065A  0101               	movlb	1	; () banked
  4822  00065C  070C               	decf	sprintf@exp& (0+255),f,b
  4823  00065E  A0D8               	btfss	status,0,c
  4824  000660  070D               	decf	(sprintf@exp+1)& (0+255),f,b
  4825  000662                     l6039:
  4826                           
  4827                           ; BSR set to: 1
  4828  000662  0101               	movlb	1	; () banked
  4829  000664  BF0D               	btfsc	(sprintf@exp+1)& (0+255),7,b
  4830  000666  D007               	goto	l6041
  4831  000668  0101               	movlb	1	; () banked
  4832  00066A  510D               	movf	(sprintf@exp+1)& (0+255),w,b
  4833  00066C  E1ED               	bnz	l6033
  4834  00066E  0101               	movlb	1	; () banked
  4835  000670  050C               	decf	sprintf@exp& (0+255),w,b
  4836  000672  B0D8               	btfsc	status,0,c
  4837  000674  D7E9               	goto	l6033
  4838  000676                     l6041:
  4839                           
  4840                           ; BSR set to: 1
  4841                           ;doprnt.c: 1210: }
  4842                           ;doprnt.c: 1211: if(prec > (int)((sizeof dpowers/sizeof dpowers[0])-2))
  4843  000676  0101               	movlb	1	; () banked
  4844  000678  BF13               	btfsc	(sprintf@prec+1)& (0+255),7,b
  4845  00067A  D00C               	goto	l371
  4846  00067C  0101               	movlb	1	; () banked
  4847  00067E  5113               	movf	(sprintf@prec+1)& (0+255),w,b
  4848  000680  E105               	bnz	u6830
  4849  000682  0E09               	movlw	9
  4850  000684  0101               	movlb	1	; () banked
  4851  000686  5D12               	subwf	sprintf@prec& (0+255),w,b
  4852  000688  A0D8               	btfss	status,0,c
  4853  00068A  D004               	goto	l371
  4854  00068C                     u6830:
  4855                           
  4856                           ; BSR set to: 1
  4857                           ;doprnt.c: 1212: c = (sizeof dpowers/sizeof dpowers[0])-2;
  4858  00068C  0E08               	movlw	8
  4859  00068E  0101               	movlb	1	; () banked
  4860  000690  6F18               	movwf	sprintf@c& (0+255),b
  4861  000692  D002               	goto	l6045
  4862  000694                     l371:
  4863                           
  4864                           ; BSR set to: 1
  4865                           ;doprnt.c: 1213: else
  4866                           ;doprnt.c: 1214: c = prec;
  4867  000694  C112  F118         	movff	sprintf@prec,sprintf@c
  4868  000698                     l6045:
  4869                           
  4870                           ; BSR set to: 1
  4871                           ;doprnt.c: 1215: prec -= c;
  4872  000698  0101               	movlb	1	; () banked
  4873  00069A  5118               	movf	sprintf@c& (0+255),w,b
  4874  00069C  0101               	movlb	1	; () banked
  4875  00069E  5F12               	subwf	sprintf@prec& (0+255),f,b
  4876  0006A0  0E00               	movlw	0
  4877  0006A2  0101               	movlb	1	; () banked
  4878  0006A4  BF18               	btfsc	sprintf@c& (0+255),7,b
  4879  0006A6  0EFF               	movlw	255
  4880  0006A8  0101               	movlb	1	; () banked
  4881  0006AA  5B13               	subwfb	(sprintf@prec+1)& (0+255),f,b
  4882                           
  4883                           ; BSR set to: 1
  4884                           ;doprnt.c: 1219: if(c)
  4885  0006AC  0101               	movlb	1	; () banked
  4886  0006AE  5118               	movf	sprintf@c& (0+255),w,b
  4887  0006B0  0101               	movlb	1	; () banked
  4888  0006B2  B4D8               	btfsc	status,2,c
  4889  0006B4  D009               	goto	l6053
  4890                           
  4891                           ; BSR set to: 1
  4892                           ;doprnt.c: 1221: ((*sp++ = ('.')));
  4893  0006B6  C0D4  FFD9         	movff	sprintf@sp,fsr2l
  4894  0006BA  C0D5  FFDA         	movff	sprintf@sp+1,fsr2h
  4895  0006BE  0E2E               	movlw	46
  4896  0006C0  6EDF               	movwf	indf2,c
  4897                           
  4898                           ; BSR set to: 1
  4899  0006C2  0100               	movlb	0	; () banked
  4900  0006C4  4BD4               	infsnz	sprintf@sp& (0+255),f,b
  4901  0006C6  2BD5               	incf	(sprintf@sp+1)& (0+255),f,b
  4902  0006C8                     l6053:
  4903                           
  4904                           ;doprnt.c: 1227: val = (long)(fval * scale(c));
  4905  0006C8  0101               	movlb	1	; () banked
  4906  0006CA  5118               	movf	sprintf@c& (0+255),w,b
  4907  0006CC  EC67  F007         	call	_scale
  4908  0006D0  C0C1  F100         	movff	?_scale,_sprintf$1519
  4909  0006D4  C0C2  F101         	movff	?_scale+1,_sprintf$1519+1
  4910  0006D8  C0C3  F102         	movff	?_scale+2,_sprintf$1519+2
  4911  0006DC  C0C4  F103         	movff	?_scale+3,_sprintf$1519+3
  4912                           
  4913                           ;doprnt.c: 1227: val = (long)(fval * scale(c));
  4914  0006E0  C114  F0AC         	movff	sprintf@fval,___flmul@a
  4915  0006E4  C115  F0AD         	movff	sprintf@fval+1,___flmul@a+1
  4916  0006E8  C116  F0AE         	movff	sprintf@fval+2,___flmul@a+2
  4917  0006EC  C117  F0AF         	movff	sprintf@fval+3,___flmul@a+3
  4918  0006F0  C100  F0A8         	movff	_sprintf$1519,___flmul@b
  4919  0006F4  C101  F0A9         	movff	_sprintf$1519+1,___flmul@b+1
  4920  0006F8  C102  F0AA         	movff	_sprintf$1519+2,___flmul@b+2
  4921  0006FC  C103  F0AB         	movff	_sprintf$1519+3,___flmul@b+3
  4922  000700  EC79  F00E         	call	___flmul	;wreg free
  4923  000704  C0A8  F0CA         	movff	?___flmul,___fltol@f1
  4924  000708  C0A9  F0CB         	movff	?___flmul+1,___fltol@f1+1
  4925  00070C  C0AA  F0CC         	movff	?___flmul+2,___fltol@f1+2
  4926  000710  C0AB  F0CD         	movff	?___flmul+3,___fltol@f1+3
  4927  000714  ECAD  F01B         	call	___fltol	;wreg free
  4928  000718  C0CA  F108         	movff	?___fltol,sprintf@val
  4929  00071C  C0CB  F109         	movff	?___fltol+1,sprintf@val+1
  4930  000720  C0CC  F10A         	movff	?___fltol+2,sprintf@val+2
  4931  000724  C0CD  F10B         	movff	?___fltol+3,sprintf@val+3
  4932                           
  4933                           ;doprnt.c: 1228: while(c--) {
  4934  000728  D074               	goto	l6067
  4935  00072A                     l6057:
  4936                           
  4937                           ;doprnt.c: 1229: tmpval.vd = val/dpowers[c];
  4938  00072A  C108  F060         	movff	sprintf@val,___lldiv@dividend
  4939  00072E  C109  F061         	movff	sprintf@val+1,___lldiv@dividend+1
  4940  000732  C10A  F062         	movff	sprintf@val+2,___lldiv@dividend+2
  4941  000736  C10B  F063         	movff	sprintf@val+3,___lldiv@dividend+3
  4942  00073A  0101               	movlb	1	; () banked
  4943  00073C  5118               	movf	sprintf@c& (0+255),w,b
  4944  00073E  0D04               	mullw	4
  4945  000740  0E81               	movlw	low _dpowers
  4946  000742  24F3               	addwf	prodl,w,c
  4947  000744  6EF6               	movwf	tblptrl,c
  4948  000746  0E7E               	movlw	high _dpowers
  4949  000748  20F4               	addwfc	prodh,w,c
  4950  00074A  6EF7               	movwf	tblptrh,c
  4951  00074C                     	if	0	;There are less than 3 active tblptr bytes
  4952  00074C                     	endif
  4953  00074C  0009               	tblrd		*+
  4954  00074E  CFF5 F064          	movff	tablat,___lldiv@divisor
  4955  000752  0009               	tblrd		*+
  4956  000754  CFF5 F065          	movff	tablat,___lldiv@divisor+1
  4957  000758  0009               	tblrd		*+
  4958  00075A  CFF5 F066          	movff	tablat,___lldiv@divisor+2
  4959  00075E  000A               	tblrd		*-
  4960  000760  CFF5 F067          	movff	tablat,___lldiv@divisor+3
  4961  000764  EC47  F01E         	call	___lldiv	;wreg free
  4962  000768  C060  F10E         	movff	?___lldiv,sprintf@tmpval
  4963  00076C  C061  F10F         	movff	?___lldiv+1,sprintf@tmpval+1
  4964  000770  C062  F110         	movff	?___lldiv+2,sprintf@tmpval+2
  4965  000774  C063  F111         	movff	?___lldiv+3,sprintf@tmpval+3
  4966                           
  4967                           ;doprnt.c: 1230: tmpval.vd %= 10;
  4968  000778  C10E  F060         	movff	sprintf@tmpval,___llmod@dividend
  4969  00077C  C10F  F061         	movff	sprintf@tmpval+1,___llmod@dividend+1
  4970  000780  C110  F062         	movff	sprintf@tmpval+2,___llmod@dividend+2
  4971  000784  C111  F063         	movff	sprintf@tmpval+3,___llmod@dividend+3
  4972  000788  0E0A               	movlw	10
  4973  00078A  0100               	movlb	0	; () banked
  4974  00078C  6F64               	movwf	___llmod@divisor& (0+255),b
  4975  00078E  0E00               	movlw	0
  4976  000790  6F65               	movwf	(___llmod@divisor+1)& (0+255),b
  4977  000792  0E00               	movlw	0
  4978  000794  6F66               	movwf	(___llmod@divisor+2)& (0+255),b
  4979  000796  0E00               	movlw	0
  4980  000798  6F67               	movwf	(___llmod@divisor+3)& (0+255),b
  4981  00079A  EC9C  F01F         	call	___llmod	;wreg free
  4982  00079E  C060  F10E         	movff	?___llmod,sprintf@tmpval
  4983  0007A2  C061  F10F         	movff	?___llmod+1,sprintf@tmpval+1
  4984  0007A6  C062  F110         	movff	?___llmod+2,sprintf@tmpval+2
  4985  0007AA  C063  F111         	movff	?___llmod+3,sprintf@tmpval+3
  4986                           
  4987                           ;doprnt.c: 1231: ((*sp++ = ('0' + tmpval.vd)));
  4988  0007AE  0101               	movlb	1	; () banked
  4989  0007B0  510E               	movf	sprintf@tmpval& (0+255),w,b
  4990  0007B2  0F30               	addlw	48
  4991  0007B4  C0D4  FFD9         	movff	sprintf@sp,fsr2l
  4992  0007B8  C0D5  FFDA         	movff	sprintf@sp+1,fsr2h
  4993  0007BC  6EDF               	movwf	indf2,c
  4994                           
  4995                           ; BSR set to: 1
  4996  0007BE  0100               	movlb	0	; () banked
  4997  0007C0  4BD4               	infsnz	sprintf@sp& (0+255),f,b
  4998  0007C2  2BD5               	incf	(sprintf@sp+1)& (0+255),f,b
  4999                           
  5000                           ; BSR set to: 0
  5001                           ;doprnt.c: 1232: val %= dpowers[c];
  5002  0007C4  C108  F060         	movff	sprintf@val,___llmod@dividend
  5003  0007C8  C109  F061         	movff	sprintf@val+1,___llmod@dividend+1
  5004  0007CC  C10A  F062         	movff	sprintf@val+2,___llmod@dividend+2
  5005  0007D0  C10B  F063         	movff	sprintf@val+3,___llmod@dividend+3
  5006  0007D4  0101               	movlb	1	; () banked
  5007  0007D6  5118               	movf	sprintf@c& (0+255),w,b
  5008  0007D8  0D04               	mullw	4
  5009  0007DA  0E81               	movlw	low _dpowers
  5010  0007DC  24F3               	addwf	prodl,w,c
  5011  0007DE  6EF6               	movwf	tblptrl,c
  5012  0007E0  0E7E               	movlw	high _dpowers
  5013  0007E2  20F4               	addwfc	prodh,w,c
  5014  0007E4  6EF7               	movwf	tblptrh,c
  5015  0007E6                     	if	0	;There are less than 3 active tblptr bytes
  5016  0007E6                     	endif
  5017  0007E6  0009               	tblrd		*+
  5018  0007E8  CFF5 F064          	movff	tablat,___llmod@divisor
  5019  0007EC  0009               	tblrd		*+
  5020  0007EE  CFF5 F065          	movff	tablat,___llmod@divisor+1
  5021  0007F2  0009               	tblrd		*+
  5022  0007F4  CFF5 F066          	movff	tablat,___llmod@divisor+2
  5023  0007F8  000A               	tblrd		*-
  5024  0007FA  CFF5 F067          	movff	tablat,___llmod@divisor+3
  5025  0007FE  EC9C  F01F         	call	___llmod	;wreg free
  5026  000802  C060  F108         	movff	?___llmod,sprintf@val
  5027  000806  C061  F109         	movff	?___llmod+1,sprintf@val+1
  5028  00080A  C062  F10A         	movff	?___llmod+2,sprintf@val+2
  5029  00080E  C063  F10B         	movff	?___llmod+3,sprintf@val+3
  5030  000812                     l6067:
  5031  000812  0101               	movlb	1	; () banked
  5032  000814  0718               	decf	sprintf@c& (0+255),f,b
  5033  000816  0101               	movlb	1	; () banked
  5034  000818  2918               	incf	sprintf@c& (0+255),w,b
  5035  00081A  B4D8               	btfsc	status,2,c
  5036  00081C  D00E               	goto	l6075
  5037  00081E  D785               	goto	l6057
  5038  000820                     l6069:
  5039                           
  5040                           ; BSR set to: 1
  5041                           ;doprnt.c: 1236: ((*sp++ = ('0')));
  5042  000820  C0D4  FFD9         	movff	sprintf@sp,fsr2l
  5043  000824  C0D5  FFDA         	movff	sprintf@sp+1,fsr2h
  5044  000828  0E30               	movlw	48
  5045  00082A  6EDF               	movwf	indf2,c
  5046                           
  5047                           ; BSR set to: 1
  5048  00082C  0100               	movlb	0	; () banked
  5049  00082E  4BD4               	infsnz	sprintf@sp& (0+255),f,b
  5050  000830  2BD5               	incf	(sprintf@sp+1)& (0+255),f,b
  5051                           
  5052                           ; BSR set to: 0
  5053                           ;doprnt.c: 1237: prec--;
  5054  000832  0101               	movlb	1	; () banked
  5055  000834  0712               	decf	sprintf@prec& (0+255),f,b
  5056  000836  A0D8               	btfss	status,0,c
  5057  000838  0713               	decf	(sprintf@prec+1)& (0+255),f,b
  5058  00083A                     l6075:
  5059                           
  5060                           ; BSR set to: 1
  5061  00083A  0101               	movlb	1	; () banked
  5062  00083C  5112               	movf	sprintf@prec& (0+255),w,b
  5063  00083E  0101               	movlb	1	; () banked
  5064  000840  1113               	iorwf	(sprintf@prec+1)& (0+255),w,b
  5065  000842  B4D8               	btfsc	status,2,c
  5066  000844  D059               	goto	l6097
  5067  000846  D7EC               	goto	l6069
  5068  000848                     l6077:
  5069                           
  5070                           ; BSR set to: 1
  5071                           ;doprnt.c: 1246: }
  5072                           ;doprnt.c: 1290: if(prec == 0 && val == 0)
  5073  000848  0101               	movlb	1	; () banked
  5074  00084A  5112               	movf	sprintf@prec& (0+255),w,b
  5075  00084C  0101               	movlb	1	; () banked
  5076  00084E  1113               	iorwf	(sprintf@prec+1)& (0+255),w,b
  5077  000850  A4D8               	btfss	status,2,c
  5078  000852  D00D               	goto	l6083
  5079                           
  5080                           ; BSR set to: 1
  5081  000854  0101               	movlb	1	; () banked
  5082  000856  5108               	movf	sprintf@val& (0+255),w,b
  5083  000858  0101               	movlb	1	; () banked
  5084  00085A  1109               	iorwf	(sprintf@val+1)& (0+255),w,b
  5085  00085C  0101               	movlb	1	; () banked
  5086  00085E  110A               	iorwf	(sprintf@val+2)& (0+255),w,b
  5087  000860  0101               	movlb	1	; () banked
  5088  000862  110B               	iorwf	(sprintf@val+3)& (0+255),w,b
  5089  000864  A4D8               	btfss	status,2,c
  5090  000866  D003               	goto	l6083
  5091                           
  5092                           ; BSR set to: 1
  5093                           ;doprnt.c: 1291: prec++;
  5094  000868  0101               	movlb	1	; () banked
  5095  00086A  4B12               	infsnz	sprintf@prec& (0+255),f,b
  5096  00086C  2B13               	incf	(sprintf@prec+1)& (0+255),f,b
  5097  00086E                     l6083:
  5098                           
  5099                           ; BSR set to: 1
  5100                           ;doprnt.c: 1339: if(c < prec)
  5101  00086E  0E80               	movlw	128
  5102  000870  0101               	movlb	1	; () banked
  5103  000872  BF18               	btfsc	sprintf@c& (0+255),7,b
  5104  000874  0E7F               	movlw	127
  5105  000876  0100               	movlb	0	; () banked
  5106  000878  6FDC               	movwf	??_sprintf& (0+255),b
  5107  00087A  0101               	movlb	1	; () banked
  5108  00087C  5112               	movf	sprintf@prec& (0+255),w,b
  5109  00087E  0101               	movlb	1	; () banked
  5110  000880  5D18               	subwf	sprintf@c& (0+255),w,b
  5111  000882  0101               	movlb	1	; () banked
  5112  000884  5113               	movf	(sprintf@prec+1)& (0+255),w,b
  5113  000886  0A80               	xorlw	128
  5114  000888  0100               	movlb	0	; () banked
  5115  00088A  59DC               	subwfb	??_sprintf& (0+255),w,b
  5116  00088C  B0D8               	btfsc	status,0,c
  5117  00088E  D003               	goto	l6087
  5118                           
  5119                           ; BSR set to: 0
  5120                           ;doprnt.c: 1340: c = prec;
  5121  000890  C112  F118         	movff	sprintf@prec,sprintf@c
  5122  000894  D018               	goto	l6091
  5123  000896                     l6087:
  5124                           
  5125                           ; BSR set to: 0
  5126                           ;doprnt.c: 1341: else if(prec < c)
  5127  000896  0101               	movlb	1	; () banked
  5128  000898  5113               	movf	(sprintf@prec+1)& (0+255),w,b
  5129  00089A  0A80               	xorlw	128
  5130  00089C  0100               	movlb	0	; () banked
  5131  00089E  6FDC               	movwf	??_sprintf& (0+255),b
  5132  0008A0  0101               	movlb	1	; () banked
  5133  0008A2  5118               	movf	sprintf@c& (0+255),w,b
  5134  0008A4  0101               	movlb	1	; () banked
  5135  0008A6  5D12               	subwf	sprintf@prec& (0+255),w,b
  5136  0008A8  0E80               	movlw	128
  5137  0008AA  0101               	movlb	1	; () banked
  5138  0008AC  BF18               	btfsc	sprintf@c& (0+255),7,b
  5139  0008AE  0E7F               	movlw	127
  5140  0008B0  0100               	movlb	0	; () banked
  5141  0008B2  59DC               	subwfb	??_sprintf& (0+255),w,b
  5142  0008B4  B0D8               	btfsc	status,0,c
  5143  0008B6  D007               	goto	l6091
  5144                           
  5145                           ; BSR set to: 0
  5146                           ;doprnt.c: 1342: prec = c;
  5147  0008B8  0101               	movlb	1	; () banked
  5148  0008BA  5118               	movf	sprintf@c& (0+255),w,b
  5149  0008BC  0101               	movlb	1	; () banked
  5150  0008BE  6F12               	movwf	sprintf@prec& (0+255),b
  5151  0008C0  6B13               	clrf	(sprintf@prec+1)& (0+255),b
  5152  0008C2  BF12               	btfsc	sprintf@prec& (0+255),7,b
  5153  0008C4  0713               	decf	(sprintf@prec+1)& (0+255),f,b
  5154  0008C6                     l6091:
  5155                           
  5156                           ;doprnt.c: 1422: {
  5157                           ;doprnt.c: 1438: if(flag & 0x03)
  5158  0008C6  0E03               	movlw	3
  5159  0008C8  0101               	movlb	1	; () banked
  5160  0008CA  1506               	andwf	sprintf@flag& (0+255),w,b
  5161  0008CC  0100               	movlb	0	; () banked
  5162  0008CE  6FDC               	movwf	??_sprintf& (0+255),b
  5163  0008D0  0E00               	movlw	0
  5164  0008D2  0101               	movlb	1	; () banked
  5165  0008D4  1507               	andwf	(sprintf@flag+1)& (0+255),w,b
  5166  0008D6  0100               	movlb	0	; () banked
  5167  0008D8  6FDD               	movwf	(??_sprintf+1)& (0+255),b
  5168  0008DA  0100               	movlb	0	; () banked
  5169  0008DC  51DC               	movf	??_sprintf& (0+255),w,b
  5170  0008DE  0100               	movlb	0	; () banked
  5171  0008E0  11DD               	iorwf	(??_sprintf+1)& (0+255),w,b
  5172  0008E2  B4D8               	btfsc	status,2,c
  5173  0008E4  D009               	goto	l6097
  5174                           
  5175                           ; BSR set to: 0
  5176                           ;doprnt.c: 1439: ((*sp++ = ('-')));
  5177  0008E6  C0D4  FFD9         	movff	sprintf@sp,fsr2l
  5178  0008EA  C0D5  FFDA         	movff	sprintf@sp+1,fsr2h
  5179  0008EE  0E2D               	movlw	45
  5180  0008F0  6EDF               	movwf	indf2,c
  5181  0008F2                     l6095:
  5182                           
  5183                           ; BSR set to: 0
  5184  0008F2  0100               	movlb	0	; () banked
  5185  0008F4  4BD4               	infsnz	sprintf@sp& (0+255),f,b
  5186  0008F6  2BD5               	incf	(sprintf@sp+1)& (0+255),f,b
  5187  0008F8                     l6097:
  5188  0008F8  C0D6  FFF6         	movff	sprintf@f,tblptrl
  5189  0008FC  C0D7  FFF7         	movff	sprintf@f+1,tblptrh
  5190  000900  0100               	movlb	0	; () banked
  5191  000902  4BD6               	infsnz	sprintf@f& (0+255),f,b
  5192  000904  2BD7               	incf	(sprintf@f+1)& (0+255),f,b
  5193  000906                     	if	0	;tblptru may be non-zero
  5194  000906                     	endif
  5195  000906                     	if	0	;tblptru may be non-zero
  5196  000906                     	endif
  5197  000906  0008               	tblrd		*
  5198  000908  CFF5 F118          	movff	tablat,sprintf@c
  5199  00090C  0101               	movlb	1	; () banked
  5200  00090E  5118               	movf	sprintf@c& (0+255),w,b
  5201  000910  A4D8               	btfss	status,2,c
  5202  000912  EF66  F000         	goto	l5899
  5203  000916                     l6099:
  5204                           
  5205                           ; BSR set to: 1
  5206                           ;doprnt.c: 1538: *sp = 0;
  5207  000916  C0D4  FFD9         	movff	sprintf@sp,fsr2l
  5208  00091A  C0D5  FFDA         	movff	sprintf@sp+1,fsr2h
  5209  00091E  0E00               	movlw	0
  5210  000920  6EDF               	movwf	indf2,c
  5211  000922  0012               	return	
  5212  000924                     __end_of_sprintf:
  5213                           	opt stack 0
  5214                           tblptru	equ	0xFF8
  5215                           tblptrh	equ	0xFF7
  5216                           tblptrl	equ	0xFF6
  5217                           tablat	equ	0xFF5
  5218                           prodh	equ	0xFF4
  5219                           prodl	equ	0xFF3
  5220                           intcon	equ	0xFF2
  5221                           postinc0	equ	0xFEE
  5222                           wreg	equ	0xFE8
  5223                           indf1	equ	0xFE7
  5224                           postdec1	equ	0xFE5
  5225                           plusw1	equ	0xFE3
  5226                           fsr1h	equ	0xFE2
  5227                           fsr1l	equ	0xFE1
  5228                           indf2	equ	0xFDF
  5229                           postinc2	equ	0xFDE
  5230                           plusw2	equ	0xFDB
  5231                           fsr2h	equ	0xFDA
  5232                           fsr2l	equ	0xFD9
  5233                           status	equ	0xFD8
  5234                           
  5235 ;; *************** function _scale *****************
  5236 ;; Defined at:
  5237 ;;		line 425 in file "C:\Program Files (x86)\Microchip\xc8\v1.37\sources\common\doprnt.c"
  5238 ;; Parameters:    Size  Location     Type
  5239 ;;  scl             1    wreg     char 
  5240 ;; Auto vars:     Size  Location     Type
  5241 ;;  scl             1  105[BANK0 ] char 
  5242 ;; Return value:  Size  Location     Type
  5243 ;;                  4   97[BANK0 ] char 
  5244 ;; Registers used:
  5245 ;;		wreg, status,2, status,0, tblptrl, tblptrh, tblptru, prodl, prodh, cstack
  5246 ;; Tracked objects:
  5247 ;;		On entry : 0/0
  5248 ;;		On exit  : 0/0
  5249 ;;		Unchanged: 0/0
  5250 ;; Data sizes:     COMRAM   BANK0   BANK1   BANK2   BANK3   BANK4   BANK5   BANK6   BANK7
  5251 ;;      Params:         0       4       0       0       0       0       0       0       0
  5252 ;;      Locals:         0       5       0       0       0       0       0       0       0
  5253 ;;      Temps:          0       0       0       0       0       0       0       0       0
  5254 ;;      Totals:         0       9       0       0       0       0       0       0       0
  5255 ;;Total ram usage:        9 bytes
  5256 ;; Hardware stack levels used:    1
  5257 ;; Hardware stack levels required when called:    3
  5258 ;; This function calls:
  5259 ;;		___awdiv
  5260 ;;		___awmod
  5261 ;;		___flmul
  5262 ;; This function is called by:
  5263 ;;		_sprintf
  5264 ;; This function uses a non-reentrant model
  5265 ;;
  5266                           
  5267                           	psect	text11
  5268  000ECE                     __ptext11:
  5269                           	opt stack 0
  5270  000ECE                     _scale:
  5271                           	opt stack 24
  5272                           
  5273                           ; BSR set to: 1
  5274                           ;incstack = 0
  5275                           ;scale@scl stored from wreg
  5276  000ECE  0100               	movlb	0	; () banked
  5277  000ED0  6FC9               	movwf	scale@scl& (0+255),b
  5278                           
  5279                           ;doprnt.c: 428: if(scl < 0) {
  5280  000ED2  0100               	movlb	0	; () banked
  5281  000ED4  AFC9               	btfss	scale@scl& (0+255),7,b
  5282  000ED6  D133               	goto	l5375
  5283                           
  5284                           ; BSR set to: 0
  5285                           ;doprnt.c: 429: scl = -scl;
  5286  000ED8  0100               	movlb	0	; () banked
  5287  000EDA  6DC9               	negf	scale@scl& (0+255),b
  5288                           
  5289                           ;doprnt.c: 430: if(scl>=110)
  5290  000EDC  0100               	movlb	0	; () banked
  5291  000EDE  51C9               	movf	scale@scl& (0+255),w,b
  5292  000EE0  0A80               	xorlw	128
  5293  000EE2  0F12               	addlw	-238
  5294  000EE4  A0D8               	btfss	status,0,c
  5295  000EE6  D0B2               	goto	l5365
  5296                           
  5297                           ; BSR set to: 0
  5298                           ;doprnt.c: 431: return _npowers_[scl/100+18] * _npowers_[(scl%100)/10+9] * _npowers_[scl
      +                          %10];
  5299  000EE8  0E00               	movlw	0
  5300  000EEA  0100               	movlb	0	; () banked
  5301  000EEC  6F69               	movwf	(___awdiv@divisor+1)& (0+255),b
  5302  000EEE  0E0A               	movlw	10
  5303  000EF0  6F68               	movwf	___awdiv@divisor& (0+255),b
  5304  000EF2  0E00               	movlw	0
  5305  000EF4  0100               	movlb	0	; () banked
  5306  000EF6  6F63               	movwf	(___awmod@divisor+1)& (0+255),b
  5307  000EF8  0E64               	movlw	100
  5308  000EFA  6F62               	movwf	___awmod@divisor& (0+255),b
  5309  000EFC  0100               	movlb	0	; () banked
  5310  000EFE  51C9               	movf	scale@scl& (0+255),w,b
  5311  000F00  0100               	movlb	0	; () banked
  5312  000F02  6F60               	movwf	___awmod@dividend& (0+255),b
  5313  000F04  6B61               	clrf	(___awmod@dividend+1)& (0+255),b
  5314  000F06  BF60               	btfsc	___awmod@dividend& (0+255),7,b
  5315  000F08  0761               	decf	(___awmod@dividend+1)& (0+255),f,b
  5316  000F0A  EC00  F01F         	call	___awmod	;wreg free
  5317  000F0E  C060  F066         	movff	?___awmod,___awdiv@dividend
  5318  000F12  C061  F067         	movff	?___awmod+1,___awdiv@dividend+1
  5319  000F16  ECE8  F01D         	call	___awdiv	;wreg free
  5320  000F1A  0100               	movlb	0	; () banked
  5321  000F1C  90D8               	bcf	status,0,c
  5322  000F1E  3766               	rlcf	?___awdiv& (0+255),f,b
  5323  000F20  3767               	rlcf	(?___awdiv+1)& (0+255),f,b
  5324  000F22  0100               	movlb	0	; () banked
  5325  000F24  90D8               	bcf	status,0,c
  5326  000F26  3766               	rlcf	?___awdiv& (0+255),f,b
  5327  000F28  3767               	rlcf	(?___awdiv+1)& (0+255),f,b
  5328  000F2A  0E24               	movlw	36
  5329  000F2C  0100               	movlb	0	; () banked
  5330  000F2E  2766               	addwf	?___awdiv& (0+255),f,b
  5331  000F30  0E00               	movlw	0
  5332  000F32  0100               	movlb	0	; () banked
  5333  000F34  2367               	addwfc	(?___awdiv+1)& (0+255),f,b
  5334  000F36  0E19               	movlw	low __npowers_
  5335  000F38  0100               	movlb	0	; () banked
  5336  000F3A  2566               	addwf	?___awdiv& (0+255),w,b
  5337  000F3C  6EF6               	movwf	tblptrl,c
  5338  000F3E  0E7E               	movlw	high __npowers_
  5339  000F40  0100               	movlb	0	; () banked
  5340  000F42  2167               	addwfc	(?___awdiv+1)& (0+255),w,b
  5341  000F44  6EF7               	movwf	tblptrh,c
  5342  000F46                     	if	0	;There are less than 3 active tblptr bytes
  5343  000F46                     	endif
  5344  000F46  0009               	tblrd		*+
  5345  000F48  CFF5 F0AC          	movff	tablat,___flmul@a
  5346  000F4C  0009               	tblrd		*+
  5347  000F4E  CFF5 F0AD          	movff	tablat,___flmul@a+1
  5348  000F52  0009               	tblrd		*+
  5349  000F54  CFF5 F0AE          	movff	tablat,___flmul@a+2
  5350  000F58  000A               	tblrd		*-
  5351  000F5A  CFF5 F0AF          	movff	tablat,___flmul@a+3
  5352  000F5E  0E00               	movlw	0
  5353  000F60  0100               	movlb	0	; () banked
  5354  000F62  6F69               	movwf	(___awdiv@divisor+1)& (0+255),b
  5355  000F64  0E64               	movlw	100
  5356  000F66  6F68               	movwf	___awdiv@divisor& (0+255),b
  5357  000F68  0100               	movlb	0	; () banked
  5358  000F6A  51C9               	movf	scale@scl& (0+255),w,b
  5359  000F6C  0100               	movlb	0	; () banked
  5360  000F6E  6F66               	movwf	___awdiv@dividend& (0+255),b
  5361  000F70  6B67               	clrf	(___awdiv@dividend+1)& (0+255),b
  5362  000F72  BF66               	btfsc	___awdiv@dividend& (0+255),7,b
  5363  000F74  0767               	decf	(___awdiv@dividend+1)& (0+255),f,b
  5364  000F76  ECE8  F01D         	call	___awdiv	;wreg free
  5365  000F7A  0100               	movlb	0	; () banked
  5366  000F7C  90D8               	bcf	status,0,c
  5367  000F7E  3766               	rlcf	?___awdiv& (0+255),f,b
  5368  000F80  3767               	rlcf	(?___awdiv+1)& (0+255),f,b
  5369  000F82  0100               	movlb	0	; () banked
  5370  000F84  90D8               	bcf	status,0,c
  5371  000F86  3766               	rlcf	?___awdiv& (0+255),f,b
  5372  000F88  3767               	rlcf	(?___awdiv+1)& (0+255),f,b
  5373  000F8A  0E48               	movlw	72
  5374  000F8C  0100               	movlb	0	; () banked
  5375  000F8E  2766               	addwf	?___awdiv& (0+255),f,b
  5376  000F90  0E00               	movlw	0
  5377  000F92  0100               	movlb	0	; () banked
  5378  000F94  2367               	addwfc	(?___awdiv+1)& (0+255),f,b
  5379  000F96  0E19               	movlw	low __npowers_
  5380  000F98  0100               	movlb	0	; () banked
  5381  000F9A  2566               	addwf	?___awdiv& (0+255),w,b
  5382  000F9C  6EF6               	movwf	tblptrl,c
  5383  000F9E  0E7E               	movlw	high __npowers_
  5384  000FA0  0100               	movlb	0	; () banked
  5385  000FA2  2167               	addwfc	(?___awdiv+1)& (0+255),w,b
  5386  000FA4  6EF7               	movwf	tblptrh,c
  5387  000FA6                     	if	0	;There are less than 3 active tblptr bytes
  5388  000FA6                     	endif
  5389  000FA6  0009               	tblrd		*+
  5390  000FA8  CFF5 F0A8          	movff	tablat,___flmul@b
  5391  000FAC  0009               	tblrd		*+
  5392  000FAE  CFF5 F0A9          	movff	tablat,___flmul@b+1
  5393  000FB2  0009               	tblrd		*+
  5394  000FB4  CFF5 F0AA          	movff	tablat,___flmul@b+2
  5395  000FB8  000A               	tblrd		*-
  5396  000FBA  CFF5 F0AB          	movff	tablat,___flmul@b+3
  5397  000FBE  EC79  F00E         	call	___flmul	;wreg free
  5398  000FC2  C0A8  F0C5         	movff	?___flmul,_scale$1518
  5399  000FC6  C0A9  F0C6         	movff	?___flmul+1,_scale$1518+1
  5400  000FCA  C0AA  F0C7         	movff	?___flmul+2,_scale$1518+2
  5401  000FCE  C0AB  F0C8         	movff	?___flmul+3,_scale$1518+3
  5402                           
  5403                           ;doprnt.c: 431: return _npowers_[scl/100+18] * _npowers_[(scl%100)/10+9] * _npowers_[scl
      +                          %10];
  5404  000FD2  C0C5  F0A8         	movff	_scale$1518,___flmul@b
  5405  000FD6  C0C6  F0A9         	movff	_scale$1518+1,___flmul@b+1
  5406  000FDA  C0C7  F0AA         	movff	_scale$1518+2,___flmul@b+2
  5407  000FDE  C0C8  F0AB         	movff	_scale$1518+3,___flmul@b+3
  5408  000FE2  0E00               	movlw	0
  5409  000FE4  0100               	movlb	0	; () banked
  5410  000FE6  6F63               	movwf	(___awmod@divisor+1)& (0+255),b
  5411  000FE8  0E0A               	movlw	10
  5412  000FEA  6F62               	movwf	___awmod@divisor& (0+255),b
  5413  000FEC  0100               	movlb	0	; () banked
  5414  000FEE  51C9               	movf	scale@scl& (0+255),w,b
  5415  000FF0  0100               	movlb	0	; () banked
  5416  000FF2  6F60               	movwf	___awmod@dividend& (0+255),b
  5417  000FF4  6B61               	clrf	(___awmod@dividend+1)& (0+255),b
  5418  000FF6  BF60               	btfsc	___awmod@dividend& (0+255),7,b
  5419  000FF8  0761               	decf	(___awmod@dividend+1)& (0+255),f,b
  5420  000FFA  EC00  F01F         	call	___awmod	;wreg free
  5421  000FFE  0100               	movlb	0	; () banked
  5422  001000  90D8               	bcf	status,0,c
  5423  001002  3760               	rlcf	?___awmod& (0+255),f,b
  5424  001004  3761               	rlcf	(?___awmod+1)& (0+255),f,b
  5425  001006  0100               	movlb	0	; () banked
  5426  001008  90D8               	bcf	status,0,c
  5427  00100A  3760               	rlcf	?___awmod& (0+255),f,b
  5428  00100C  3761               	rlcf	(?___awmod+1)& (0+255),f,b
  5429  00100E  0E19               	movlw	low __npowers_
  5430  001010  0100               	movlb	0	; () banked
  5431  001012  2560               	addwf	?___awmod& (0+255),w,b
  5432  001014  6EF6               	movwf	tblptrl,c
  5433  001016  0E7E               	movlw	high __npowers_
  5434  001018  0100               	movlb	0	; () banked
  5435  00101A  2161               	addwfc	(?___awmod+1)& (0+255),w,b
  5436  00101C  6EF7               	movwf	tblptrh,c
  5437  00101E                     	if	0	;There are less than 3 active tblptr bytes
  5438  00101E                     	endif
  5439  00101E  0009               	tblrd		*+
  5440  001020  CFF5 F0AC          	movff	tablat,___flmul@a
  5441  001024  0009               	tblrd		*+
  5442  001026  CFF5 F0AD          	movff	tablat,___flmul@a+1
  5443  00102A  0009               	tblrd		*+
  5444  00102C  CFF5 F0AE          	movff	tablat,___flmul@a+2
  5445  001030  000A               	tblrd		*-
  5446  001032  CFF5 F0AF          	movff	tablat,___flmul@a+3
  5447  001036  EC79  F00E         	call	___flmul	;wreg free
  5448  00103A  C0A8  F0C1         	movff	?___flmul,?_scale
  5449  00103E  C0A9  F0C2         	movff	?___flmul+1,?_scale+1
  5450  001042  C0AA  F0C3         	movff	?___flmul+2,?_scale+2
  5451  001046  C0AB  F0C4         	movff	?___flmul+3,?_scale+3
  5452  00104A  0012               	return	
  5453  00104C                     l5365:
  5454                           
  5455                           ;doprnt.c: 432: else if(scl > 10)
  5456  00104C  0100               	movlb	0	; () banked
  5457  00104E  51C9               	movf	scale@scl& (0+255),w,b
  5458  001050  0A80               	xorlw	128
  5459  001052  0F75               	addlw	-139
  5460  001054  A0D8               	btfss	status,0,c
  5461  001056  D05D               	goto	l5371
  5462                           
  5463                           ; BSR set to: 0
  5464                           ;doprnt.c: 433: return _npowers_[scl/10+9] * _npowers_[scl%10];
  5465  001058  0E00               	movlw	0
  5466  00105A  0100               	movlb	0	; () banked
  5467  00105C  6F69               	movwf	(___awdiv@divisor+1)& (0+255),b
  5468  00105E  0E0A               	movlw	10
  5469  001060  6F68               	movwf	___awdiv@divisor& (0+255),b
  5470  001062  0100               	movlb	0	; () banked
  5471  001064  51C9               	movf	scale@scl& (0+255),w,b
  5472  001066  0100               	movlb	0	; () banked
  5473  001068  6F66               	movwf	___awdiv@dividend& (0+255),b
  5474  00106A  6B67               	clrf	(___awdiv@dividend+1)& (0+255),b
  5475  00106C  BF66               	btfsc	___awdiv@dividend& (0+255),7,b
  5476  00106E  0767               	decf	(___awdiv@dividend+1)& (0+255),f,b
  5477  001070  ECE8  F01D         	call	___awdiv	;wreg free
  5478  001074  0100               	movlb	0	; () banked
  5479  001076  90D8               	bcf	status,0,c
  5480  001078  3766               	rlcf	?___awdiv& (0+255),f,b
  5481  00107A  3767               	rlcf	(?___awdiv+1)& (0+255),f,b
  5482  00107C  0100               	movlb	0	; () banked
  5483  00107E  90D8               	bcf	status,0,c
  5484  001080  3766               	rlcf	?___awdiv& (0+255),f,b
  5485  001082  3767               	rlcf	(?___awdiv+1)& (0+255),f,b
  5486  001084  0E24               	movlw	36
  5487  001086  0100               	movlb	0	; () banked
  5488  001088  2766               	addwf	?___awdiv& (0+255),f,b
  5489  00108A  0E00               	movlw	0
  5490  00108C  0100               	movlb	0	; () banked
  5491  00108E  2367               	addwfc	(?___awdiv+1)& (0+255),f,b
  5492  001090  0E19               	movlw	low __npowers_
  5493  001092  0100               	movlb	0	; () banked
  5494  001094  2566               	addwf	?___awdiv& (0+255),w,b
  5495  001096  6EF6               	movwf	tblptrl,c
  5496  001098  0E7E               	movlw	high __npowers_
  5497  00109A  0100               	movlb	0	; () banked
  5498  00109C  2167               	addwfc	(?___awdiv+1)& (0+255),w,b
  5499  00109E  6EF7               	movwf	tblptrh,c
  5500  0010A0                     	if	0	;There are less than 3 active tblptr bytes
  5501  0010A0                     	endif
  5502  0010A0  0009               	tblrd		*+
  5503  0010A2  CFF5 F0A8          	movff	tablat,___flmul@b
  5504  0010A6  0009               	tblrd		*+
  5505  0010A8  CFF5 F0A9          	movff	tablat,___flmul@b+1
  5506  0010AC  0009               	tblrd		*+
  5507  0010AE  CFF5 F0AA          	movff	tablat,___flmul@b+2
  5508  0010B2  000A               	tblrd		*-
  5509  0010B4  CFF5 F0AB          	movff	tablat,___flmul@b+3
  5510  0010B8  0E00               	movlw	0
  5511  0010BA  0100               	movlb	0	; () banked
  5512  0010BC  6F63               	movwf	(___awmod@divisor+1)& (0+255),b
  5513  0010BE  0E0A               	movlw	10
  5514  0010C0  6F62               	movwf	___awmod@divisor& (0+255),b
  5515  0010C2  0100               	movlb	0	; () banked
  5516  0010C4  51C9               	movf	scale@scl& (0+255),w,b
  5517  0010C6  0100               	movlb	0	; () banked
  5518  0010C8  6F60               	movwf	___awmod@dividend& (0+255),b
  5519  0010CA  6B61               	clrf	(___awmod@dividend+1)& (0+255),b
  5520  0010CC  BF60               	btfsc	___awmod@dividend& (0+255),7,b
  5521  0010CE  0761               	decf	(___awmod@dividend+1)& (0+255),f,b
  5522  0010D0  EC00  F01F         	call	___awmod	;wreg free
  5523  0010D4  0100               	movlb	0	; () banked
  5524  0010D6  90D8               	bcf	status,0,c
  5525  0010D8  3760               	rlcf	?___awmod& (0+255),f,b
  5526  0010DA  3761               	rlcf	(?___awmod+1)& (0+255),f,b
  5527  0010DC  0100               	movlb	0	; () banked
  5528  0010DE  90D8               	bcf	status,0,c
  5529  0010E0  3760               	rlcf	?___awmod& (0+255),f,b
  5530  0010E2  3761               	rlcf	(?___awmod+1)& (0+255),f,b
  5531  0010E4  0E19               	movlw	low __npowers_
  5532  0010E6  0100               	movlb	0	; () banked
  5533  0010E8  2560               	addwf	?___awmod& (0+255),w,b
  5534  0010EA  6EF6               	movwf	tblptrl,c
  5535  0010EC  0E7E               	movlw	high __npowers_
  5536  0010EE  0100               	movlb	0	; () banked
  5537  0010F0  2161               	addwfc	(?___awmod+1)& (0+255),w,b
  5538  0010F2  6EF7               	movwf	tblptrh,c
  5539  0010F4                     	if	0	;There are less than 3 active tblptr bytes
  5540  0010F4                     	endif
  5541  0010F4  0009               	tblrd		*+
  5542  0010F6  CFF5 F0AC          	movff	tablat,___flmul@a
  5543  0010FA  0009               	tblrd		*+
  5544  0010FC  CFF5 F0AD          	movff	tablat,___flmul@a+1
  5545  001100  0009               	tblrd		*+
  5546  001102  CFF5 F0AE          	movff	tablat,___flmul@a+2
  5547  001106  000A               	tblrd		*-
  5548  001108  CFF5 F0AF          	movff	tablat,___flmul@a+3
  5549  00110C  EC79  F00E         	call	___flmul	;wreg free
  5550  001110  D794               	goto	L4
  5551  001112                     l5371:
  5552                           
  5553                           ;doprnt.c: 434: return _npowers_[scl];
  5554  001112  0100               	movlb	0	; () banked
  5555  001114  51C9               	movf	scale@scl& (0+255),w,b
  5556  001116  0D04               	mullw	4
  5557  001118  0E19               	movlw	low __npowers_
  5558  00111A  24F3               	addwf	prodl,w,c
  5559  00111C  6EF6               	movwf	tblptrl,c
  5560  00111E  0E7E               	movlw	high __npowers_
  5561  001120  20F4               	addwfc	prodh,w,c
  5562  001122  6EF7               	movwf	tblptrh,c
  5563  001124                     	if	0	;There are less than 3 active tblptr bytes
  5564  001124                     	endif
  5565  001124  0009               	tblrd		*+
  5566  001126  CFF5 F0C1          	movff	tablat,?_scale
  5567  00112A  0009               	tblrd		*+
  5568  00112C  CFF5 F0C2          	movff	tablat,?_scale+1
  5569  001130  0009               	tblrd		*+
  5570  001132  CFF5 F0C3          	movff	tablat,?_scale+2
  5571  001136  000A               	tblrd		*-
  5572  001138  CFF5 F0C4          	movff	tablat,?_scale+3
  5573                           
  5574                           ; BSR set to: 0
  5575  00113C  0012               	return	
  5576  00113E                     l5375:
  5577                           
  5578                           ; BSR set to: 0
  5579                           ;doprnt.c: 435: }
  5580                           ;doprnt.c: 436: if(scl>=110)
  5581  00113E  0100               	movlb	0	; () banked
  5582  001140  51C9               	movf	scale@scl& (0+255),w,b
  5583  001142  0A80               	xorlw	128
  5584  001144  0F12               	addlw	-238
  5585  001146  A0D8               	btfss	status,0,c
  5586  001148  D0B2               	goto	l5383
  5587                           
  5588                           ; BSR set to: 0
  5589                           ;doprnt.c: 437: return _powers_[scl/100+18] * _powers_[(scl%100)/10+9] * _powers_[scl%10
      +                          ];
  5590  00114A  0E00               	movlw	0
  5591  00114C  0100               	movlb	0	; () banked
  5592  00114E  6F69               	movwf	(___awdiv@divisor+1)& (0+255),b
  5593  001150  0E0A               	movlw	10
  5594  001152  6F68               	movwf	___awdiv@divisor& (0+255),b
  5595  001154  0E00               	movlw	0
  5596  001156  0100               	movlb	0	; () banked
  5597  001158  6F63               	movwf	(___awmod@divisor+1)& (0+255),b
  5598  00115A  0E64               	movlw	100
  5599  00115C  6F62               	movwf	___awmod@divisor& (0+255),b
  5600  00115E  0100               	movlb	0	; () banked
  5601  001160  51C9               	movf	scale@scl& (0+255),w,b
  5602  001162  0100               	movlb	0	; () banked
  5603  001164  6F60               	movwf	___awmod@dividend& (0+255),b
  5604  001166  6B61               	clrf	(___awmod@dividend+1)& (0+255),b
  5605  001168  BF60               	btfsc	___awmod@dividend& (0+255),7,b
  5606  00116A  0761               	decf	(___awmod@dividend+1)& (0+255),f,b
  5607  00116C  EC00  F01F         	call	___awmod	;wreg free
  5608  001170  C060  F066         	movff	?___awmod,___awdiv@dividend
  5609  001174  C061  F067         	movff	?___awmod+1,___awdiv@dividend+1
  5610  001178  ECE8  F01D         	call	___awdiv	;wreg free
  5611  00117C  0100               	movlb	0	; () banked
  5612  00117E  90D8               	bcf	status,0,c
  5613  001180  3766               	rlcf	?___awdiv& (0+255),f,b
  5614  001182  3767               	rlcf	(?___awdiv+1)& (0+255),f,b
  5615  001184  0100               	movlb	0	; () banked
  5616  001186  90D8               	bcf	status,0,c
  5617  001188  3766               	rlcf	?___awdiv& (0+255),f,b
  5618  00118A  3767               	rlcf	(?___awdiv+1)& (0+255),f,b
  5619  00118C  0E24               	movlw	36
  5620  00118E  0100               	movlb	0	; () banked
  5621  001190  2766               	addwf	?___awdiv& (0+255),f,b
  5622  001192  0E00               	movlw	0
  5623  001194  0100               	movlb	0	; () banked
  5624  001196  2367               	addwfc	(?___awdiv+1)& (0+255),f,b
  5625  001198  0E4D               	movlw	low __powers_
  5626  00119A  0100               	movlb	0	; () banked
  5627  00119C  2566               	addwf	?___awdiv& (0+255),w,b
  5628  00119E  6EF6               	movwf	tblptrl,c
  5629  0011A0  0E7E               	movlw	high __powers_
  5630  0011A2  0100               	movlb	0	; () banked
  5631  0011A4  2167               	addwfc	(?___awdiv+1)& (0+255),w,b
  5632  0011A6  6EF7               	movwf	tblptrh,c
  5633  0011A8                     	if	0	;There are less than 3 active tblptr bytes
  5634  0011A8                     	endif
  5635  0011A8  0009               	tblrd		*+
  5636  0011AA  CFF5 F0AC          	movff	tablat,___flmul@a
  5637  0011AE  0009               	tblrd		*+
  5638  0011B0  CFF5 F0AD          	movff	tablat,___flmul@a+1
  5639  0011B4  0009               	tblrd		*+
  5640  0011B6  CFF5 F0AE          	movff	tablat,___flmul@a+2
  5641  0011BA  000A               	tblrd		*-
  5642  0011BC  CFF5 F0AF          	movff	tablat,___flmul@a+3
  5643  0011C0  0E00               	movlw	0
  5644  0011C2  0100               	movlb	0	; () banked
  5645  0011C4  6F69               	movwf	(___awdiv@divisor+1)& (0+255),b
  5646  0011C6  0E64               	movlw	100
  5647  0011C8  6F68               	movwf	___awdiv@divisor& (0+255),b
  5648  0011CA  0100               	movlb	0	; () banked
  5649  0011CC  51C9               	movf	scale@scl& (0+255),w,b
  5650  0011CE  0100               	movlb	0	; () banked
  5651  0011D0  6F66               	movwf	___awdiv@dividend& (0+255),b
  5652  0011D2  6B67               	clrf	(___awdiv@dividend+1)& (0+255),b
  5653  0011D4  BF66               	btfsc	___awdiv@dividend& (0+255),7,b
  5654  0011D6  0767               	decf	(___awdiv@dividend+1)& (0+255),f,b
  5655  0011D8  ECE8  F01D         	call	___awdiv	;wreg free
  5656  0011DC  0100               	movlb	0	; () banked
  5657  0011DE  90D8               	bcf	status,0,c
  5658  0011E0  3766               	rlcf	?___awdiv& (0+255),f,b
  5659  0011E2  3767               	rlcf	(?___awdiv+1)& (0+255),f,b
  5660  0011E4  0100               	movlb	0	; () banked
  5661  0011E6  90D8               	bcf	status,0,c
  5662  0011E8  3766               	rlcf	?___awdiv& (0+255),f,b
  5663  0011EA  3767               	rlcf	(?___awdiv+1)& (0+255),f,b
  5664  0011EC  0E48               	movlw	72
  5665  0011EE  0100               	movlb	0	; () banked
  5666  0011F0  2766               	addwf	?___awdiv& (0+255),f,b
  5667  0011F2  0E00               	movlw	0
  5668  0011F4  0100               	movlb	0	; () banked
  5669  0011F6  2367               	addwfc	(?___awdiv+1)& (0+255),f,b
  5670  0011F8  0E4D               	movlw	low __powers_
  5671  0011FA  0100               	movlb	0	; () banked
  5672  0011FC  2566               	addwf	?___awdiv& (0+255),w,b
  5673  0011FE  6EF6               	movwf	tblptrl,c
  5674  001200  0E7E               	movlw	high __powers_
  5675  001202  0100               	movlb	0	; () banked
  5676  001204  2167               	addwfc	(?___awdiv+1)& (0+255),w,b
  5677  001206  6EF7               	movwf	tblptrh,c
  5678  001208                     	if	0	;There are less than 3 active tblptr bytes
  5679  001208                     	endif
  5680  001208  0009               	tblrd		*+
  5681  00120A  CFF5 F0A8          	movff	tablat,___flmul@b
  5682  00120E  0009               	tblrd		*+
  5683  001210  CFF5 F0A9          	movff	tablat,___flmul@b+1
  5684  001214  0009               	tblrd		*+
  5685  001216  CFF5 F0AA          	movff	tablat,___flmul@b+2
  5686  00121A  000A               	tblrd		*-
  5687  00121C  CFF5 F0AB          	movff	tablat,___flmul@b+3
  5688  001220  EC79  F00E         	call	___flmul	;wreg free
  5689  001224  C0A8  F0C5         	movff	?___flmul,_scale$1518
  5690  001228  C0A9  F0C6         	movff	?___flmul+1,_scale$1518+1
  5691  00122C  C0AA  F0C7         	movff	?___flmul+2,_scale$1518+2
  5692  001230  C0AB  F0C8         	movff	?___flmul+3,_scale$1518+3
  5693                           
  5694                           ;doprnt.c: 437: return _powers_[scl/100+18] * _powers_[(scl%100)/10+9] * _powers_[scl%10
      +                          ];
  5695  001234  C0C5  F0A8         	movff	_scale$1518,___flmul@b
  5696  001238  C0C6  F0A9         	movff	_scale$1518+1,___flmul@b+1
  5697  00123C  C0C7  F0AA         	movff	_scale$1518+2,___flmul@b+2
  5698  001240  C0C8  F0AB         	movff	_scale$1518+3,___flmul@b+3
  5699  001244  0E00               	movlw	0
  5700  001246  0100               	movlb	0	; () banked
  5701  001248  6F63               	movwf	(___awmod@divisor+1)& (0+255),b
  5702  00124A  0E0A               	movlw	10
  5703  00124C  6F62               	movwf	___awmod@divisor& (0+255),b
  5704  00124E  0100               	movlb	0	; () banked
  5705  001250  51C9               	movf	scale@scl& (0+255),w,b
  5706  001252  0100               	movlb	0	; () banked
  5707  001254  6F60               	movwf	___awmod@dividend& (0+255),b
  5708  001256  6B61               	clrf	(___awmod@dividend+1)& (0+255),b
  5709  001258  BF60               	btfsc	___awmod@dividend& (0+255),7,b
  5710  00125A  0761               	decf	(___awmod@dividend+1)& (0+255),f,b
  5711  00125C  EC00  F01F         	call	___awmod	;wreg free
  5712  001260  0100               	movlb	0	; () banked
  5713  001262  90D8               	bcf	status,0,c
  5714  001264  3760               	rlcf	?___awmod& (0+255),f,b
  5715  001266  3761               	rlcf	(?___awmod+1)& (0+255),f,b
  5716  001268  0100               	movlb	0	; () banked
  5717  00126A  90D8               	bcf	status,0,c
  5718  00126C  3760               	rlcf	?___awmod& (0+255),f,b
  5719  00126E  3761               	rlcf	(?___awmod+1)& (0+255),f,b
  5720  001270  0E4D               	movlw	low __powers_
  5721  001272  0100               	movlb	0	; () banked
  5722  001274  2560               	addwf	?___awmod& (0+255),w,b
  5723  001276  6EF6               	movwf	tblptrl,c
  5724  001278  0E7E               	movlw	high __powers_
  5725  00127A  0100               	movlb	0	; () banked
  5726  00127C  2161               	addwfc	(?___awmod+1)& (0+255),w,b
  5727  00127E  6EF7               	movwf	tblptrh,c
  5728  001280                     	if	0	;There are less than 3 active tblptr bytes
  5729  001280                     	endif
  5730  001280  0009               	tblrd		*+
  5731  001282  CFF5 F0AC          	movff	tablat,___flmul@a
  5732  001286  0009               	tblrd		*+
  5733  001288  CFF5 F0AD          	movff	tablat,___flmul@a+1
  5734  00128C  0009               	tblrd		*+
  5735  00128E  CFF5 F0AE          	movff	tablat,___flmul@a+2
  5736  001292  000A               	tblrd		*-
  5737  001294  CFF5 F0AF          	movff	tablat,___flmul@a+3
  5738  001298  EC79  F00E         	call	___flmul	;wreg free
  5739  00129C  C0A8  F0C1         	movff	?___flmul,?_scale
  5740  0012A0  C0A9  F0C2         	movff	?___flmul+1,?_scale+1
  5741  0012A4  C0AA  F0C3         	movff	?___flmul+2,?_scale+2
  5742  0012A8  C0AB  F0C4         	movff	?___flmul+3,?_scale+3
  5743  0012AC  0012               	return	
  5744  0012AE                     l5383:
  5745                           
  5746                           ;doprnt.c: 438: else if(scl > 10)
  5747  0012AE  0100               	movlb	0	; () banked
  5748  0012B0  51C9               	movf	scale@scl& (0+255),w,b
  5749  0012B2  0A80               	xorlw	128
  5750  0012B4  0F75               	addlw	-139
  5751  0012B6  A0D8               	btfss	status,0,c
  5752  0012B8  D05D               	goto	l5389
  5753                           
  5754                           ; BSR set to: 0
  5755                           ;doprnt.c: 439: return _powers_[scl/10+9] * _powers_[scl%10];
  5756  0012BA  0E00               	movlw	0
  5757  0012BC  0100               	movlb	0	; () banked
  5758  0012BE  6F69               	movwf	(___awdiv@divisor+1)& (0+255),b
  5759  0012C0  0E0A               	movlw	10
  5760  0012C2  6F68               	movwf	___awdiv@divisor& (0+255),b
  5761  0012C4  0100               	movlb	0	; () banked
  5762  0012C6  51C9               	movf	scale@scl& (0+255),w,b
  5763  0012C8  0100               	movlb	0	; () banked
  5764  0012CA  6F66               	movwf	___awdiv@dividend& (0+255),b
  5765  0012CC  6B67               	clrf	(___awdiv@dividend+1)& (0+255),b
  5766  0012CE  BF66               	btfsc	___awdiv@dividend& (0+255),7,b
  5767  0012D0  0767               	decf	(___awdiv@dividend+1)& (0+255),f,b
  5768  0012D2  ECE8  F01D         	call	___awdiv	;wreg free
  5769  0012D6  0100               	movlb	0	; () banked
  5770  0012D8  90D8               	bcf	status,0,c
  5771  0012DA  3766               	rlcf	?___awdiv& (0+255),f,b
  5772  0012DC  3767               	rlcf	(?___awdiv+1)& (0+255),f,b
  5773  0012DE  0100               	movlb	0	; () banked
  5774  0012E0  90D8               	bcf	status,0,c
  5775  0012E2  3766               	rlcf	?___awdiv& (0+255),f,b
  5776  0012E4  3767               	rlcf	(?___awdiv+1)& (0+255),f,b
  5777  0012E6  0E24               	movlw	36
  5778  0012E8  0100               	movlb	0	; () banked
  5779  0012EA  2766               	addwf	?___awdiv& (0+255),f,b
  5780  0012EC  0E00               	movlw	0
  5781  0012EE  0100               	movlb	0	; () banked
  5782  0012F0  2367               	addwfc	(?___awdiv+1)& (0+255),f,b
  5783  0012F2  0E4D               	movlw	low __powers_
  5784  0012F4  0100               	movlb	0	; () banked
  5785  0012F6  2566               	addwf	?___awdiv& (0+255),w,b
  5786  0012F8  6EF6               	movwf	tblptrl,c
  5787  0012FA  0E7E               	movlw	high __powers_
  5788  0012FC  0100               	movlb	0	; () banked
  5789  0012FE  2167               	addwfc	(?___awdiv+1)& (0+255),w,b
  5790  001300  6EF7               	movwf	tblptrh,c
  5791  001302                     	if	0	;There are less than 3 active tblptr bytes
  5792  001302                     	endif
  5793  001302  0009               	tblrd		*+
  5794  001304  CFF5 F0A8          	movff	tablat,___flmul@b
  5795  001308  0009               	tblrd		*+
  5796  00130A  CFF5 F0A9          	movff	tablat,___flmul@b+1
  5797  00130E  0009               	tblrd		*+
  5798  001310  CFF5 F0AA          	movff	tablat,___flmul@b+2
  5799  001314  000A               	tblrd		*-
  5800  001316  CFF5 F0AB          	movff	tablat,___flmul@b+3
  5801  00131A  0E00               	movlw	0
  5802  00131C  0100               	movlb	0	; () banked
  5803  00131E  6F63               	movwf	(___awmod@divisor+1)& (0+255),b
  5804  001320  0E0A               	movlw	10
  5805  001322  6F62               	movwf	___awmod@divisor& (0+255),b
  5806  001324  0100               	movlb	0	; () banked
  5807  001326  51C9               	movf	scale@scl& (0+255),w,b
  5808  001328  0100               	movlb	0	; () banked
  5809  00132A  6F60               	movwf	___awmod@dividend& (0+255),b
  5810  00132C  6B61               	clrf	(___awmod@dividend+1)& (0+255),b
  5811  00132E  BF60               	btfsc	___awmod@dividend& (0+255),7,b
  5812  001330  0761               	decf	(___awmod@dividend+1)& (0+255),f,b
  5813  001332  EC00  F01F         	call	___awmod	;wreg free
  5814  001336  0100               	movlb	0	; () banked
  5815  001338  90D8               	bcf	status,0,c
  5816  00133A  3760               	rlcf	?___awmod& (0+255),f,b
  5817  00133C  3761               	rlcf	(?___awmod+1)& (0+255),f,b
  5818  00133E  0100               	movlb	0	; () banked
  5819  001340  90D8               	bcf	status,0,c
  5820  001342  3760               	rlcf	?___awmod& (0+255),f,b
  5821  001344  3761               	rlcf	(?___awmod+1)& (0+255),f,b
  5822  001346  0E4D               	movlw	low __powers_
  5823  001348  0100               	movlb	0	; () banked
  5824  00134A  2560               	addwf	?___awmod& (0+255),w,b
  5825  00134C  6EF6               	movwf	tblptrl,c
  5826  00134E  0E7E               	movlw	high __powers_
  5827  001350  0100               	movlb	0	; () banked
  5828  001352  2161               	addwfc	(?___awmod+1)& (0+255),w,b
  5829  001354  6EF7               	movwf	tblptrh,c
  5830  001356                     	if	0	;There are less than 3 active tblptr bytes
  5831  001356                     	endif
  5832  001356  0009               	tblrd		*+
  5833  001358  CFF5 F0AC          	movff	tablat,___flmul@a
  5834  00135C  0009               	tblrd		*+
  5835  00135E  CFF5 F0AD          	movff	tablat,___flmul@a+1
  5836  001362  0009               	tblrd		*+
  5837  001364  CFF5 F0AE          	movff	tablat,___flmul@a+2
  5838  001368  000A               	tblrd		*-
  5839  00136A  CFF5 F0AF          	movff	tablat,___flmul@a+3
  5840  00136E  EC79  F00E         	call	___flmul	;wreg free
  5841  001372  D794               	goto	L5
  5842  001374                     l5389:
  5843                           
  5844                           ;doprnt.c: 440: return _powers_[scl];
  5845  001374  0100               	movlb	0	; () banked
  5846  001376  51C9               	movf	scale@scl& (0+255),w,b
  5847  001378  0D04               	mullw	4
  5848  00137A  0E4D               	movlw	low __powers_
  5849  00137C  24F3               	addwf	prodl,w,c
  5850  00137E  6EF6               	movwf	tblptrl,c
  5851  001380  0E7E               	movlw	high __powers_
  5852  001382  20F4               	addwfc	prodh,w,c
  5853  001384  6EF7               	movwf	tblptrh,c
  5854  001386                     	if	0	;There are less than 3 active tblptr bytes
  5855  001386                     	endif
  5856  001386  0009               	tblrd		*+
  5857  001388  CFF5 F0C1          	movff	tablat,?_scale
  5858  00138C  0009               	tblrd		*+
  5859  00138E  CFF5 F0C2          	movff	tablat,?_scale+1
  5860  001392  0009               	tblrd		*+
  5861  001394  CFF5 F0C3          	movff	tablat,?_scale+2
  5862  001398  000A               	tblrd		*-
  5863  00139A  CFF5 F0C4          	movff	tablat,?_scale+3
  5864  00139E  0012               	return	
  5865  0013A0                     __end_of_scale:
  5866                           	opt stack 0
  5867                           tblptru	equ	0xFF8
  5868                           tblptrh	equ	0xFF7
  5869                           tblptrl	equ	0xFF6
  5870                           tablat	equ	0xFF5
  5871                           prodh	equ	0xFF4
  5872                           prodl	equ	0xFF3
  5873                           intcon	equ	0xFF2
  5874                           postinc0	equ	0xFEE
  5875                           wreg	equ	0xFE8
  5876                           indf1	equ	0xFE7
  5877                           postdec1	equ	0xFE5
  5878                           plusw1	equ	0xFE3
  5879                           fsr1h	equ	0xFE2
  5880                           fsr1l	equ	0xFE1
  5881                           indf2	equ	0xFDF
  5882                           postinc2	equ	0xFDE
  5883                           plusw2	equ	0xFDB
  5884                           fsr2h	equ	0xFDA
  5885                           fsr2l	equ	0xFD9
  5886                           status	equ	0xFD8
  5887                           
  5888 ;; *************** function _isdigit *****************
  5889 ;; Defined at:
  5890 ;;		line 8 in file "C:\Program Files (x86)\Microchip\xc8\v1.37\sources\common\isdigit.c"
  5891 ;; Parameters:    Size  Location     Type
  5892 ;;  c               1    wreg     unsigned char 
  5893 ;; Auto vars:     Size  Location     Type
  5894 ;;  c               1    1[BANK0 ] unsigned char 
  5895 ;; Return value:  Size  Location     Type
  5896 ;;		None               void
  5897 ;; Registers used:
  5898 ;;		wreg, status,2, status,0
  5899 ;; Tracked objects:
  5900 ;;		On entry : 0/0
  5901 ;;		On exit  : 0/0
  5902 ;;		Unchanged: 0/0
  5903 ;; Data sizes:     COMRAM   BANK0   BANK1   BANK2   BANK3   BANK4   BANK5   BANK6   BANK7
  5904 ;;      Params:         0       0       0       0       0       0       0       0       0
  5905 ;;      Locals:         0       2       0       0       0       0       0       0       0
  5906 ;;      Temps:          1       0       0       0       0       0       0       0       0
  5907 ;;      Totals:         1       2       0       0       0       0       0       0       0
  5908 ;;Total ram usage:        3 bytes
  5909 ;; Hardware stack levels used:    1
  5910 ;; Hardware stack levels required when called:    2
  5911 ;; This function calls:
  5912 ;;		Nothing
  5913 ;; This function is called by:
  5914 ;;		_sprintf
  5915 ;; This function uses a non-reentrant model
  5916 ;;
  5917                           
  5918                           	psect	text12
  5919  004492                     __ptext12:
  5920                           	opt stack 0
  5921  004492                     _isdigit:
  5922                           	opt stack 25
  5923                           
  5924                           ;incstack = 0
  5925                           ;isdigit@c stored from wreg
  5926  004492  0100               	movlb	0	; () banked
  5927  004494  6F61               	movwf	isdigit@c& (0+255),b
  5928  004496  0E00               	movlw	0
  5929  004498  0100               	movlb	0	; () banked
  5930  00449A  6F60               	movwf	_isdigit$1085& (0+255),b
  5931                           
  5932                           ; BSR set to: 0
  5933  00449C  0E3A               	movlw	58
  5934  00449E  0100               	movlb	0	; () banked
  5935  0044A0  6161               	cpfslt	isdigit@c& (0+255),b
  5936  0044A2  D007               	goto	l5401
  5937                           
  5938                           ; BSR set to: 0
  5939  0044A4  0E2F               	movlw	47
  5940  0044A6  0100               	movlb	0	; () banked
  5941  0044A8  6561               	cpfsgt	isdigit@c& (0+255),b
  5942  0044AA  D003               	goto	l5401
  5943                           
  5944                           ; BSR set to: 0
  5945  0044AC  0E01               	movlw	1
  5946  0044AE  0100               	movlb	0	; () banked
  5947  0044B0  6F60               	movwf	_isdigit$1085& (0+255),b
  5948  0044B2                     l5401:
  5949                           
  5950                           ; BSR set to: 0
  5951  0044B2  C060  F020         	movff	_isdigit$1085,??_isdigit
  5952  0044B6  3020               	rrcf	??_isdigit,w,c
  5953  0044B8  0012               	return	
  5954  0044BA                     __end_of_isdigit:
  5955                           	opt stack 0
  5956                           tblptru	equ	0xFF8
  5957                           tblptrh	equ	0xFF7
  5958                           tblptrl	equ	0xFF6
  5959                           tablat	equ	0xFF5
  5960                           prodh	equ	0xFF4
  5961                           prodl	equ	0xFF3
  5962                           intcon	equ	0xFF2
  5963                           postinc0	equ	0xFEE
  5964                           wreg	equ	0xFE8
  5965                           indf1	equ	0xFE7
  5966                           postdec1	equ	0xFE5
  5967                           plusw1	equ	0xFE3
  5968                           fsr1h	equ	0xFE2
  5969                           fsr1l	equ	0xFE1
  5970                           indf2	equ	0xFDF
  5971                           postinc2	equ	0xFDE
  5972                           plusw2	equ	0xFDB
  5973                           fsr2h	equ	0xFDA
  5974                           fsr2l	equ	0xFD9
  5975                           status	equ	0xFD8
  5976                           
  5977 ;; *************** function _fround *****************
  5978 ;; Defined at:
  5979 ;;		line 409 in file "C:\Program Files (x86)\Microchip\xc8\v1.37\sources\common\doprnt.c"
  5980 ;; Parameters:    Size  Location     Type
  5981 ;;  prec            1    wreg     unsigned char 
  5982 ;; Auto vars:     Size  Location     Type
  5983 ;;  prec            1  109[BANK0 ] unsigned char 
  5984 ;; Return value:  Size  Location     Type
  5985 ;;                  4   97[BANK0 ] unsigned char 
  5986 ;; Registers used:
  5987 ;;		wreg, status,2, status,0, tblptrl, tblptrh, tblptru, prodl, prodh, cstack
  5988 ;; Tracked objects:
  5989 ;;		On entry : 0/0
  5990 ;;		On exit  : 0/0
  5991 ;;		Unchanged: 0/0
  5992 ;; Data sizes:     COMRAM   BANK0   BANK1   BANK2   BANK3   BANK4   BANK5   BANK6   BANK7
  5993 ;;      Params:         0       4       0       0       0       0       0       0       0
  5994 ;;      Locals:         0       9       0       0       0       0       0       0       0
  5995 ;;      Temps:          0       0       0       0       0       0       0       0       0
  5996 ;;      Totals:         0      13       0       0       0       0       0       0       0
  5997 ;;Total ram usage:       13 bytes
  5998 ;; Hardware stack levels used:    1
  5999 ;; Hardware stack levels required when called:    3
  6000 ;; This function calls:
  6001 ;;		___awdiv
  6002 ;;		___awmod
  6003 ;;		___flmul
  6004 ;; This function is called by:
  6005 ;;		_sprintf
  6006 ;; This function uses a non-reentrant model
  6007 ;;
  6008                           
  6009                           	psect	text13
  6010  002558                     __ptext13:
  6011                           	opt stack 0
  6012  002558                     _fround:
  6013                           	opt stack 24
  6014                           
  6015                           ; BSR set to: 0
  6016                           ;incstack = 0
  6017                           ;fround@prec stored from wreg
  6018  002558  0100               	movlb	0	; () banked
  6019  00255A  6FCD               	movwf	fround@prec& (0+255),b
  6020                           
  6021                           ;doprnt.c: 413: if(prec>=110)
  6022  00255C  0E6D               	movlw	109
  6023  00255E  0100               	movlb	0	; () banked
  6024  002560  65CD               	cpfsgt	fround@prec& (0+255),b
  6025  002562  D0C4               	goto	l5343
  6026                           
  6027                           ; BSR set to: 0
  6028                           ;doprnt.c: 414: return 0.5 * _npowers_[prec/100+18] * _npowers_[(prec%100)/10+9] * _npow
      +                          ers_[prec%10];
  6029  002564  0E00               	movlw	0
  6030  002566  0100               	movlb	0	; () banked
  6031  002568  6F69               	movwf	(___awdiv@divisor+1)& (0+255),b
  6032  00256A  0E0A               	movlw	10
  6033  00256C  6F68               	movwf	___awdiv@divisor& (0+255),b
  6034  00256E  0E00               	movlw	0
  6035  002570  0100               	movlb	0	; () banked
  6036  002572  6F63               	movwf	(___awmod@divisor+1)& (0+255),b
  6037  002574  0E64               	movlw	100
  6038  002576  6F62               	movwf	___awmod@divisor& (0+255),b
  6039  002578  C0CD  F060         	movff	fround@prec,___awmod@dividend
  6040  00257C  0100               	movlb	0	; () banked
  6041  00257E  6B61               	clrf	(___awmod@dividend+1)& (0+255),b
  6042  002580  EC00  F01F         	call	___awmod	;wreg free
  6043  002584  C060  F066         	movff	?___awmod,___awdiv@dividend
  6044  002588  C061  F067         	movff	?___awmod+1,___awdiv@dividend+1
  6045  00258C  ECE8  F01D         	call	___awdiv	;wreg free
  6046  002590  0100               	movlb	0	; () banked
  6047  002592  90D8               	bcf	status,0,c
  6048  002594  3766               	rlcf	?___awdiv& (0+255),f,b
  6049  002596  3767               	rlcf	(?___awdiv+1)& (0+255),f,b
  6050  002598  0100               	movlb	0	; () banked
  6051  00259A  90D8               	bcf	status,0,c
  6052  00259C  3766               	rlcf	?___awdiv& (0+255),f,b
  6053  00259E  3767               	rlcf	(?___awdiv+1)& (0+255),f,b
  6054  0025A0  0E24               	movlw	36
  6055  0025A2  0100               	movlb	0	; () banked
  6056  0025A4  2766               	addwf	?___awdiv& (0+255),f,b
  6057  0025A6  0E00               	movlw	0
  6058  0025A8  0100               	movlb	0	; () banked
  6059  0025AA  2367               	addwfc	(?___awdiv+1)& (0+255),f,b
  6060  0025AC  0E19               	movlw	low __npowers_
  6061  0025AE  0100               	movlb	0	; () banked
  6062  0025B0  2566               	addwf	?___awdiv& (0+255),w,b
  6063  0025B2  6EF6               	movwf	tblptrl,c
  6064  0025B4  0E7E               	movlw	high __npowers_
  6065  0025B6  0100               	movlb	0	; () banked
  6066  0025B8  2167               	addwfc	(?___awdiv+1)& (0+255),w,b
  6067  0025BA  6EF7               	movwf	tblptrh,c
  6068  0025BC                     	if	0	;There are less than 3 active tblptr bytes
  6069  0025BC                     	endif
  6070  0025BC  0009               	tblrd		*+
  6071  0025BE  CFF5 F0AC          	movff	tablat,___flmul@a
  6072  0025C2  0009               	tblrd		*+
  6073  0025C4  CFF5 F0AD          	movff	tablat,___flmul@a+1
  6074  0025C8  0009               	tblrd		*+
  6075  0025CA  CFF5 F0AE          	movff	tablat,___flmul@a+2
  6076  0025CE  000A               	tblrd		*-
  6077  0025D0  CFF5 F0AF          	movff	tablat,___flmul@a+3
  6078  0025D4  0E00               	movlw	0
  6079  0025D6  0100               	movlb	0	; () banked
  6080  0025D8  6F69               	movwf	(___awdiv@divisor+1)& (0+255),b
  6081  0025DA  0E64               	movlw	100
  6082  0025DC  6F68               	movwf	___awdiv@divisor& (0+255),b
  6083  0025DE  C0CD  F066         	movff	fround@prec,___awdiv@dividend
  6084  0025E2  0100               	movlb	0	; () banked
  6085  0025E4  6B67               	clrf	(___awdiv@dividend+1)& (0+255),b
  6086  0025E6  ECE8  F01D         	call	___awdiv	;wreg free
  6087  0025EA  0100               	movlb	0	; () banked
  6088  0025EC  90D8               	bcf	status,0,c
  6089  0025EE  3766               	rlcf	?___awdiv& (0+255),f,b
  6090  0025F0  3767               	rlcf	(?___awdiv+1)& (0+255),f,b
  6091  0025F2  0100               	movlb	0	; () banked
  6092  0025F4  90D8               	bcf	status,0,c
  6093  0025F6  3766               	rlcf	?___awdiv& (0+255),f,b
  6094  0025F8  3767               	rlcf	(?___awdiv+1)& (0+255),f,b
  6095  0025FA  0E48               	movlw	72
  6096  0025FC  0100               	movlb	0	; () banked
  6097  0025FE  2766               	addwf	?___awdiv& (0+255),f,b
  6098  002600  0E00               	movlw	0
  6099  002602  0100               	movlb	0	; () banked
  6100  002604  2367               	addwfc	(?___awdiv+1)& (0+255),f,b
  6101  002606  0E19               	movlw	low __npowers_
  6102  002608  0100               	movlb	0	; () banked
  6103  00260A  2566               	addwf	?___awdiv& (0+255),w,b
  6104  00260C  6EF6               	movwf	tblptrl,c
  6105  00260E  0E7E               	movlw	high __npowers_
  6106  002610  0100               	movlb	0	; () banked
  6107  002612  2167               	addwfc	(?___awdiv+1)& (0+255),w,b
  6108  002614  6EF7               	movwf	tblptrh,c
  6109  002616                     	if	0	;There are less than 3 active tblptr bytes
  6110  002616                     	endif
  6111  002616  0009               	tblrd		*+
  6112  002618  CFF5 F0A8          	movff	tablat,___flmul@b
  6113  00261C  0009               	tblrd		*+
  6114  00261E  CFF5 F0A9          	movff	tablat,___flmul@b+1
  6115  002622  0009               	tblrd		*+
  6116  002624  CFF5 F0AA          	movff	tablat,___flmul@b+2
  6117  002628  000A               	tblrd		*-
  6118  00262A  CFF5 F0AB          	movff	tablat,___flmul@b+3
  6119  00262E  EC79  F00E         	call	___flmul	;wreg free
  6120  002632  C0A8  F0C9         	movff	?___flmul,_fround$1516
  6121  002636  C0A9  F0CA         	movff	?___flmul+1,_fround$1516+1
  6122  00263A  C0AA  F0CB         	movff	?___flmul+2,_fround$1516+2
  6123  00263E  C0AB  F0CC         	movff	?___flmul+3,_fround$1516+3
  6124                           
  6125                           ;doprnt.c: 414: return 0.5 * _npowers_[prec/100+18] * _npowers_[(prec%100)/10+9] * _npow
      +                          ers_[prec%10];
  6126  002642  0E00               	movlw	0
  6127  002644  0100               	movlb	0	; () banked
  6128  002646  6F63               	movwf	(___awmod@divisor+1)& (0+255),b
  6129  002648  0E0A               	movlw	10
  6130  00264A  6F62               	movwf	___awmod@divisor& (0+255),b
  6131  00264C  C0CD  F060         	movff	fround@prec,___awmod@dividend
  6132  002650  0100               	movlb	0	; () banked
  6133  002652  6B61               	clrf	(___awmod@dividend+1)& (0+255),b
  6134  002654  EC00  F01F         	call	___awmod	;wreg free
  6135  002658  0100               	movlb	0	; () banked
  6136  00265A  90D8               	bcf	status,0,c
  6137  00265C  3760               	rlcf	?___awmod& (0+255),f,b
  6138  00265E  3761               	rlcf	(?___awmod+1)& (0+255),f,b
  6139  002660  0100               	movlb	0	; () banked
  6140  002662  90D8               	bcf	status,0,c
  6141  002664  3760               	rlcf	?___awmod& (0+255),f,b
  6142  002666  3761               	rlcf	(?___awmod+1)& (0+255),f,b
  6143  002668  0E19               	movlw	low __npowers_
  6144  00266A  0100               	movlb	0	; () banked
  6145  00266C  2560               	addwf	?___awmod& (0+255),w,b
  6146  00266E  6EF6               	movwf	tblptrl,c
  6147  002670  0E7E               	movlw	high __npowers_
  6148  002672  0100               	movlb	0	; () banked
  6149  002674  2161               	addwfc	(?___awmod+1)& (0+255),w,b
  6150  002676  6EF7               	movwf	tblptrh,c
  6151  002678                     	if	0	;There are less than 3 active tblptr bytes
  6152  002678                     	endif
  6153  002678  0009               	tblrd		*+
  6154  00267A  CFF5 F0AC          	movff	tablat,___flmul@a
  6155  00267E  0009               	tblrd		*+
  6156  002680  CFF5 F0AD          	movff	tablat,___flmul@a+1
  6157  002684  0009               	tblrd		*+
  6158  002686  CFF5 F0AE          	movff	tablat,___flmul@a+2
  6159  00268A  000A               	tblrd		*-
  6160  00268C  CFF5 F0AF          	movff	tablat,___flmul@a+3
  6161  002690  C0C9  F0A8         	movff	_fround$1516,___flmul@b
  6162  002694  C0CA  F0A9         	movff	_fround$1516+1,___flmul@b+1
  6163  002698  C0CB  F0AA         	movff	_fround$1516+2,___flmul@b+2
  6164  00269C  C0CC  F0AB         	movff	_fround$1516+3,___flmul@b+3
  6165  0026A0  EC79  F00E         	call	___flmul	;wreg free
  6166  0026A4  C0A8  F0C5         	movff	?___flmul,_fround$1517
  6167  0026A8  C0A9  F0C6         	movff	?___flmul+1,_fround$1517+1
  6168  0026AC  C0AA  F0C7         	movff	?___flmul+2,_fround$1517+2
  6169  0026B0  C0AB  F0C8         	movff	?___flmul+3,_fround$1517+3
  6170                           
  6171                           ;doprnt.c: 414: return 0.5 * _npowers_[prec/100+18] * _npowers_[(prec%100)/10+9] * _npow
      +                          ers_[prec%10];
  6172  0026B4  C0C5  F0A8         	movff	_fround$1517,___flmul@b
  6173  0026B8  C0C6  F0A9         	movff	_fround$1517+1,___flmul@b+1
  6174  0026BC  C0C7  F0AA         	movff	_fround$1517+2,___flmul@b+2
  6175  0026C0  C0C8  F0AB         	movff	_fround$1517+3,___flmul@b+3
  6176  0026C4  0E00               	movlw	0
  6177  0026C6  0100               	movlb	0	; () banked
  6178  0026C8  6FAC               	movwf	___flmul@a& (0+255),b
  6179  0026CA  0E00               	movlw	0
  6180  0026CC  6FAD               	movwf	(___flmul@a+1)& (0+255),b
  6181  0026CE  0E00               	movlw	0
  6182  0026D0  6FAE               	movwf	(___flmul@a+2)& (0+255),b
  6183  0026D2  0E3F               	movlw	63
  6184  0026D4  6FAF               	movwf	(___flmul@a+3)& (0+255),b
  6185  0026D6  EC79  F00E         	call	___flmul	;wreg free
  6186  0026DA  C0A8  F0C1         	movff	?___flmul,?_fround
  6187  0026DE  C0A9  F0C2         	movff	?___flmul+1,?_fround+1
  6188  0026E2  C0AA  F0C3         	movff	?___flmul+2,?_fround+2
  6189  0026E6  C0AB  F0C4         	movff	?___flmul+3,?_fround+3
  6190  0026EA  0012               	return	
  6191  0026EC                     l5343:
  6192                           
  6193                           ;doprnt.c: 415: else if(prec > 10)
  6194  0026EC  0E0A               	movlw	10
  6195  0026EE  0100               	movlb	0	; () banked
  6196  0026F0  65CD               	cpfsgt	fround@prec& (0+255),b
  6197  0026F2  D072               	goto	l5351
  6198                           
  6199                           ; BSR set to: 0
  6200                           ;doprnt.c: 416: return 0.5 * _npowers_[prec/10+9] * _npowers_[prec%10];
  6201  0026F4  0E00               	movlw	0
  6202  0026F6  0100               	movlb	0	; () banked
  6203  0026F8  6F63               	movwf	(___awmod@divisor+1)& (0+255),b
  6204  0026FA  0E0A               	movlw	10
  6205  0026FC  6F62               	movwf	___awmod@divisor& (0+255),b
  6206  0026FE  C0CD  F060         	movff	fround@prec,___awmod@dividend
  6207  002702  0100               	movlb	0	; () banked
  6208  002704  6B61               	clrf	(___awmod@dividend+1)& (0+255),b
  6209  002706  EC00  F01F         	call	___awmod	;wreg free
  6210  00270A  0100               	movlb	0	; () banked
  6211  00270C  90D8               	bcf	status,0,c
  6212  00270E  3760               	rlcf	?___awmod& (0+255),f,b
  6213  002710  3761               	rlcf	(?___awmod+1)& (0+255),f,b
  6214  002712  0100               	movlb	0	; () banked
  6215  002714  90D8               	bcf	status,0,c
  6216  002716  3760               	rlcf	?___awmod& (0+255),f,b
  6217  002718  3761               	rlcf	(?___awmod+1)& (0+255),f,b
  6218  00271A  0E19               	movlw	low __npowers_
  6219  00271C  0100               	movlb	0	; () banked
  6220  00271E  2560               	addwf	?___awmod& (0+255),w,b
  6221  002720  6EF6               	movwf	tblptrl,c
  6222  002722  0E7E               	movlw	high __npowers_
  6223  002724  0100               	movlb	0	; () banked
  6224  002726  2161               	addwfc	(?___awmod+1)& (0+255),w,b
  6225  002728  6EF7               	movwf	tblptrh,c
  6226  00272A                     	if	0	;There are less than 3 active tblptr bytes
  6227  00272A                     	endif
  6228  00272A  0009               	tblrd		*+
  6229  00272C  CFF5 F0AC          	movff	tablat,___flmul@a
  6230  002730  0009               	tblrd		*+
  6231  002732  CFF5 F0AD          	movff	tablat,___flmul@a+1
  6232  002736  0009               	tblrd		*+
  6233  002738  CFF5 F0AE          	movff	tablat,___flmul@a+2
  6234  00273C  000A               	tblrd		*-
  6235  00273E  CFF5 F0AF          	movff	tablat,___flmul@a+3
  6236  002742  0E00               	movlw	0
  6237  002744  0100               	movlb	0	; () banked
  6238  002746  6F69               	movwf	(___awdiv@divisor+1)& (0+255),b
  6239  002748  0E0A               	movlw	10
  6240  00274A  6F68               	movwf	___awdiv@divisor& (0+255),b
  6241  00274C  C0CD  F066         	movff	fround@prec,___awdiv@dividend
  6242  002750  0100               	movlb	0	; () banked
  6243  002752  6B67               	clrf	(___awdiv@dividend+1)& (0+255),b
  6244  002754  ECE8  F01D         	call	___awdiv	;wreg free
  6245  002758  0100               	movlb	0	; () banked
  6246  00275A  90D8               	bcf	status,0,c
  6247  00275C  3766               	rlcf	?___awdiv& (0+255),f,b
  6248  00275E  3767               	rlcf	(?___awdiv+1)& (0+255),f,b
  6249  002760  0100               	movlb	0	; () banked
  6250  002762  90D8               	bcf	status,0,c
  6251  002764  3766               	rlcf	?___awdiv& (0+255),f,b
  6252  002766  3767               	rlcf	(?___awdiv+1)& (0+255),f,b
  6253  002768  0E24               	movlw	36
  6254  00276A  0100               	movlb	0	; () banked
  6255  00276C  2766               	addwf	?___awdiv& (0+255),f,b
  6256  00276E  0E00               	movlw	0
  6257  002770  0100               	movlb	0	; () banked
  6258  002772  2367               	addwfc	(?___awdiv+1)& (0+255),f,b
  6259  002774  0E19               	movlw	low __npowers_
  6260  002776  0100               	movlb	0	; () banked
  6261  002778  2566               	addwf	?___awdiv& (0+255),w,b
  6262  00277A  6EF6               	movwf	tblptrl,c
  6263  00277C  0E7E               	movlw	high __npowers_
  6264  00277E  0100               	movlb	0	; () banked
  6265  002780  2167               	addwfc	(?___awdiv+1)& (0+255),w,b
  6266  002782  6EF7               	movwf	tblptrh,c
  6267  002784                     	if	0	;There are less than 3 active tblptr bytes
  6268  002784                     	endif
  6269  002784  0009               	tblrd		*+
  6270  002786  CFF5 F0A8          	movff	tablat,___flmul@b
  6271  00278A  0009               	tblrd		*+
  6272  00278C  CFF5 F0A9          	movff	tablat,___flmul@b+1
  6273  002790  0009               	tblrd		*+
  6274  002792  CFF5 F0AA          	movff	tablat,___flmul@b+2
  6275  002796  000A               	tblrd		*-
  6276  002798  CFF5 F0AB          	movff	tablat,___flmul@b+3
  6277  00279C  EC79  F00E         	call	___flmul	;wreg free
  6278  0027A0  C0A8  F0C9         	movff	?___flmul,_fround$1516
  6279  0027A4  C0A9  F0CA         	movff	?___flmul+1,_fround$1516+1
  6280  0027A8  C0AA  F0CB         	movff	?___flmul+2,_fround$1516+2
  6281  0027AC  C0AB  F0CC         	movff	?___flmul+3,_fround$1516+3
  6282                           
  6283                           ;doprnt.c: 416: return 0.5 * _npowers_[prec/10+9] * _npowers_[prec%10];
  6284  0027B0  C0C9  F0A8         	movff	_fround$1516,___flmul@b
  6285  0027B4  C0CA  F0A9         	movff	_fround$1516+1,___flmul@b+1
  6286  0027B8  C0CB  F0AA         	movff	_fround$1516+2,___flmul@b+2
  6287  0027BC  C0CC  F0AB         	movff	_fround$1516+3,___flmul@b+3
  6288  0027C0  0E00               	movlw	0
  6289  0027C2  0100               	movlb	0	; () banked
  6290  0027C4  6FAC               	movwf	___flmul@a& (0+255),b
  6291  0027C6  0E00               	movlw	0
  6292  0027C8  6FAD               	movwf	(___flmul@a+1)& (0+255),b
  6293  0027CA  0E00               	movlw	0
  6294  0027CC  6FAE               	movwf	(___flmul@a+2)& (0+255),b
  6295  0027CE  0E3F               	movlw	63
  6296  0027D0  6FAF               	movwf	(___flmul@a+3)& (0+255),b
  6297  0027D2  EC79  F00E         	call	___flmul	;wreg free
  6298  0027D6  D781               	goto	L6
  6299  0027D8                     l5351:
  6300                           
  6301                           ;doprnt.c: 417: return 0.5 * _npowers_[prec];
  6302  0027D8  0100               	movlb	0	; () banked
  6303  0027DA  51CD               	movf	fround@prec& (0+255),w,b
  6304  0027DC  0D04               	mullw	4
  6305  0027DE  0E19               	movlw	low __npowers_
  6306  0027E0  24F3               	addwf	prodl,w,c
  6307  0027E2  6EF6               	movwf	tblptrl,c
  6308  0027E4  0E7E               	movlw	high __npowers_
  6309  0027E6  20F4               	addwfc	prodh,w,c
  6310  0027E8  6EF7               	movwf	tblptrh,c
  6311  0027EA                     	if	0	;There are less than 3 active tblptr bytes
  6312  0027EA                     	endif
  6313  0027EA  0009               	tblrd		*+
  6314  0027EC  CFF5 F0A8          	movff	tablat,___flmul@b
  6315  0027F0  0009               	tblrd		*+
  6316  0027F2  CFF5 F0A9          	movff	tablat,___flmul@b+1
  6317  0027F6  0009               	tblrd		*+
  6318  0027F8  CFF5 F0AA          	movff	tablat,___flmul@b+2
  6319  0027FC  000A               	tblrd		*-
  6320  0027FE  CFF5 F0AB          	movff	tablat,___flmul@b+3
  6321  002802  0E00               	movlw	0
  6322  002804  0100               	movlb	0	; () banked
  6323  002806  6FAC               	movwf	___flmul@a& (0+255),b
  6324  002808  0E00               	movlw	0
  6325  00280A  6FAD               	movwf	(___flmul@a+1)& (0+255),b
  6326  00280C  0E00               	movlw	0
  6327  00280E  6FAE               	movwf	(___flmul@a+2)& (0+255),b
  6328  002810  0E3F               	movlw	63
  6329  002812  6FAF               	movwf	(___flmul@a+3)& (0+255),b
  6330  002814  EC79  F00E         	call	___flmul	;wreg free
  6331  002818  C0A8  F0C1         	movff	?___flmul,?_fround
  6332  00281C  C0A9  F0C2         	movff	?___flmul+1,?_fround+1
  6333  002820  C0AA  F0C3         	movff	?___flmul+2,?_fround+2
  6334  002824  C0AB  F0C4         	movff	?___flmul+3,?_fround+3
  6335  002828  0012               	return	
  6336  00282A                     __end_of_fround:
  6337                           	opt stack 0
  6338                           tblptru	equ	0xFF8
  6339                           tblptrh	equ	0xFF7
  6340                           tblptrl	equ	0xFF6
  6341                           tablat	equ	0xFF5
  6342                           prodh	equ	0xFF4
  6343                           prodl	equ	0xFF3
  6344                           intcon	equ	0xFF2
  6345                           postinc0	equ	0xFEE
  6346                           wreg	equ	0xFE8
  6347                           indf1	equ	0xFE7
  6348                           postdec1	equ	0xFE5
  6349                           plusw1	equ	0xFE3
  6350                           fsr1h	equ	0xFE2
  6351                           fsr1l	equ	0xFE1
  6352                           indf2	equ	0xFDF
  6353                           postinc2	equ	0xFDE
  6354                           plusw2	equ	0xFDB
  6355                           fsr2h	equ	0xFDA
  6356                           fsr2l	equ	0xFD9
  6357                           status	equ	0xFD8
  6358                           
  6359 ;; *************** function ___awmod *****************
  6360 ;; Defined at:
  6361 ;;		line 8 in file "C:\Program Files (x86)\Microchip\xc8\v1.37\sources\common\awmod.c"
  6362 ;; Parameters:    Size  Location     Type
  6363 ;;  dividend        2    0[BANK0 ] int 
  6364 ;;  divisor         2    2[BANK0 ] int 
  6365 ;; Auto vars:     Size  Location     Type
  6366 ;;  sign            1    5[BANK0 ] unsigned char 
  6367 ;;  counter         1    4[BANK0 ] unsigned char 
  6368 ;; Return value:  Size  Location     Type
  6369 ;;                  2    0[BANK0 ] int 
  6370 ;; Registers used:
  6371 ;;		wreg, status,2, status,0
  6372 ;; Tracked objects:
  6373 ;;		On entry : 0/0
  6374 ;;		On exit  : 0/0
  6375 ;;		Unchanged: 0/0
  6376 ;; Data sizes:     COMRAM   BANK0   BANK1   BANK2   BANK3   BANK4   BANK5   BANK6   BANK7
  6377 ;;      Params:         0       4       0       0       0       0       0       0       0
  6378 ;;      Locals:         0       2       0       0       0       0       0       0       0
  6379 ;;      Temps:          0       0       0       0       0       0       0       0       0
  6380 ;;      Totals:         0       6       0       0       0       0       0       0       0
  6381 ;;Total ram usage:        6 bytes
  6382 ;; Hardware stack levels used:    1
  6383 ;; Hardware stack levels required when called:    2
  6384 ;; This function calls:
  6385 ;;		Nothing
  6386 ;; This function is called by:
  6387 ;;		_fround
  6388 ;;		_scale
  6389 ;; This function uses a non-reentrant model
  6390 ;;
  6391                           
  6392                           	psect	text14
  6393  003E00                     __ptext14:
  6394                           	opt stack 0
  6395  003E00                     ___awmod:
  6396                           	opt stack 24
  6397                           
  6398                           ;incstack = 0
  6399  003E00  0E00               	movlw	0
  6400  003E02  0100               	movlb	0	; () banked
  6401  003E04  6F65               	movwf	___awmod@sign& (0+255),b
  6402                           
  6403                           ; BSR set to: 0
  6404  003E06  0100               	movlb	0	; () banked
  6405  003E08  AF61               	btfss	(___awmod@dividend+1)& (0+255),7,b
  6406  003E0A  D008               	goto	l5159
  6407                           
  6408                           ; BSR set to: 0
  6409  003E0C  0100               	movlb	0	; () banked
  6410  003E0E  6D60               	negf	___awmod@dividend& (0+255),b
  6411  003E10  1F61               	comf	(___awmod@dividend+1)& (0+255),f,b
  6412  003E12  B0D8               	btfsc	status,0,c
  6413  003E14  2B61               	incf	(___awmod@dividend+1)& (0+255),f,b
  6414                           
  6415                           ; BSR set to: 0
  6416  003E16  0E01               	movlw	1
  6417  003E18  0100               	movlb	0	; () banked
  6418  003E1A  6F65               	movwf	___awmod@sign& (0+255),b
  6419  003E1C                     l5159:
  6420                           
  6421                           ; BSR set to: 0
  6422  003E1C  0100               	movlb	0	; () banked
  6423  003E1E  AF63               	btfss	(___awmod@divisor+1)& (0+255),7,b
  6424  003E20  D005               	goto	l5163
  6425                           
  6426                           ; BSR set to: 0
  6427  003E22  0100               	movlb	0	; () banked
  6428  003E24  6D62               	negf	___awmod@divisor& (0+255),b
  6429  003E26  1F63               	comf	(___awmod@divisor+1)& (0+255),f,b
  6430  003E28  B0D8               	btfsc	status,0,c
  6431  003E2A  2B63               	incf	(___awmod@divisor+1)& (0+255),f,b
  6432  003E2C                     l5163:
  6433                           
  6434                           ; BSR set to: 0
  6435  003E2C  0100               	movlb	0	; () banked
  6436  003E2E  5162               	movf	___awmod@divisor& (0+255),w,b
  6437  003E30  0100               	movlb	0	; () banked
  6438  003E32  1163               	iorwf	(___awmod@divisor+1)& (0+255),w,b
  6439  003E34  B4D8               	btfsc	status,2,c
  6440  003E36  D026               	goto	l5179
  6441                           
  6442                           ; BSR set to: 0
  6443  003E38  0E01               	movlw	1
  6444  003E3A  0100               	movlb	0	; () banked
  6445  003E3C  6F64               	movwf	___awmod@counter& (0+255),b
  6446  003E3E  D006               	goto	l5169
  6447  003E40                     l5167:
  6448                           
  6449                           ; BSR set to: 0
  6450  003E40  0100               	movlb	0	; () banked
  6451  003E42  90D8               	bcf	status,0,c
  6452  003E44  3762               	rlcf	___awmod@divisor& (0+255),f,b
  6453  003E46  3763               	rlcf	(___awmod@divisor+1)& (0+255),f,b
  6454  003E48  0100               	movlb	0	; () banked
  6455  003E4A  2B64               	incf	___awmod@counter& (0+255),f,b
  6456  003E4C                     l5169:
  6457                           
  6458                           ; BSR set to: 0
  6459  003E4C  0100               	movlb	0	; () banked
  6460  003E4E  AF63               	btfss	(___awmod@divisor+1)& (0+255),7,b
  6461  003E50  D7F7               	goto	l5167
  6462  003E52                     l5171:
  6463                           
  6464                           ; BSR set to: 0
  6465  003E52  0100               	movlb	0	; () banked
  6466  003E54  5162               	movf	___awmod@divisor& (0+255),w,b
  6467  003E56  0100               	movlb	0	; () banked
  6468  003E58  5D60               	subwf	___awmod@dividend& (0+255),w,b
  6469  003E5A  0100               	movlb	0	; () banked
  6470  003E5C  5163               	movf	(___awmod@divisor+1)& (0+255),w,b
  6471  003E5E  0100               	movlb	0	; () banked
  6472  003E60  5961               	subwfb	(___awmod@dividend+1)& (0+255),w,b
  6473  003E62  A0D8               	btfss	status,0,c
  6474  003E64  D008               	goto	l5175
  6475                           
  6476                           ; BSR set to: 0
  6477  003E66  0100               	movlb	0	; () banked
  6478  003E68  5162               	movf	___awmod@divisor& (0+255),w,b
  6479  003E6A  0100               	movlb	0	; () banked
  6480  003E6C  5F60               	subwf	___awmod@dividend& (0+255),f,b
  6481  003E6E  0100               	movlb	0	; () banked
  6482  003E70  5163               	movf	(___awmod@divisor+1)& (0+255),w,b
  6483  003E72  0100               	movlb	0	; () banked
  6484  003E74  5B61               	subwfb	(___awmod@dividend+1)& (0+255),f,b
  6485  003E76                     l5175:
  6486                           
  6487                           ; BSR set to: 0
  6488  003E76  0100               	movlb	0	; () banked
  6489  003E78  90D8               	bcf	status,0,c
  6490  003E7A  3363               	rrcf	(___awmod@divisor+1)& (0+255),f,b
  6491  003E7C  3362               	rrcf	___awmod@divisor& (0+255),f,b
  6492                           
  6493                           ; BSR set to: 0
  6494  003E7E  0100               	movlb	0	; () banked
  6495  003E80  2F64               	decfsz	___awmod@counter& (0+255),f,b
  6496  003E82  D7E7               	goto	l5171
  6497  003E84                     l5179:
  6498                           
  6499                           ; BSR set to: 0
  6500  003E84  0100               	movlb	0	; () banked
  6501  003E86  5165               	movf	___awmod@sign& (0+255),w,b
  6502  003E88  0100               	movlb	0	; () banked
  6503  003E8A  B4D8               	btfsc	status,2,c
  6504  003E8C  D005               	goto	l5183
  6505                           
  6506                           ; BSR set to: 0
  6507  003E8E  0100               	movlb	0	; () banked
  6508  003E90  6D60               	negf	___awmod@dividend& (0+255),b
  6509  003E92  1F61               	comf	(___awmod@dividend+1)& (0+255),f,b
  6510  003E94  B0D8               	btfsc	status,0,c
  6511  003E96  2B61               	incf	(___awmod@dividend+1)& (0+255),f,b
  6512  003E98                     l5183:
  6513                           
  6514                           ; BSR set to: 0
  6515  003E98  C060  F060         	movff	___awmod@dividend,?___awmod
  6516  003E9C  C061  F061         	movff	___awmod@dividend+1,?___awmod+1
  6517  003EA0  0012               	return	
  6518  003EA2                     __end_of___awmod:
  6519                           	opt stack 0
  6520                           tblptru	equ	0xFF8
  6521                           tblptrh	equ	0xFF7
  6522                           tblptrl	equ	0xFF6
  6523                           tablat	equ	0xFF5
  6524                           prodh	equ	0xFF4
  6525                           prodl	equ	0xFF3
  6526                           intcon	equ	0xFF2
  6527                           postinc0	equ	0xFEE
  6528                           wreg	equ	0xFE8
  6529                           indf1	equ	0xFE7
  6530                           postdec1	equ	0xFE5
  6531                           plusw1	equ	0xFE3
  6532                           fsr1h	equ	0xFE2
  6533                           fsr1l	equ	0xFE1
  6534                           indf2	equ	0xFDF
  6535                           postinc2	equ	0xFDE
  6536                           plusw2	equ	0xFDB
  6537                           fsr2h	equ	0xFDA
  6538                           fsr2l	equ	0xFD9
  6539                           status	equ	0xFD8
  6540                           
  6541 ;; *************** function ___awdiv *****************
  6542 ;; Defined at:
  6543 ;;		line 8 in file "C:\Program Files (x86)\Microchip\xc8\v1.37\sources\common\awdiv.c"
  6544 ;; Parameters:    Size  Location     Type
  6545 ;;  dividend        2    6[BANK0 ] int 
  6546 ;;  divisor         2    8[BANK0 ] int 
  6547 ;; Auto vars:     Size  Location     Type
  6548 ;;  quotient        2   12[BANK0 ] int 
  6549 ;;  sign            1   11[BANK0 ] unsigned char 
  6550 ;;  counter         1   10[BANK0 ] unsigned char 
  6551 ;; Return value:  Size  Location     Type
  6552 ;;                  2    6[BANK0 ] int 
  6553 ;; Registers used:
  6554 ;;		wreg, status,2, status,0
  6555 ;; Tracked objects:
  6556 ;;		On entry : 0/0
  6557 ;;		On exit  : 0/0
  6558 ;;		Unchanged: 0/0
  6559 ;; Data sizes:     COMRAM   BANK0   BANK1   BANK2   BANK3   BANK4   BANK5   BANK6   BANK7
  6560 ;;      Params:         0       4       0       0       0       0       0       0       0
  6561 ;;      Locals:         0       4       0       0       0       0       0       0       0
  6562 ;;      Temps:          0       0       0       0       0       0       0       0       0
  6563 ;;      Totals:         0       8       0       0       0       0       0       0       0
  6564 ;;Total ram usage:        8 bytes
  6565 ;; Hardware stack levels used:    1
  6566 ;; Hardware stack levels required when called:    2
  6567 ;; This function calls:
  6568 ;;		Nothing
  6569 ;; This function is called by:
  6570 ;;		_fround
  6571 ;;		_scale
  6572 ;;		_sprintf
  6573 ;; This function uses a non-reentrant model
  6574 ;;
  6575                           
  6576                           	psect	text15
  6577  003BD0                     __ptext15:
  6578                           	opt stack 0
  6579  003BD0                     ___awdiv:
  6580                           	opt stack 24
  6581                           
  6582                           ; BSR set to: 0
  6583                           ;incstack = 0
  6584  003BD0  0E00               	movlw	0
  6585  003BD2  0100               	movlb	0	; () banked
  6586  003BD4  6F6B               	movwf	___awdiv@sign& (0+255),b
  6587                           
  6588                           ; BSR set to: 0
  6589  003BD6  0100               	movlb	0	; () banked
  6590  003BD8  AF69               	btfss	(___awdiv@divisor+1)& (0+255),7,b
  6591  003BDA  D008               	goto	l5115
  6592                           
  6593                           ; BSR set to: 0
  6594  003BDC  0100               	movlb	0	; () banked
  6595  003BDE  6D68               	negf	___awdiv@divisor& (0+255),b
  6596  003BE0  1F69               	comf	(___awdiv@divisor+1)& (0+255),f,b
  6597  003BE2  B0D8               	btfsc	status,0,c
  6598  003BE4  2B69               	incf	(___awdiv@divisor+1)& (0+255),f,b
  6599                           
  6600                           ; BSR set to: 0
  6601  003BE6  0E01               	movlw	1
  6602  003BE8  0100               	movlb	0	; () banked
  6603  003BEA  6F6B               	movwf	___awdiv@sign& (0+255),b
  6604  003BEC                     l5115:
  6605                           
  6606                           ; BSR set to: 0
  6607  003BEC  0100               	movlb	0	; () banked
  6608  003BEE  AF67               	btfss	(___awdiv@dividend+1)& (0+255),7,b
  6609  003BF0  D008               	goto	l5121
  6610                           
  6611                           ; BSR set to: 0
  6612  003BF2  0100               	movlb	0	; () banked
  6613  003BF4  6D66               	negf	___awdiv@dividend& (0+255),b
  6614  003BF6  1F67               	comf	(___awdiv@dividend+1)& (0+255),f,b
  6615  003BF8  B0D8               	btfsc	status,0,c
  6616  003BFA  2B67               	incf	(___awdiv@dividend+1)& (0+255),f,b
  6617                           
  6618                           ; BSR set to: 0
  6619  003BFC  0E01               	movlw	1
  6620  003BFE  0100               	movlb	0	; () banked
  6621  003C00  1B6B               	xorwf	___awdiv@sign& (0+255),f,b
  6622  003C02                     l5121:
  6623                           
  6624                           ; BSR set to: 0
  6625  003C02  0E00               	movlw	0
  6626  003C04  0100               	movlb	0	; () banked
  6627  003C06  6F6D               	movwf	(___awdiv@quotient+1)& (0+255),b
  6628  003C08  0E00               	movlw	0
  6629  003C0A  6F6C               	movwf	___awdiv@quotient& (0+255),b
  6630                           
  6631                           ; BSR set to: 0
  6632  003C0C  0100               	movlb	0	; () banked
  6633  003C0E  5168               	movf	___awdiv@divisor& (0+255),w,b
  6634  003C10  0100               	movlb	0	; () banked
  6635  003C12  1169               	iorwf	(___awdiv@divisor+1)& (0+255),w,b
  6636  003C14  B4D8               	btfsc	status,2,c
  6637  003C16  D02C               	goto	l5143
  6638                           
  6639                           ; BSR set to: 0
  6640  003C18  0E01               	movlw	1
  6641  003C1A  0100               	movlb	0	; () banked
  6642  003C1C  6F6A               	movwf	___awdiv@counter& (0+255),b
  6643  003C1E  D006               	goto	l5129
  6644  003C20                     l5127:
  6645                           
  6646                           ; BSR set to: 0
  6647  003C20  0100               	movlb	0	; () banked
  6648  003C22  90D8               	bcf	status,0,c
  6649  003C24  3768               	rlcf	___awdiv@divisor& (0+255),f,b
  6650  003C26  3769               	rlcf	(___awdiv@divisor+1)& (0+255),f,b
  6651  003C28  0100               	movlb	0	; () banked
  6652  003C2A  2B6A               	incf	___awdiv@counter& (0+255),f,b
  6653  003C2C                     l5129:
  6654                           
  6655                           ; BSR set to: 0
  6656  003C2C  0100               	movlb	0	; () banked
  6657  003C2E  AF69               	btfss	(___awdiv@divisor+1)& (0+255),7,b
  6658  003C30  D7F7               	goto	l5127
  6659  003C32                     l5131:
  6660                           
  6661                           ; BSR set to: 0
  6662  003C32  0100               	movlb	0	; () banked
  6663  003C34  90D8               	bcf	status,0,c
  6664  003C36  376C               	rlcf	___awdiv@quotient& (0+255),f,b
  6665  003C38  376D               	rlcf	(___awdiv@quotient+1)& (0+255),f,b
  6666                           
  6667                           ; BSR set to: 0
  6668  003C3A  0100               	movlb	0	; () banked
  6669  003C3C  5168               	movf	___awdiv@divisor& (0+255),w,b
  6670  003C3E  0100               	movlb	0	; () banked
  6671  003C40  5D66               	subwf	___awdiv@dividend& (0+255),w,b
  6672  003C42  0100               	movlb	0	; () banked
  6673  003C44  5169               	movf	(___awdiv@divisor+1)& (0+255),w,b
  6674  003C46  0100               	movlb	0	; () banked
  6675  003C48  5967               	subwfb	(___awdiv@dividend+1)& (0+255),w,b
  6676  003C4A  A0D8               	btfss	status,0,c
  6677  003C4C  D00A               	goto	l5139
  6678                           
  6679                           ; BSR set to: 0
  6680  003C4E  0100               	movlb	0	; () banked
  6681  003C50  5168               	movf	___awdiv@divisor& (0+255),w,b
  6682  003C52  0100               	movlb	0	; () banked
  6683  003C54  5F66               	subwf	___awdiv@dividend& (0+255),f,b
  6684  003C56  0100               	movlb	0	; () banked
  6685  003C58  5169               	movf	(___awdiv@divisor+1)& (0+255),w,b
  6686  003C5A  0100               	movlb	0	; () banked
  6687  003C5C  5B67               	subwfb	(___awdiv@dividend+1)& (0+255),f,b
  6688                           
  6689                           ; BSR set to: 0
  6690  003C5E  0100               	movlb	0	; () banked
  6691  003C60  816C               	bsf	___awdiv@quotient& (0+255),0,b
  6692  003C62                     l5139:
  6693                           
  6694                           ; BSR set to: 0
  6695  003C62  0100               	movlb	0	; () banked
  6696  003C64  90D8               	bcf	status,0,c
  6697  003C66  3369               	rrcf	(___awdiv@divisor+1)& (0+255),f,b
  6698  003C68  3368               	rrcf	___awdiv@divisor& (0+255),f,b
  6699                           
  6700                           ; BSR set to: 0
  6701  003C6A  0100               	movlb	0	; () banked
  6702  003C6C  2F6A               	decfsz	___awdiv@counter& (0+255),f,b
  6703  003C6E  D7E1               	goto	l5131
  6704  003C70                     l5143:
  6705                           
  6706                           ; BSR set to: 0
  6707  003C70  0100               	movlb	0	; () banked
  6708  003C72  516B               	movf	___awdiv@sign& (0+255),w,b
  6709  003C74  0100               	movlb	0	; () banked
  6710  003C76  B4D8               	btfsc	status,2,c
  6711  003C78  D005               	goto	l5147
  6712                           
  6713                           ; BSR set to: 0
  6714  003C7A  0100               	movlb	0	; () banked
  6715  003C7C  6D6C               	negf	___awdiv@quotient& (0+255),b
  6716  003C7E  1F6D               	comf	(___awdiv@quotient+1)& (0+255),f,b
  6717  003C80  B0D8               	btfsc	status,0,c
  6718  003C82  2B6D               	incf	(___awdiv@quotient+1)& (0+255),f,b
  6719  003C84                     l5147:
  6720                           
  6721                           ; BSR set to: 0
  6722  003C84  C06C  F066         	movff	___awdiv@quotient,?___awdiv
  6723  003C88  C06D  F067         	movff	___awdiv@quotient+1,?___awdiv+1
  6724  003C8C  0012               	return	
  6725  003C8E                     __end_of___awdiv:
  6726                           	opt stack 0
  6727                           tblptru	equ	0xFF8
  6728                           tblptrh	equ	0xFF7
  6729                           tblptrl	equ	0xFF6
  6730                           tablat	equ	0xFF5
  6731                           prodh	equ	0xFF4
  6732                           prodl	equ	0xFF3
  6733                           intcon	equ	0xFF2
  6734                           postinc0	equ	0xFEE
  6735                           wreg	equ	0xFE8
  6736                           indf1	equ	0xFE7
  6737                           postdec1	equ	0xFE5
  6738                           plusw1	equ	0xFE3
  6739                           fsr1h	equ	0xFE2
  6740                           fsr1l	equ	0xFE1
  6741                           indf2	equ	0xFDF
  6742                           postinc2	equ	0xFDE
  6743                           plusw2	equ	0xFDB
  6744                           fsr2h	equ	0xFDA
  6745                           fsr2l	equ	0xFD9
  6746                           status	equ	0xFD8
  6747                           
  6748 ;; *************** function __tdiv_to_l_ *****************
  6749 ;; Defined at:
  6750 ;;		line 60 in file "C:\Program Files (x86)\Microchip\xc8\v1.37\sources\common\ftdivl.c"
  6751 ;; Parameters:    Size  Location     Type
  6752 ;;  f1              4    0[BANK0 ] float 
  6753 ;;  f2              4    4[BANK0 ] float 
  6754 ;; Auto vars:     Size  Location     Type
  6755 ;;  quot            4   11[BANK0 ] unsigned long 
  6756 ;;  exp1            1   16[BANK0 ] unsigned char 
  6757 ;;  cntr            1   15[BANK0 ] unsigned char 
  6758 ;; Return value:  Size  Location     Type
  6759 ;;                  4    0[BANK0 ] unsigned long 
  6760 ;; Registers used:
  6761 ;;		wreg, status,2, status,0
  6762 ;; Tracked objects:
  6763 ;;		On entry : 0/0
  6764 ;;		On exit  : 0/0
  6765 ;;		Unchanged: 0/0
  6766 ;; Data sizes:     COMRAM   BANK0   BANK1   BANK2   BANK3   BANK4   BANK5   BANK6   BANK7
  6767 ;;      Params:         0       8       0       0       0       0       0       0       0
  6768 ;;      Locals:         0       6       0       0       0       0       0       0       0
  6769 ;;      Temps:          0       3       0       0       0       0       0       0       0
  6770 ;;      Totals:         0      17       0       0       0       0       0       0       0
  6771 ;;Total ram usage:       17 bytes
  6772 ;; Hardware stack levels used:    1
  6773 ;; Hardware stack levels required when called:    2
  6774 ;; This function calls:
  6775 ;;		Nothing
  6776 ;; This function is called by:
  6777 ;;		_sprintf
  6778 ;; This function uses a non-reentrant model
  6779 ;;
  6780                           
  6781                           	psect	text16
  6782  002D8A                     __ptext16:
  6783                           	opt stack 0
  6784  002D8A                     __tdiv_to_l_:
  6785                           	opt stack 25
  6786                           
  6787                           ; BSR set to: 0
  6788                           ;incstack = 0
  6789  002D8A  C062  F068         	movff	__tdiv_to_l_@f1+2,??__tdiv_to_l_
  6790  002D8E  0100               	movlb	0	; () banked
  6791  002D90  6B69               	clrf	(??__tdiv_to_l_+1)& (0+255),b
  6792  002D92  6B6A               	clrf	(??__tdiv_to_l_+2)& (0+255),b
  6793  002D94  0100               	movlb	0	; () banked
  6794  002D96  3561               	rlcf	(__tdiv_to_l_@f1+1)& (0+255),w,b
  6795  002D98  0100               	movlb	0	; () banked
  6796  002D9A  3768               	rlcf	??__tdiv_to_l_& (0+255),f,b
  6797  002D9C  E301               	bnc	u5931
  6798  002D9E  8169               	bsf	(??__tdiv_to_l_+1)& (0+255),0,b
  6799  002DA0                     u5931:
  6800  002DA0  0100               	movlb	0	; () banked
  6801  002DA2  5168               	movf	??__tdiv_to_l_& (0+255),w,b
  6802  002DA4  0100               	movlb	0	; () banked
  6803  002DA6  6F70               	movwf	__tdiv_to_l_@exp1& (0+255),b
  6804  002DA8  0100               	movlb	0	; () banked
  6805  002DAA  5170               	movf	__tdiv_to_l_@exp1& (0+255),w,b
  6806  002DAC  A4D8               	btfss	status,2,c
  6807  002DAE  D00A               	goto	l5411
  6808                           
  6809                           ; BSR set to: 0
  6810  002DB0  0E00               	movlw	0
  6811  002DB2  0100               	movlb	0	; () banked
  6812  002DB4  6F60               	movwf	?__tdiv_to_l_& (0+255),b
  6813  002DB6  0E00               	movlw	0
  6814  002DB8  6F61               	movwf	(?__tdiv_to_l_+1)& (0+255),b
  6815  002DBA  0E00               	movlw	0
  6816  002DBC  6F62               	movwf	(?__tdiv_to_l_+2)& (0+255),b
  6817  002DBE  0E00               	movlw	0
  6818  002DC0  6F63               	movwf	(?__tdiv_to_l_+3)& (0+255),b
  6819                           
  6820                           ; BSR set to: 0
  6821  002DC2  0012               	return	
  6822  002DC4                     l5411:
  6823                           
  6824                           ; BSR set to: 0
  6825  002DC4  C066  F068         	movff	__tdiv_to_l_@f2+2,??__tdiv_to_l_
  6826  002DC8  0100               	movlb	0	; () banked
  6827  002DCA  6B69               	clrf	(??__tdiv_to_l_+1)& (0+255),b
  6828  002DCC  6B6A               	clrf	(??__tdiv_to_l_+2)& (0+255),b
  6829  002DCE  0100               	movlb	0	; () banked
  6830  002DD0  3565               	rlcf	(__tdiv_to_l_@f2+1)& (0+255),w,b
  6831  002DD2  0100               	movlb	0	; () banked
  6832  002DD4  3768               	rlcf	??__tdiv_to_l_& (0+255),f,b
  6833  002DD6  E301               	bnc	u5951
  6834  002DD8  8169               	bsf	(??__tdiv_to_l_+1)& (0+255),0,b
  6835  002DDA                     u5951:
  6836  002DDA  0100               	movlb	0	; () banked
  6837  002DDC  5168               	movf	??__tdiv_to_l_& (0+255),w,b
  6838  002DDE  0100               	movlb	0	; () banked
  6839  002DE0  6F6F               	movwf	__tdiv_to_l_@cntr& (0+255),b
  6840  002DE2  0100               	movlb	0	; () banked
  6841  002DE4  516F               	movf	__tdiv_to_l_@cntr& (0+255),w,b
  6842  002DE6  A4D8               	btfss	status,2,c
  6843  002DE8  D00A               	goto	l5417
  6844                           
  6845                           ; BSR set to: 0
  6846  002DEA  0E00               	movlw	0
  6847  002DEC  0100               	movlb	0	; () banked
  6848  002DEE  6F60               	movwf	?__tdiv_to_l_& (0+255),b
  6849  002DF0  0E00               	movlw	0
  6850  002DF2  6F61               	movwf	(?__tdiv_to_l_+1)& (0+255),b
  6851  002DF4  0E00               	movlw	0
  6852  002DF6  6F62               	movwf	(?__tdiv_to_l_+2)& (0+255),b
  6853  002DF8  0E00               	movlw	0
  6854  002DFA  6F63               	movwf	(?__tdiv_to_l_+3)& (0+255),b
  6855                           
  6856                           ; BSR set to: 0
  6857  002DFC  0012               	return	
  6858  002DFE                     l5417:
  6859                           
  6860                           ; BSR set to: 0
  6861  002DFE  0100               	movlb	0	; () banked
  6862  002E00  8F61               	bsf	(__tdiv_to_l_@f1+1)& (0+255),7,b
  6863                           
  6864                           ; BSR set to: 0
  6865  002E02  0EFF               	movlw	255
  6866  002E04  0100               	movlb	0	; () banked
  6867  002E06  1760               	andwf	__tdiv_to_l_@f1& (0+255),f,b
  6868  002E08  0EFF               	movlw	255
  6869  002E0A  0100               	movlb	0	; () banked
  6870  002E0C  1761               	andwf	(__tdiv_to_l_@f1+1)& (0+255),f,b
  6871  002E0E  0E00               	movlw	0
  6872  002E10  0100               	movlb	0	; () banked
  6873  002E12  1762               	andwf	(__tdiv_to_l_@f1+2)& (0+255),f,b
  6874  002E14  0100               	movlb	0	; () banked
  6875  002E16  8F65               	bsf	(__tdiv_to_l_@f2+1)& (0+255),7,b
  6876                           
  6877                           ; BSR set to: 0
  6878  002E18  0EFF               	movlw	255
  6879  002E1A  0100               	movlb	0	; () banked
  6880  002E1C  1764               	andwf	__tdiv_to_l_@f2& (0+255),f,b
  6881  002E1E  0EFF               	movlw	255
  6882  002E20  0100               	movlb	0	; () banked
  6883  002E22  1765               	andwf	(__tdiv_to_l_@f2+1)& (0+255),f,b
  6884  002E24  0E00               	movlw	0
  6885  002E26  0100               	movlb	0	; () banked
  6886  002E28  1766               	andwf	(__tdiv_to_l_@f2+2)& (0+255),f,b
  6887                           
  6888                           ; BSR set to: 0
  6889  002E2A  0E00               	movlw	0
  6890  002E2C  0100               	movlb	0	; () banked
  6891  002E2E  6F6B               	movwf	__tdiv_to_l_@quot& (0+255),b
  6892  002E30  0E00               	movlw	0
  6893  002E32  6F6C               	movwf	(__tdiv_to_l_@quot+1)& (0+255),b
  6894  002E34  0E00               	movlw	0
  6895  002E36  6F6D               	movwf	(__tdiv_to_l_@quot+2)& (0+255),b
  6896  002E38  0E00               	movlw	0
  6897  002E3A  6F6E               	movwf	(__tdiv_to_l_@quot+3)& (0+255),b
  6898                           
  6899                           ; BSR set to: 0
  6900  002E3C  0E7F               	movlw	127
  6901  002E3E  0100               	movlb	0	; () banked
  6902  002E40  5F70               	subwf	__tdiv_to_l_@exp1& (0+255),f,b
  6903                           
  6904                           ; BSR set to: 0
  6905  002E42  0100               	movlb	0	; () banked
  6906  002E44  516F               	movf	__tdiv_to_l_@cntr& (0+255),w,b
  6907  002E46  0F98               	addlw	152
  6908  002E48  0100               	movlb	0	; () banked
  6909  002E4A  5F70               	subwf	__tdiv_to_l_@exp1& (0+255),f,b
  6910                           
  6911                           ; BSR set to: 0
  6912  002E4C  0E18               	movlw	24
  6913  002E4E  0100               	movlb	0	; () banked
  6914  002E50  6F6F               	movwf	__tdiv_to_l_@cntr& (0+255),b
  6915  002E52                     l693:
  6916                           
  6917                           ; BSR set to: 0
  6918  002E52  0100               	movlb	0	; () banked
  6919  002E54  90D8               	bcf	status,0,c
  6920  002E56  376B               	rlcf	__tdiv_to_l_@quot& (0+255),f,b
  6921  002E58  376C               	rlcf	(__tdiv_to_l_@quot+1)& (0+255),f,b
  6922  002E5A  376D               	rlcf	(__tdiv_to_l_@quot+2)& (0+255),f,b
  6923  002E5C  376E               	rlcf	(__tdiv_to_l_@quot+3)& (0+255),f,b
  6924                           
  6925                           ; BSR set to: 0
  6926  002E5E  0100               	movlb	0	; () banked
  6927  002E60  5164               	movf	__tdiv_to_l_@f2& (0+255),w,b
  6928  002E62  0100               	movlb	0	; () banked
  6929  002E64  5D60               	subwf	__tdiv_to_l_@f1& (0+255),w,b
  6930  002E66  0100               	movlb	0	; () banked
  6931  002E68  5165               	movf	(__tdiv_to_l_@f2+1)& (0+255),w,b
  6932  002E6A  0100               	movlb	0	; () banked
  6933  002E6C  5961               	subwfb	(__tdiv_to_l_@f1+1)& (0+255),w,b
  6934  002E6E  0100               	movlb	0	; () banked
  6935  002E70  5166               	movf	(__tdiv_to_l_@f2+2)& (0+255),w,b
  6936  002E72  0100               	movlb	0	; () banked
  6937  002E74  5962               	subwfb	(__tdiv_to_l_@f1+2)& (0+255),w,b
  6938  002E76  A0D8               	btfss	status,0,c
  6939  002E78  D00E               	goto	l694
  6940                           
  6941                           ; BSR set to: 0
  6942  002E7A  0100               	movlb	0	; () banked
  6943  002E7C  5164               	movf	__tdiv_to_l_@f2& (0+255),w,b
  6944  002E7E  0100               	movlb	0	; () banked
  6945  002E80  5F60               	subwf	__tdiv_to_l_@f1& (0+255),f,b
  6946  002E82  0100               	movlb	0	; () banked
  6947  002E84  5165               	movf	(__tdiv_to_l_@f2+1)& (0+255),w,b
  6948  002E86  0100               	movlb	0	; () banked
  6949  002E88  5B61               	subwfb	(__tdiv_to_l_@f1+1)& (0+255),f,b
  6950  002E8A  0100               	movlb	0	; () banked
  6951  002E8C  5166               	movf	(__tdiv_to_l_@f2+2)& (0+255),w,b
  6952  002E8E  0100               	movlb	0	; () banked
  6953  002E90  5B62               	subwfb	(__tdiv_to_l_@f1+2)& (0+255),f,b
  6954                           
  6955                           ; BSR set to: 0
  6956  002E92  0100               	movlb	0	; () banked
  6957  002E94  816B               	bsf	__tdiv_to_l_@quot& (0+255),0,b
  6958  002E96                     l694:
  6959                           
  6960                           ; BSR set to: 0
  6961  002E96  0100               	movlb	0	; () banked
  6962  002E98  90D8               	bcf	status,0,c
  6963  002E9A  3760               	rlcf	__tdiv_to_l_@f1& (0+255),f,b
  6964  002E9C  3761               	rlcf	(__tdiv_to_l_@f1+1)& (0+255),f,b
  6965  002E9E  3762               	rlcf	(__tdiv_to_l_@f1+2)& (0+255),f,b
  6966                           
  6967                           ; BSR set to: 0
  6968  002EA0  0100               	movlb	0	; () banked
  6969  002EA2  2F6F               	decfsz	__tdiv_to_l_@cntr& (0+255),f,b
  6970  002EA4  D7D6               	goto	l693
  6971                           
  6972                           ; BSR set to: 0
  6973                           
  6974                           ; BSR set to: 0
  6975  002EA6  0100               	movlb	0	; () banked
  6976  002EA8  AF70               	btfss	__tdiv_to_l_@exp1& (0+255),7,b
  6977  002EAA  D01A               	goto	l5451
  6978                           
  6979                           ; BSR set to: 0
  6980  002EAC  0100               	movlb	0	; () banked
  6981  002EAE  5170               	movf	__tdiv_to_l_@exp1& (0+255),w,b
  6982  002EB0  0A80               	xorlw	128
  6983  002EB2  0F97               	addlw	151
  6984  002EB4  B0D8               	btfsc	status,0,c
  6985  002EB6  D00A               	goto	l5447
  6986                           
  6987                           ; BSR set to: 0
  6988  002EB8  0E00               	movlw	0
  6989  002EBA  0100               	movlb	0	; () banked
  6990  002EBC  6F60               	movwf	?__tdiv_to_l_& (0+255),b
  6991  002EBE  0E00               	movlw	0
  6992  002EC0  6F61               	movwf	(?__tdiv_to_l_+1)& (0+255),b
  6993  002EC2  0E00               	movlw	0
  6994  002EC4  6F62               	movwf	(?__tdiv_to_l_+2)& (0+255),b
  6995  002EC6  0E00               	movlw	0
  6996  002EC8  6F63               	movwf	(?__tdiv_to_l_+3)& (0+255),b
  6997                           
  6998                           ; BSR set to: 0
  6999  002ECA  0012               	return	
  7000  002ECC                     l5447:
  7001                           
  7002                           ; BSR set to: 0
  7003  002ECC  0100               	movlb	0	; () banked
  7004  002ECE  90D8               	bcf	status,0,c
  7005  002ED0  336E               	rrcf	(__tdiv_to_l_@quot+3)& (0+255),f,b
  7006  002ED2  336D               	rrcf	(__tdiv_to_l_@quot+2)& (0+255),f,b
  7007  002ED4  336C               	rrcf	(__tdiv_to_l_@quot+1)& (0+255),f,b
  7008  002ED6  336B               	rrcf	__tdiv_to_l_@quot& (0+255),f,b
  7009                           
  7010                           ; BSR set to: 0
  7011  002ED8  0100               	movlb	0	; () banked
  7012  002EDA  3F70               	incfsz	__tdiv_to_l_@exp1& (0+255),f,b
  7013  002EDC  D7F7               	goto	l5447
  7014                           
  7015                           ; BSR set to: 0
  7016  002EDE  D01B               	goto	l700
  7017  002EE0                     l5451:
  7018                           
  7019                           ; BSR set to: 0
  7020  002EE0  0E17               	movlw	23
  7021  002EE2  0100               	movlb	0	; () banked
  7022  002EE4  6570               	cpfsgt	__tdiv_to_l_@exp1& (0+255),b
  7023  002EE6  D012               	goto	l5459
  7024                           
  7025                           ; BSR set to: 0
  7026  002EE8  0E00               	movlw	0
  7027  002EEA  0100               	movlb	0	; () banked
  7028  002EEC  6F60               	movwf	?__tdiv_to_l_& (0+255),b
  7029  002EEE  0E00               	movlw	0
  7030  002EF0  6F61               	movwf	(?__tdiv_to_l_+1)& (0+255),b
  7031  002EF2  0E00               	movlw	0
  7032  002EF4  6F62               	movwf	(?__tdiv_to_l_+2)& (0+255),b
  7033  002EF6  0E00               	movlw	0
  7034  002EF8  6F63               	movwf	(?__tdiv_to_l_+3)& (0+255),b
  7035                           
  7036                           ; BSR set to: 0
  7037  002EFA  0012               	return	
  7038  002EFC                     l5457:
  7039                           
  7040                           ; BSR set to: 0
  7041  002EFC  0100               	movlb	0	; () banked
  7042  002EFE  90D8               	bcf	status,0,c
  7043  002F00  376B               	rlcf	__tdiv_to_l_@quot& (0+255),f,b
  7044  002F02  376C               	rlcf	(__tdiv_to_l_@quot+1)& (0+255),f,b
  7045  002F04  376D               	rlcf	(__tdiv_to_l_@quot+2)& (0+255),f,b
  7046  002F06  376E               	rlcf	(__tdiv_to_l_@quot+3)& (0+255),f,b
  7047  002F08  0100               	movlb	0	; () banked
  7048  002F0A  0770               	decf	__tdiv_to_l_@exp1& (0+255),f,b
  7049  002F0C                     l5459:
  7050                           
  7051                           ; BSR set to: 0
  7052  002F0C  0100               	movlb	0	; () banked
  7053  002F0E  5170               	movf	__tdiv_to_l_@exp1& (0+255),w,b
  7054  002F10  0100               	movlb	0	; () banked
  7055  002F12  A4D8               	btfss	status,2,c
  7056  002F14  D7F3               	goto	l5457
  7057  002F16                     l700:
  7058                           
  7059                           ; BSR set to: 0
  7060  002F16  C06B  F060         	movff	__tdiv_to_l_@quot,?__tdiv_to_l_
  7061  002F1A  C06C  F061         	movff	__tdiv_to_l_@quot+1,?__tdiv_to_l_+1
  7062  002F1E  C06D  F062         	movff	__tdiv_to_l_@quot+2,?__tdiv_to_l_+2
  7063  002F22  C06E  F063         	movff	__tdiv_to_l_@quot+3,?__tdiv_to_l_+3
  7064                           
  7065                           ; BSR set to: 0
  7066  002F26  0012               	return		;funcret
  7067  002F28                     __end_of__tdiv_to_l_:
  7068                           	opt stack 0
  7069                           tblptru	equ	0xFF8
  7070                           tblptrh	equ	0xFF7
  7071                           tblptrl	equ	0xFF6
  7072                           tablat	equ	0xFF5
  7073                           prodh	equ	0xFF4
  7074                           prodl	equ	0xFF3
  7075                           intcon	equ	0xFF2
  7076                           postinc0	equ	0xFEE
  7077                           wreg	equ	0xFE8
  7078                           indf1	equ	0xFE7
  7079                           postdec1	equ	0xFE5
  7080                           plusw1	equ	0xFE3
  7081                           fsr1h	equ	0xFE2
  7082                           fsr1l	equ	0xFE1
  7083                           indf2	equ	0xFDF
  7084                           postinc2	equ	0xFDE
  7085                           plusw2	equ	0xFDB
  7086                           fsr2h	equ	0xFDA
  7087                           fsr2l	equ	0xFD9
  7088                           status	equ	0xFD8
  7089                           
  7090 ;; *************** function __div_to_l_ *****************
  7091 ;; Defined at:
  7092 ;;		line 60 in file "C:\Program Files (x86)\Microchip\xc8\v1.37\sources\common\fldivl.c"
  7093 ;; Parameters:    Size  Location     Type
  7094 ;;  f1              4    0[BANK0 ] unsigned long 
  7095 ;;  f2              4    4[BANK0 ] unsigned long 
  7096 ;; Auto vars:     Size  Location     Type
  7097 ;;  quot            4    8[BANK0 ] unsigned long 
  7098 ;;  exp1            1   13[BANK0 ] unsigned char 
  7099 ;;  cntr            1   12[BANK0 ] unsigned char 
  7100 ;; Return value:  Size  Location     Type
  7101 ;;                  4    0[BANK0 ] unsigned long 
  7102 ;; Registers used:
  7103 ;;		wreg, status,2, status,0
  7104 ;; Tracked objects:
  7105 ;;		On entry : 0/0
  7106 ;;		On exit  : 0/0
  7107 ;;		Unchanged: 0/0
  7108 ;; Data sizes:     COMRAM   BANK0   BANK1   BANK2   BANK3   BANK4   BANK5   BANK6   BANK7
  7109 ;;      Params:         0       8       0       0       0       0       0       0       0
  7110 ;;      Locals:         0       6       0       0       0       0       0       0       0
  7111 ;;      Temps:          0       0       0       0       0       0       0       0       0
  7112 ;;      Totals:         0      14       0       0       0       0       0       0       0
  7113 ;;Total ram usage:       14 bytes
  7114 ;; Hardware stack levels used:    1
  7115 ;; Hardware stack levels required when called:    2
  7116 ;; This function calls:
  7117 ;;		Nothing
  7118 ;; This function is called by:
  7119 ;;		_sprintf
  7120 ;; This function uses a non-reentrant model
  7121 ;;
  7122                           
  7123                           	psect	text17
  7124  0030B8                     __ptext17:
  7125                           	opt stack 0
  7126  0030B8                     __div_to_l_:
  7127                           	opt stack 25
  7128                           
  7129                           ; BSR set to: 0
  7130                           ;incstack = 0
  7131  0030B8  0100               	movlb	0	; () banked
  7132  0030BA  3562               	rlcf	(__div_to_l_@f1+2)& (0+255),w,b
  7133  0030BC  3563               	rlcf	(__div_to_l_@f1+3)& (0+255),w,b
  7134  0030BE  0100               	movlb	0	; () banked
  7135  0030C0  6F6D               	movwf	__div_to_l_@exp1& (0+255),b
  7136  0030C2  0100               	movlb	0	; () banked
  7137  0030C4  516D               	movf	__div_to_l_@exp1& (0+255),w,b
  7138  0030C6  A4D8               	btfss	status,2,c
  7139  0030C8  D00A               	goto	l5467
  7140                           
  7141                           ; BSR set to: 0
  7142  0030CA  0E00               	movlw	0
  7143  0030CC  0100               	movlb	0	; () banked
  7144  0030CE  6F60               	movwf	?__div_to_l_& (0+255),b
  7145  0030D0  0E00               	movlw	0
  7146  0030D2  6F61               	movwf	(?__div_to_l_+1)& (0+255),b
  7147  0030D4  0E00               	movlw	0
  7148  0030D6  6F62               	movwf	(?__div_to_l_+2)& (0+255),b
  7149  0030D8  0E00               	movlw	0
  7150  0030DA  6F63               	movwf	(?__div_to_l_+3)& (0+255),b
  7151                           
  7152                           ; BSR set to: 0
  7153  0030DC  0012               	return	
  7154  0030DE                     l5467:
  7155                           
  7156                           ; BSR set to: 0
  7157  0030DE  0100               	movlb	0	; () banked
  7158  0030E0  3566               	rlcf	(__div_to_l_@f2+2)& (0+255),w,b
  7159  0030E2  3567               	rlcf	(__div_to_l_@f2+3)& (0+255),w,b
  7160  0030E4  0100               	movlb	0	; () banked
  7161  0030E6  6F6C               	movwf	__div_to_l_@cntr& (0+255),b
  7162  0030E8  0100               	movlb	0	; () banked
  7163  0030EA  516C               	movf	__div_to_l_@cntr& (0+255),w,b
  7164  0030EC  A4D8               	btfss	status,2,c
  7165  0030EE  D00A               	goto	l5473
  7166                           
  7167                           ; BSR set to: 0
  7168  0030F0  0E00               	movlw	0
  7169  0030F2  0100               	movlb	0	; () banked
  7170  0030F4  6F60               	movwf	?__div_to_l_& (0+255),b
  7171  0030F6  0E00               	movlw	0
  7172  0030F8  6F61               	movwf	(?__div_to_l_+1)& (0+255),b
  7173  0030FA  0E00               	movlw	0
  7174  0030FC  6F62               	movwf	(?__div_to_l_+2)& (0+255),b
  7175  0030FE  0E00               	movlw	0
  7176  003100  6F63               	movwf	(?__div_to_l_+3)& (0+255),b
  7177                           
  7178                           ; BSR set to: 0
  7179  003102  0012               	return	
  7180  003104                     l5473:
  7181                           
  7182                           ; BSR set to: 0
  7183  003104  0100               	movlb	0	; () banked
  7184  003106  8F62               	bsf	(__div_to_l_@f1+2)& (0+255),7,b
  7185                           
  7186                           ; BSR set to: 0
  7187  003108  0EFF               	movlw	255
  7188  00310A  0100               	movlb	0	; () banked
  7189  00310C  1760               	andwf	__div_to_l_@f1& (0+255),f,b
  7190  00310E  0EFF               	movlw	255
  7191  003110  1761               	andwf	(__div_to_l_@f1+1)& (0+255),f,b
  7192  003112  0EFF               	movlw	255
  7193  003114  1762               	andwf	(__div_to_l_@f1+2)& (0+255),f,b
  7194  003116  0E00               	movlw	0
  7195  003118  1763               	andwf	(__div_to_l_@f1+3)& (0+255),f,b
  7196                           
  7197                           ; BSR set to: 0
  7198  00311A  0100               	movlb	0	; () banked
  7199  00311C  8F66               	bsf	(__div_to_l_@f2+2)& (0+255),7,b
  7200  00311E  0EFF               	movlw	255
  7201  003120  0100               	movlb	0	; () banked
  7202  003122  1764               	andwf	__div_to_l_@f2& (0+255),f,b
  7203  003124  0EFF               	movlw	255
  7204  003126  1765               	andwf	(__div_to_l_@f2+1)& (0+255),f,b
  7205  003128  0EFF               	movlw	255
  7206  00312A  1766               	andwf	(__div_to_l_@f2+2)& (0+255),f,b
  7207  00312C  0E00               	movlw	0
  7208  00312E  1767               	andwf	(__div_to_l_@f2+3)& (0+255),f,b
  7209                           
  7210                           ; BSR set to: 0
  7211  003130  0E00               	movlw	0
  7212  003132  0100               	movlb	0	; () banked
  7213  003134  6F68               	movwf	__div_to_l_@quot& (0+255),b
  7214  003136  0E00               	movlw	0
  7215  003138  6F69               	movwf	(__div_to_l_@quot+1)& (0+255),b
  7216  00313A  0E00               	movlw	0
  7217  00313C  6F6A               	movwf	(__div_to_l_@quot+2)& (0+255),b
  7218  00313E  0E00               	movlw	0
  7219  003140  6F6B               	movwf	(__div_to_l_@quot+3)& (0+255),b
  7220                           
  7221                           ; BSR set to: 0
  7222  003142  0E7F               	movlw	127
  7223  003144  0100               	movlb	0	; () banked
  7224  003146  5F6D               	subwf	__div_to_l_@exp1& (0+255),f,b
  7225                           
  7226                           ; BSR set to: 0
  7227  003148  0100               	movlb	0	; () banked
  7228  00314A  516C               	movf	__div_to_l_@cntr& (0+255),w,b
  7229  00314C  0FA0               	addlw	160
  7230  00314E  0100               	movlb	0	; () banked
  7231  003150  5F6D               	subwf	__div_to_l_@exp1& (0+255),f,b
  7232                           
  7233                           ; BSR set to: 0
  7234  003152  0E20               	movlw	32
  7235  003154  0100               	movlb	0	; () banked
  7236  003156  6F6C               	movwf	__div_to_l_@cntr& (0+255),b
  7237  003158                     l5487:
  7238                           
  7239                           ; BSR set to: 0
  7240  003158  0100               	movlb	0	; () banked
  7241  00315A  90D8               	bcf	status,0,c
  7242  00315C  3768               	rlcf	__div_to_l_@quot& (0+255),f,b
  7243  00315E  3769               	rlcf	(__div_to_l_@quot+1)& (0+255),f,b
  7244  003160  376A               	rlcf	(__div_to_l_@quot+2)& (0+255),f,b
  7245  003162  376B               	rlcf	(__div_to_l_@quot+3)& (0+255),f,b
  7246                           
  7247                           ; BSR set to: 0
  7248  003164  0100               	movlb	0	; () banked
  7249  003166  5164               	movf	__div_to_l_@f2& (0+255),w,b
  7250  003168  0100               	movlb	0	; () banked
  7251  00316A  5D60               	subwf	__div_to_l_@f1& (0+255),w,b
  7252  00316C  0100               	movlb	0	; () banked
  7253  00316E  5165               	movf	(__div_to_l_@f2+1)& (0+255),w,b
  7254  003170  0100               	movlb	0	; () banked
  7255  003172  5961               	subwfb	(__div_to_l_@f1+1)& (0+255),w,b
  7256  003174  0100               	movlb	0	; () banked
  7257  003176  5166               	movf	(__div_to_l_@f2+2)& (0+255),w,b
  7258  003178  0100               	movlb	0	; () banked
  7259  00317A  5962               	subwfb	(__div_to_l_@f1+2)& (0+255),w,b
  7260  00317C  0100               	movlb	0	; () banked
  7261  00317E  5167               	movf	(__div_to_l_@f2+3)& (0+255),w,b
  7262  003180  0100               	movlb	0	; () banked
  7263  003182  5963               	subwfb	(__div_to_l_@f1+3)& (0+255),w,b
  7264  003184  A0D8               	btfss	status,0,c
  7265  003186  D012               	goto	l5495
  7266                           
  7267                           ; BSR set to: 0
  7268  003188  0100               	movlb	0	; () banked
  7269  00318A  5164               	movf	__div_to_l_@f2& (0+255),w,b
  7270  00318C  0100               	movlb	0	; () banked
  7271  00318E  5F60               	subwf	__div_to_l_@f1& (0+255),f,b
  7272  003190  0100               	movlb	0	; () banked
  7273  003192  5165               	movf	(__div_to_l_@f2+1)& (0+255),w,b
  7274  003194  0100               	movlb	0	; () banked
  7275  003196  5B61               	subwfb	(__div_to_l_@f1+1)& (0+255),f,b
  7276  003198  0100               	movlb	0	; () banked
  7277  00319A  5166               	movf	(__div_to_l_@f2+2)& (0+255),w,b
  7278  00319C  0100               	movlb	0	; () banked
  7279  00319E  5B62               	subwfb	(__div_to_l_@f1+2)& (0+255),f,b
  7280  0031A0  0100               	movlb	0	; () banked
  7281  0031A2  5167               	movf	(__div_to_l_@f2+3)& (0+255),w,b
  7282  0031A4  0100               	movlb	0	; () banked
  7283  0031A6  5B63               	subwfb	(__div_to_l_@f1+3)& (0+255),f,b
  7284                           
  7285                           ; BSR set to: 0
  7286  0031A8  0100               	movlb	0	; () banked
  7287  0031AA  8168               	bsf	__div_to_l_@quot& (0+255),0,b
  7288  0031AC                     l5495:
  7289                           
  7290                           ; BSR set to: 0
  7291  0031AC  0100               	movlb	0	; () banked
  7292  0031AE  90D8               	bcf	status,0,c
  7293  0031B0  3760               	rlcf	__div_to_l_@f1& (0+255),f,b
  7294  0031B2  3761               	rlcf	(__div_to_l_@f1+1)& (0+255),f,b
  7295  0031B4  3762               	rlcf	(__div_to_l_@f1+2)& (0+255),f,b
  7296  0031B6  3763               	rlcf	(__div_to_l_@f1+3)& (0+255),f,b
  7297                           
  7298                           ; BSR set to: 0
  7299  0031B8  0100               	movlb	0	; () banked
  7300  0031BA  2F6C               	decfsz	__div_to_l_@cntr& (0+255),f,b
  7301  0031BC  D7CD               	goto	l5487
  7302                           
  7303                           ; BSR set to: 0
  7304                           
  7305                           ; BSR set to: 0
  7306  0031BE  0100               	movlb	0	; () banked
  7307  0031C0  AF6D               	btfss	__div_to_l_@exp1& (0+255),7,b
  7308  0031C2  D01A               	goto	l5511
  7309                           
  7310                           ; BSR set to: 0
  7311  0031C4  0100               	movlb	0	; () banked
  7312  0031C6  516D               	movf	__div_to_l_@exp1& (0+255),w,b
  7313  0031C8  0A80               	xorlw	128
  7314  0031CA  0F9F               	addlw	159
  7315  0031CC  B0D8               	btfsc	status,0,c
  7316  0031CE  D00A               	goto	l5507
  7317                           
  7318                           ; BSR set to: 0
  7319  0031D0  0E00               	movlw	0
  7320  0031D2  0100               	movlb	0	; () banked
  7321  0031D4  6F60               	movwf	?__div_to_l_& (0+255),b
  7322  0031D6  0E00               	movlw	0
  7323  0031D8  6F61               	movwf	(?__div_to_l_+1)& (0+255),b
  7324  0031DA  0E00               	movlw	0
  7325  0031DC  6F62               	movwf	(?__div_to_l_+2)& (0+255),b
  7326  0031DE  0E00               	movlw	0
  7327  0031E0  6F63               	movwf	(?__div_to_l_+3)& (0+255),b
  7328                           
  7329                           ; BSR set to: 0
  7330  0031E2  0012               	return	
  7331  0031E4                     l5507:
  7332                           
  7333                           ; BSR set to: 0
  7334  0031E4  0100               	movlb	0	; () banked
  7335  0031E6  90D8               	bcf	status,0,c
  7336  0031E8  336B               	rrcf	(__div_to_l_@quot+3)& (0+255),f,b
  7337  0031EA  336A               	rrcf	(__div_to_l_@quot+2)& (0+255),f,b
  7338  0031EC  3369               	rrcf	(__div_to_l_@quot+1)& (0+255),f,b
  7339  0031EE  3368               	rrcf	__div_to_l_@quot& (0+255),f,b
  7340                           
  7341                           ; BSR set to: 0
  7342  0031F0  0100               	movlb	0	; () banked
  7343  0031F2  3F6D               	incfsz	__div_to_l_@exp1& (0+255),f,b
  7344  0031F4  D7F7               	goto	l5507
  7345                           
  7346                           ; BSR set to: 0
  7347  0031F6  D01B               	goto	l596
  7348  0031F8                     l5511:
  7349                           
  7350                           ; BSR set to: 0
  7351  0031F8  0E1F               	movlw	31
  7352  0031FA  0100               	movlb	0	; () banked
  7353  0031FC  656D               	cpfsgt	__div_to_l_@exp1& (0+255),b
  7354  0031FE  D012               	goto	l5519
  7355                           
  7356                           ; BSR set to: 0
  7357  003200  0E00               	movlw	0
  7358  003202  0100               	movlb	0	; () banked
  7359  003204  6F60               	movwf	?__div_to_l_& (0+255),b
  7360  003206  0E00               	movlw	0
  7361  003208  6F61               	movwf	(?__div_to_l_+1)& (0+255),b
  7362  00320A  0E00               	movlw	0
  7363  00320C  6F62               	movwf	(?__div_to_l_+2)& (0+255),b
  7364  00320E  0E00               	movlw	0
  7365  003210  6F63               	movwf	(?__div_to_l_+3)& (0+255),b
  7366                           
  7367                           ; BSR set to: 0
  7368  003212  0012               	return	
  7369  003214                     l5517:
  7370                           
  7371                           ; BSR set to: 0
  7372  003214  0100               	movlb	0	; () banked
  7373  003216  90D8               	bcf	status,0,c
  7374  003218  3768               	rlcf	__div_to_l_@quot& (0+255),f,b
  7375  00321A  3769               	rlcf	(__div_to_l_@quot+1)& (0+255),f,b
  7376  00321C  376A               	rlcf	(__div_to_l_@quot+2)& (0+255),f,b
  7377  00321E  376B               	rlcf	(__div_to_l_@quot+3)& (0+255),f,b
  7378  003220  0100               	movlb	0	; () banked
  7379  003222  076D               	decf	__div_to_l_@exp1& (0+255),f,b
  7380  003224                     l5519:
  7381                           
  7382                           ; BSR set to: 0
  7383  003224  0100               	movlb	0	; () banked
  7384  003226  516D               	movf	__div_to_l_@exp1& (0+255),w,b
  7385  003228  0100               	movlb	0	; () banked
  7386  00322A  A4D8               	btfss	status,2,c
  7387  00322C  D7F3               	goto	l5517
  7388  00322E                     l596:
  7389                           
  7390                           ; BSR set to: 0
  7391  00322E  C068  F060         	movff	__div_to_l_@quot,?__div_to_l_
  7392  003232  C069  F061         	movff	__div_to_l_@quot+1,?__div_to_l_+1
  7393  003236  C06A  F062         	movff	__div_to_l_@quot+2,?__div_to_l_+2
  7394  00323A  C06B  F063         	movff	__div_to_l_@quot+3,?__div_to_l_+3
  7395                           
  7396                           ; BSR set to: 0
  7397  00323E  0012               	return		;funcret
  7398  003240                     __end_of__div_to_l_:
  7399                           	opt stack 0
  7400                           tblptru	equ	0xFF8
  7401                           tblptrh	equ	0xFF7
  7402                           tblptrl	equ	0xFF6
  7403                           tablat	equ	0xFF5
  7404                           prodh	equ	0xFF4
  7405                           prodl	equ	0xFF3
  7406                           intcon	equ	0xFF2
  7407                           postinc0	equ	0xFEE
  7408                           wreg	equ	0xFE8
  7409                           indf1	equ	0xFE7
  7410                           postdec1	equ	0xFE5
  7411                           plusw1	equ	0xFE3
  7412                           fsr1h	equ	0xFE2
  7413                           fsr1l	equ	0xFE1
  7414                           indf2	equ	0xFDF
  7415                           postinc2	equ	0xFDE
  7416                           plusw2	equ	0xFDB
  7417                           fsr2h	equ	0xFDA
  7418                           fsr2l	equ	0xFD9
  7419                           status	equ	0xFD8
  7420                           
  7421 ;; *************** function ___llmod *****************
  7422 ;; Defined at:
  7423 ;;		line 8 in file "C:\Program Files (x86)\Microchip\xc8\v1.37\sources\common\llmod.c"
  7424 ;; Parameters:    Size  Location     Type
  7425 ;;  dividend        4    0[BANK0 ] unsigned long 
  7426 ;;  divisor         4    4[BANK0 ] unsigned long 
  7427 ;; Auto vars:     Size  Location     Type
  7428 ;;  counter         1   31[COMRAM] unsigned char 
  7429 ;; Return value:  Size  Location     Type
  7430 ;;                  4    0[BANK0 ] unsigned long 
  7431 ;; Registers used:
  7432 ;;		wreg, status,2, status,0
  7433 ;; Tracked objects:
  7434 ;;		On entry : 0/0
  7435 ;;		On exit  : 0/0
  7436 ;;		Unchanged: 0/0
  7437 ;; Data sizes:     COMRAM   BANK0   BANK1   BANK2   BANK3   BANK4   BANK5   BANK6   BANK7
  7438 ;;      Params:         0       8       0       0       0       0       0       0       0
  7439 ;;      Locals:         1       0       0       0       0       0       0       0       0
  7440 ;;      Temps:          0       0       0       0       0       0       0       0       0
  7441 ;;      Totals:         1       8       0       0       0       0       0       0       0
  7442 ;;Total ram usage:        9 bytes
  7443 ;; Hardware stack levels used:    1
  7444 ;; Hardware stack levels required when called:    2
  7445 ;; This function calls:
  7446 ;;		Nothing
  7447 ;; This function is called by:
  7448 ;;		_sprintf
  7449 ;; This function uses a non-reentrant model
  7450 ;;
  7451                           
  7452                           	psect	text18
  7453  003F38                     __ptext18:
  7454                           	opt stack 0
  7455  003F38                     ___llmod:
  7456                           	opt stack 25
  7457                           
  7458                           ; BSR set to: 0
  7459                           ;incstack = 0
  7460  003F38  0100               	movlb	0	; () banked
  7461  003F3A  5164               	movf	___llmod@divisor& (0+255),w,b
  7462  003F3C  0100               	movlb	0	; () banked
  7463  003F3E  1165               	iorwf	(___llmod@divisor+1)& (0+255),w,b
  7464  003F40  0100               	movlb	0	; () banked
  7465  003F42  1166               	iorwf	(___llmod@divisor+2)& (0+255),w,b
  7466  003F44  0100               	movlb	0	; () banked
  7467  003F46  1167               	iorwf	(___llmod@divisor+3)& (0+255),w,b
  7468  003F48  B4D8               	btfsc	status,2,c
  7469  003F4A  D037               	goto	l799
  7470                           
  7471                           ; BSR set to: 0
  7472  003F4C  0E01               	movlw	1
  7473  003F4E  6E20               	movwf	___llmod@counter,c
  7474  003F50  D007               	goto	l5795
  7475  003F52                     l5793:
  7476                           
  7477                           ; BSR set to: 0
  7478  003F52  0100               	movlb	0	; () banked
  7479  003F54  90D8               	bcf	status,0,c
  7480  003F56  3764               	rlcf	___llmod@divisor& (0+255),f,b
  7481  003F58  3765               	rlcf	(___llmod@divisor+1)& (0+255),f,b
  7482  003F5A  3766               	rlcf	(___llmod@divisor+2)& (0+255),f,b
  7483  003F5C  3767               	rlcf	(___llmod@divisor+3)& (0+255),f,b
  7484  003F5E  2A20               	incf	___llmod@counter,f,c
  7485  003F60                     l5795:
  7486                           
  7487                           ; BSR set to: 0
  7488  003F60  0100               	movlb	0	; () banked
  7489  003F62  AF67               	btfss	(___llmod@divisor+3)& (0+255),7,b
  7490  003F64  D7F6               	goto	l5793
  7491  003F66                     l5797:
  7492                           
  7493                           ; BSR set to: 0
  7494  003F66  0100               	movlb	0	; () banked
  7495  003F68  5164               	movf	___llmod@divisor& (0+255),w,b
  7496  003F6A  0100               	movlb	0	; () banked
  7497  003F6C  5D60               	subwf	___llmod@dividend& (0+255),w,b
  7498  003F6E  0100               	movlb	0	; () banked
  7499  003F70  5165               	movf	(___llmod@divisor+1)& (0+255),w,b
  7500  003F72  0100               	movlb	0	; () banked
  7501  003F74  5961               	subwfb	(___llmod@dividend+1)& (0+255),w,b
  7502  003F76  0100               	movlb	0	; () banked
  7503  003F78  5166               	movf	(___llmod@divisor+2)& (0+255),w,b
  7504  003F7A  0100               	movlb	0	; () banked
  7505  003F7C  5962               	subwfb	(___llmod@dividend+2)& (0+255),w,b
  7506  003F7E  0100               	movlb	0	; () banked
  7507  003F80  5167               	movf	(___llmod@divisor+3)& (0+255),w,b
  7508  003F82  0100               	movlb	0	; () banked
  7509  003F84  5963               	subwfb	(___llmod@dividend+3)& (0+255),w,b
  7510  003F86  A0D8               	btfss	status,0,c
  7511  003F88  D010               	goto	l5801
  7512                           
  7513                           ; BSR set to: 0
  7514  003F8A  0100               	movlb	0	; () banked
  7515  003F8C  5164               	movf	___llmod@divisor& (0+255),w,b
  7516  003F8E  0100               	movlb	0	; () banked
  7517  003F90  5F60               	subwf	___llmod@dividend& (0+255),f,b
  7518  003F92  0100               	movlb	0	; () banked
  7519  003F94  5165               	movf	(___llmod@divisor+1)& (0+255),w,b
  7520  003F96  0100               	movlb	0	; () banked
  7521  003F98  5B61               	subwfb	(___llmod@dividend+1)& (0+255),f,b
  7522  003F9A  0100               	movlb	0	; () banked
  7523  003F9C  5166               	movf	(___llmod@divisor+2)& (0+255),w,b
  7524  003F9E  0100               	movlb	0	; () banked
  7525  003FA0  5B62               	subwfb	(___llmod@dividend+2)& (0+255),f,b
  7526  003FA2  0100               	movlb	0	; () banked
  7527  003FA4  5167               	movf	(___llmod@divisor+3)& (0+255),w,b
  7528  003FA6  0100               	movlb	0	; () banked
  7529  003FA8  5B63               	subwfb	(___llmod@dividend+3)& (0+255),f,b
  7530  003FAA                     l5801:
  7531                           
  7532                           ; BSR set to: 0
  7533  003FAA  0100               	movlb	0	; () banked
  7534  003FAC  90D8               	bcf	status,0,c
  7535  003FAE  3367               	rrcf	(___llmod@divisor+3)& (0+255),f,b
  7536  003FB0  3366               	rrcf	(___llmod@divisor+2)& (0+255),f,b
  7537  003FB2  3365               	rrcf	(___llmod@divisor+1)& (0+255),f,b
  7538  003FB4  3364               	rrcf	___llmod@divisor& (0+255),f,b
  7539                           
  7540                           ; BSR set to: 0
  7541  003FB6  2E20               	decfsz	___llmod@counter,f,c
  7542  003FB8  D7D6               	goto	l5797
  7543  003FBA                     l799:
  7544                           
  7545                           ; BSR set to: 0
  7546  003FBA  C060  F060         	movff	___llmod@dividend,?___llmod
  7547  003FBE  C061  F061         	movff	___llmod@dividend+1,?___llmod+1
  7548  003FC2  C062  F062         	movff	___llmod@dividend+2,?___llmod+2
  7549  003FC6  C063  F063         	movff	___llmod@dividend+3,?___llmod+3
  7550                           
  7551                           ; BSR set to: 0
  7552  003FCA  0012               	return		;funcret
  7553  003FCC                     __end_of___llmod:
  7554                           	opt stack 0
  7555                           tblptru	equ	0xFF8
  7556                           tblptrh	equ	0xFF7
  7557                           tblptrl	equ	0xFF6
  7558                           tablat	equ	0xFF5
  7559                           prodh	equ	0xFF4
  7560                           prodl	equ	0xFF3
  7561                           intcon	equ	0xFF2
  7562                           postinc0	equ	0xFEE
  7563                           wreg	equ	0xFE8
  7564                           indf1	equ	0xFE7
  7565                           postdec1	equ	0xFE5
  7566                           plusw1	equ	0xFE3
  7567                           fsr1h	equ	0xFE2
  7568                           fsr1l	equ	0xFE1
  7569                           indf2	equ	0xFDF
  7570                           postinc2	equ	0xFDE
  7571                           plusw2	equ	0xFDB
  7572                           fsr2h	equ	0xFDA
  7573                           fsr2l	equ	0xFD9
  7574                           status	equ	0xFD8
  7575                           
  7576 ;; *************** function ___lldiv *****************
  7577 ;; Defined at:
  7578 ;;		line 8 in file "C:\Program Files (x86)\Microchip\xc8\v1.37\sources\common\lldiv.c"
  7579 ;; Parameters:    Size  Location     Type
  7580 ;;  dividend        4    0[BANK0 ] unsigned long 
  7581 ;;  divisor         4    4[BANK0 ] unsigned long 
  7582 ;; Auto vars:     Size  Location     Type
  7583 ;;  quotient        4    8[BANK0 ] unsigned long 
  7584 ;;  counter         1   12[BANK0 ] unsigned char 
  7585 ;; Return value:  Size  Location     Type
  7586 ;;                  4    0[BANK0 ] unsigned long 
  7587 ;; Registers used:
  7588 ;;		wreg, status,2, status,0
  7589 ;; Tracked objects:
  7590 ;;		On entry : 0/0
  7591 ;;		On exit  : 0/0
  7592 ;;		Unchanged: 0/0
  7593 ;; Data sizes:     COMRAM   BANK0   BANK1   BANK2   BANK3   BANK4   BANK5   BANK6   BANK7
  7594 ;;      Params:         0       8       0       0       0       0       0       0       0
  7595 ;;      Locals:         0       5       0       0       0       0       0       0       0
  7596 ;;      Temps:          0       0       0       0       0       0       0       0       0
  7597 ;;      Totals:         0      13       0       0       0       0       0       0       0
  7598 ;;Total ram usage:       13 bytes
  7599 ;; Hardware stack levels used:    1
  7600 ;; Hardware stack levels required when called:    2
  7601 ;; This function calls:
  7602 ;;		Nothing
  7603 ;; This function is called by:
  7604 ;;		_sprintf
  7605 ;; This function uses a non-reentrant model
  7606 ;;
  7607                           
  7608                           	psect	text19
  7609  003C8E                     __ptext19:
  7610                           	opt stack 0
  7611  003C8E                     ___lldiv:
  7612                           	opt stack 25
  7613                           
  7614                           ; BSR set to: 0
  7615                           ;incstack = 0
  7616  003C8E  0E00               	movlw	0
  7617  003C90  0100               	movlb	0	; () banked
  7618  003C92  6F68               	movwf	___lldiv@quotient& (0+255),b
  7619  003C94  0E00               	movlw	0
  7620  003C96  6F69               	movwf	(___lldiv@quotient+1)& (0+255),b
  7621  003C98  0E00               	movlw	0
  7622  003C9A  6F6A               	movwf	(___lldiv@quotient+2)& (0+255),b
  7623  003C9C  0E00               	movlw	0
  7624  003C9E  6F6B               	movwf	(___lldiv@quotient+3)& (0+255),b
  7625                           
  7626                           ; BSR set to: 0
  7627  003CA0  0100               	movlb	0	; () banked
  7628  003CA2  5164               	movf	___lldiv@divisor& (0+255),w,b
  7629  003CA4  0100               	movlb	0	; () banked
  7630  003CA6  1165               	iorwf	(___lldiv@divisor+1)& (0+255),w,b
  7631  003CA8  0100               	movlb	0	; () banked
  7632  003CAA  1166               	iorwf	(___lldiv@divisor+2)& (0+255),w,b
  7633  003CAC  0100               	movlb	0	; () banked
  7634  003CAE  1167               	iorwf	(___lldiv@divisor+3)& (0+255),w,b
  7635  003CB0  B4D8               	btfsc	status,2,c
  7636  003CB2  D042               	goto	l789
  7637                           
  7638                           ; BSR set to: 0
  7639  003CB4  0E01               	movlw	1
  7640  003CB6  0100               	movlb	0	; () banked
  7641  003CB8  6F6C               	movwf	___lldiv@counter& (0+255),b
  7642  003CBA  D008               	goto	l5775
  7643  003CBC                     l5773:
  7644                           
  7645                           ; BSR set to: 0
  7646  003CBC  0100               	movlb	0	; () banked
  7647  003CBE  90D8               	bcf	status,0,c
  7648  003CC0  3764               	rlcf	___lldiv@divisor& (0+255),f,b
  7649  003CC2  3765               	rlcf	(___lldiv@divisor+1)& (0+255),f,b
  7650  003CC4  3766               	rlcf	(___lldiv@divisor+2)& (0+255),f,b
  7651  003CC6  3767               	rlcf	(___lldiv@divisor+3)& (0+255),f,b
  7652  003CC8  0100               	movlb	0	; () banked
  7653  003CCA  2B6C               	incf	___lldiv@counter& (0+255),f,b
  7654  003CCC                     l5775:
  7655                           
  7656                           ; BSR set to: 0
  7657  003CCC  0100               	movlb	0	; () banked
  7658  003CCE  AF67               	btfss	(___lldiv@divisor+3)& (0+255),7,b
  7659  003CD0  D7F5               	goto	l5773
  7660  003CD2                     l5777:
  7661                           
  7662                           ; BSR set to: 0
  7663  003CD2  0100               	movlb	0	; () banked
  7664  003CD4  90D8               	bcf	status,0,c
  7665  003CD6  3768               	rlcf	___lldiv@quotient& (0+255),f,b
  7666  003CD8  3769               	rlcf	(___lldiv@quotient+1)& (0+255),f,b
  7667  003CDA  376A               	rlcf	(___lldiv@quotient+2)& (0+255),f,b
  7668  003CDC  376B               	rlcf	(___lldiv@quotient+3)& (0+255),f,b
  7669                           
  7670                           ; BSR set to: 0
  7671  003CDE  0100               	movlb	0	; () banked
  7672  003CE0  5164               	movf	___lldiv@divisor& (0+255),w,b
  7673  003CE2  0100               	movlb	0	; () banked
  7674  003CE4  5D60               	subwf	___lldiv@dividend& (0+255),w,b
  7675  003CE6  0100               	movlb	0	; () banked
  7676  003CE8  5165               	movf	(___lldiv@divisor+1)& (0+255),w,b
  7677  003CEA  0100               	movlb	0	; () banked
  7678  003CEC  5961               	subwfb	(___lldiv@dividend+1)& (0+255),w,b
  7679  003CEE  0100               	movlb	0	; () banked
  7680  003CF0  5166               	movf	(___lldiv@divisor+2)& (0+255),w,b
  7681  003CF2  0100               	movlb	0	; () banked
  7682  003CF4  5962               	subwfb	(___lldiv@dividend+2)& (0+255),w,b
  7683  003CF6  0100               	movlb	0	; () banked
  7684  003CF8  5167               	movf	(___lldiv@divisor+3)& (0+255),w,b
  7685  003CFA  0100               	movlb	0	; () banked
  7686  003CFC  5963               	subwfb	(___lldiv@dividend+3)& (0+255),w,b
  7687  003CFE  A0D8               	btfss	status,0,c
  7688  003D00  D012               	goto	l5785
  7689                           
  7690                           ; BSR set to: 0
  7691  003D02  0100               	movlb	0	; () banked
  7692  003D04  5164               	movf	___lldiv@divisor& (0+255),w,b
  7693  003D06  0100               	movlb	0	; () banked
  7694  003D08  5F60               	subwf	___lldiv@dividend& (0+255),f,b
  7695  003D0A  0100               	movlb	0	; () banked
  7696  003D0C  5165               	movf	(___lldiv@divisor+1)& (0+255),w,b
  7697  003D0E  0100               	movlb	0	; () banked
  7698  003D10  5B61               	subwfb	(___lldiv@dividend+1)& (0+255),f,b
  7699  003D12  0100               	movlb	0	; () banked
  7700  003D14  5166               	movf	(___lldiv@divisor+2)& (0+255),w,b
  7701  003D16  0100               	movlb	0	; () banked
  7702  003D18  5B62               	subwfb	(___lldiv@dividend+2)& (0+255),f,b
  7703  003D1A  0100               	movlb	0	; () banked
  7704  003D1C  5167               	movf	(___lldiv@divisor+3)& (0+255),w,b
  7705  003D1E  0100               	movlb	0	; () banked
  7706  003D20  5B63               	subwfb	(___lldiv@dividend+3)& (0+255),f,b
  7707                           
  7708                           ; BSR set to: 0
  7709  003D22  0100               	movlb	0	; () banked
  7710  003D24  8168               	bsf	___lldiv@quotient& (0+255),0,b
  7711  003D26                     l5785:
  7712                           
  7713                           ; BSR set to: 0
  7714  003D26  0100               	movlb	0	; () banked
  7715  003D28  90D8               	bcf	status,0,c
  7716  003D2A  3367               	rrcf	(___lldiv@divisor+3)& (0+255),f,b
  7717  003D2C  3366               	rrcf	(___lldiv@divisor+2)& (0+255),f,b
  7718  003D2E  3365               	rrcf	(___lldiv@divisor+1)& (0+255),f,b
  7719  003D30  3364               	rrcf	___lldiv@divisor& (0+255),f,b
  7720                           
  7721                           ; BSR set to: 0
  7722  003D32  0100               	movlb	0	; () banked
  7723  003D34  2F6C               	decfsz	___lldiv@counter& (0+255),f,b
  7724  003D36  D7CD               	goto	l5777
  7725  003D38                     l789:
  7726                           
  7727                           ; BSR set to: 0
  7728  003D38  C068  F060         	movff	___lldiv@quotient,?___lldiv
  7729  003D3C  C069  F061         	movff	___lldiv@quotient+1,?___lldiv+1
  7730  003D40  C06A  F062         	movff	___lldiv@quotient+2,?___lldiv+2
  7731  003D44  C06B  F063         	movff	___lldiv@quotient+3,?___lldiv+3
  7732                           
  7733                           ; BSR set to: 0
  7734  003D48  0012               	return		;funcret
  7735  003D4A                     __end_of___lldiv:
  7736                           	opt stack 0
  7737                           tblptru	equ	0xFF8
  7738                           tblptrh	equ	0xFF7
  7739                           tblptrl	equ	0xFF6
  7740                           tablat	equ	0xFF5
  7741                           prodh	equ	0xFF4
  7742                           prodl	equ	0xFF3
  7743                           intcon	equ	0xFF2
  7744                           postinc0	equ	0xFEE
  7745                           wreg	equ	0xFE8
  7746                           indf1	equ	0xFE7
  7747                           postdec1	equ	0xFE5
  7748                           plusw1	equ	0xFE3
  7749                           fsr1h	equ	0xFE2
  7750                           fsr1l	equ	0xFE1
  7751                           indf2	equ	0xFDF
  7752                           postinc2	equ	0xFDE
  7753                           plusw2	equ	0xFDB
  7754                           fsr2h	equ	0xFDA
  7755                           fsr2l	equ	0xFD9
  7756                           status	equ	0xFD8
  7757                           
  7758 ;; *************** function ___fltol *****************
  7759 ;; Defined at:
  7760 ;;		line 43 in file "C:\Program Files (x86)\Microchip\xc8\v1.37\sources\common\fltol.c"
  7761 ;; Parameters:    Size  Location     Type
  7762 ;;  f1              4  106[BANK0 ] unsigned long 
  7763 ;; Auto vars:     Size  Location     Type
  7764 ;;  exp1            1  115[BANK0 ] unsigned char 
  7765 ;;  sign1           1  114[BANK0 ] unsigned char 
  7766 ;; Return value:  Size  Location     Type
  7767 ;;                  4  106[BANK0 ] long 
  7768 ;; Registers used:
  7769 ;;		wreg, status,2, status,0
  7770 ;; Tracked objects:
  7771 ;;		On entry : 0/0
  7772 ;;		On exit  : 0/0
  7773 ;;		Unchanged: 0/0
  7774 ;; Data sizes:     COMRAM   BANK0   BANK1   BANK2   BANK3   BANK4   BANK5   BANK6   BANK7
  7775 ;;      Params:         0       4       0       0       0       0       0       0       0
  7776 ;;      Locals:         0       2       0       0       0       0       0       0       0
  7777 ;;      Temps:          0       4       0       0       0       0       0       0       0
  7778 ;;      Totals:         0      10       0       0       0       0       0       0       0
  7779 ;;Total ram usage:       10 bytes
  7780 ;; Hardware stack levels used:    1
  7781 ;; Hardware stack levels required when called:    2
  7782 ;; This function calls:
  7783 ;;		Nothing
  7784 ;; This function is called by:
  7785 ;;		_main
  7786 ;;		_sprintf
  7787 ;; This function uses a non-reentrant model
  7788 ;;
  7789                           
  7790                           	psect	text20
  7791  00375A                     __ptext20:
  7792                           	opt stack 0
  7793  00375A                     ___fltol:
  7794                           	opt stack 25
  7795                           
  7796                           ; BSR set to: 0
  7797                           ;incstack = 0
  7798  00375A  0100               	movlb	0	; () banked
  7799  00375C  35CC               	rlcf	(___fltol@f1+2)& (0+255),w,b
  7800  00375E  35CD               	rlcf	(___fltol@f1+3)& (0+255),w,b
  7801  003760  0100               	movlb	0	; () banked
  7802  003762  6FD3               	movwf	___fltol@exp1& (0+255),b
  7803  003764  0100               	movlb	0	; () banked
  7804  003766  51D3               	movf	___fltol@exp1& (0+255),w,b
  7805  003768  A4D8               	btfss	status,2,c
  7806  00376A  D00A               	goto	l5699
  7807                           
  7808                           ; BSR set to: 0
  7809  00376C  0E00               	movlw	0
  7810  00376E  0100               	movlb	0	; () banked
  7811  003770  6FCA               	movwf	?___fltol& (0+255),b
  7812  003772  0E00               	movlw	0
  7813  003774  6FCB               	movwf	(?___fltol+1)& (0+255),b
  7814  003776  0E00               	movlw	0
  7815  003778  6FCC               	movwf	(?___fltol+2)& (0+255),b
  7816  00377A  0E00               	movlw	0
  7817  00377C  6FCD               	movwf	(?___fltol+3)& (0+255),b
  7818                           
  7819                           ; BSR set to: 0
  7820  00377E  0012               	return	
  7821  003780                     l5699:
  7822                           
  7823                           ; BSR set to: 0
  7824  003780  C0CA  F0CE         	movff	___fltol@f1,??___fltol
  7825  003784  C0CB  F0CF         	movff	___fltol@f1+1,??___fltol+1
  7826  003788  C0CC  F0D0         	movff	___fltol@f1+2,??___fltol+2
  7827  00378C  C0CD  F0D1         	movff	___fltol@f1+3,??___fltol+3
  7828  003790  0E20               	movlw	32
  7829  003792  D006               	goto	u6390
  7830  003794                     u6395:
  7831  003794  0100               	movlb	0	; () banked
  7832  003796  90D8               	bcf	status,0,c
  7833  003798  33D1               	rrcf	(??___fltol+3)& (0+255),f,b
  7834  00379A  33D0               	rrcf	(??___fltol+2)& (0+255),f,b
  7835  00379C  33CF               	rrcf	(??___fltol+1)& (0+255),f,b
  7836  00379E  33CE               	rrcf	??___fltol& (0+255),f,b
  7837  0037A0                     u6390:
  7838  0037A0  2EE8               	decfsz	wreg,f,c
  7839  0037A2  D7F8               	goto	u6395
  7840  0037A4  0100               	movlb	0	; () banked
  7841  0037A6  51CE               	movf	??___fltol& (0+255),w,b
  7842  0037A8  0100               	movlb	0	; () banked
  7843  0037AA  6FD2               	movwf	___fltol@sign1& (0+255),b
  7844                           
  7845                           ; BSR set to: 0
  7846  0037AC  0100               	movlb	0	; () banked
  7847  0037AE  8FCC               	bsf	(___fltol@f1+2)& (0+255),7,b
  7848                           
  7849                           ; BSR set to: 0
  7850  0037B0  0EFF               	movlw	255
  7851  0037B2  0100               	movlb	0	; () banked
  7852  0037B4  17CA               	andwf	___fltol@f1& (0+255),f,b
  7853  0037B6  0EFF               	movlw	255
  7854  0037B8  17CB               	andwf	(___fltol@f1+1)& (0+255),f,b
  7855  0037BA  0EFF               	movlw	255
  7856  0037BC  17CC               	andwf	(___fltol@f1+2)& (0+255),f,b
  7857  0037BE  0E00               	movlw	0
  7858  0037C0  17CD               	andwf	(___fltol@f1+3)& (0+255),f,b
  7859                           
  7860                           ; BSR set to: 0
  7861  0037C2  0E96               	movlw	150
  7862  0037C4  0100               	movlb	0	; () banked
  7863  0037C6  5FD3               	subwf	___fltol@exp1& (0+255),f,b
  7864                           
  7865                           ; BSR set to: 0
  7866  0037C8  0100               	movlb	0	; () banked
  7867  0037CA  AFD3               	btfss	___fltol@exp1& (0+255),7,b
  7868  0037CC  D01A               	goto	l5719
  7869                           
  7870                           ; BSR set to: 0
  7871  0037CE  0100               	movlb	0	; () banked
  7872  0037D0  51D3               	movf	___fltol@exp1& (0+255),w,b
  7873  0037D2  0A80               	xorlw	128
  7874  0037D4  0F97               	addlw	151
  7875  0037D6  B0D8               	btfsc	status,0,c
  7876  0037D8  D00A               	goto	l5715
  7877                           
  7878                           ; BSR set to: 0
  7879  0037DA  0E00               	movlw	0
  7880  0037DC  0100               	movlb	0	; () banked
  7881  0037DE  6FCA               	movwf	?___fltol& (0+255),b
  7882  0037E0  0E00               	movlw	0
  7883  0037E2  6FCB               	movwf	(?___fltol+1)& (0+255),b
  7884  0037E4  0E00               	movlw	0
  7885  0037E6  6FCC               	movwf	(?___fltol+2)& (0+255),b
  7886  0037E8  0E00               	movlw	0
  7887  0037EA  6FCD               	movwf	(?___fltol+3)& (0+255),b
  7888                           
  7889                           ; BSR set to: 0
  7890  0037EC  0012               	return	
  7891  0037EE                     l5715:
  7892                           
  7893                           ; BSR set to: 0
  7894  0037EE  0100               	movlb	0	; () banked
  7895  0037F0  90D8               	bcf	status,0,c
  7896  0037F2  33CD               	rrcf	(___fltol@f1+3)& (0+255),f,b
  7897  0037F4  33CC               	rrcf	(___fltol@f1+2)& (0+255),f,b
  7898  0037F6  33CB               	rrcf	(___fltol@f1+1)& (0+255),f,b
  7899  0037F8  33CA               	rrcf	___fltol@f1& (0+255),f,b
  7900                           
  7901                           ; BSR set to: 0
  7902  0037FA  0100               	movlb	0	; () banked
  7903  0037FC  3FD3               	incfsz	___fltol@exp1& (0+255),f,b
  7904  0037FE  D7F7               	goto	l5715
  7905                           
  7906                           ; BSR set to: 0
  7907  003800  D01B               	goto	l5729
  7908  003802                     l5719:
  7909                           
  7910                           ; BSR set to: 0
  7911  003802  0E1F               	movlw	31
  7912  003804  0100               	movlb	0	; () banked
  7913  003806  65D3               	cpfsgt	___fltol@exp1& (0+255),b
  7914  003808  D012               	goto	l5727
  7915                           
  7916                           ; BSR set to: 0
  7917  00380A  0E00               	movlw	0
  7918  00380C  0100               	movlb	0	; () banked
  7919  00380E  6FCA               	movwf	?___fltol& (0+255),b
  7920  003810  0E00               	movlw	0
  7921  003812  6FCB               	movwf	(?___fltol+1)& (0+255),b
  7922  003814  0E00               	movlw	0
  7923  003816  6FCC               	movwf	(?___fltol+2)& (0+255),b
  7924  003818  0E00               	movlw	0
  7925  00381A  6FCD               	movwf	(?___fltol+3)& (0+255),b
  7926                           
  7927                           ; BSR set to: 0
  7928  00381C  0012               	return	
  7929  00381E                     l5725:
  7930                           
  7931                           ; BSR set to: 0
  7932  00381E  0100               	movlb	0	; () banked
  7933  003820  90D8               	bcf	status,0,c
  7934  003822  37CA               	rlcf	___fltol@f1& (0+255),f,b
  7935  003824  37CB               	rlcf	(___fltol@f1+1)& (0+255),f,b
  7936  003826  37CC               	rlcf	(___fltol@f1+2)& (0+255),f,b
  7937  003828  37CD               	rlcf	(___fltol@f1+3)& (0+255),f,b
  7938  00382A  0100               	movlb	0	; () banked
  7939  00382C  07D3               	decf	___fltol@exp1& (0+255),f,b
  7940  00382E                     l5727:
  7941                           
  7942                           ; BSR set to: 0
  7943  00382E  0100               	movlb	0	; () banked
  7944  003830  51D3               	movf	___fltol@exp1& (0+255),w,b
  7945  003832  0100               	movlb	0	; () banked
  7946  003834  A4D8               	btfss	status,2,c
  7947  003836  D7F3               	goto	l5725
  7948  003838                     l5729:
  7949                           
  7950                           ; BSR set to: 0
  7951  003838  0100               	movlb	0	; () banked
  7952  00383A  51D2               	movf	___fltol@sign1& (0+255),w,b
  7953  00383C  0100               	movlb	0	; () banked
  7954  00383E  B4D8               	btfsc	status,2,c
  7955  003840  D009               	goto	l5733
  7956                           
  7957                           ; BSR set to: 0
  7958  003842  0100               	movlb	0	; () banked
  7959  003844  1FCD               	comf	(___fltol@f1+3)& (0+255),f,b
  7960  003846  1FCC               	comf	(___fltol@f1+2)& (0+255),f,b
  7961  003848  1FCB               	comf	(___fltol@f1+1)& (0+255),f,b
  7962  00384A  6DCA               	negf	___fltol@f1& (0+255),b
  7963  00384C  0E00               	movlw	0
  7964  00384E  23CB               	addwfc	(___fltol@f1+1)& (0+255),f,b
  7965  003850  23CC               	addwfc	(___fltol@f1+2)& (0+255),f,b
  7966  003852  23CD               	addwfc	(___fltol@f1+3)& (0+255),f,b
  7967  003854                     l5733:
  7968                           
  7969                           ; BSR set to: 0
  7970  003854  C0CA  F0CA         	movff	___fltol@f1,?___fltol
  7971  003858  C0CB  F0CB         	movff	___fltol@f1+1,?___fltol+1
  7972  00385C  C0CC  F0CC         	movff	___fltol@f1+2,?___fltol+2
  7973  003860  C0CD  F0CD         	movff	___fltol@f1+3,?___fltol+3
  7974  003864  0012               	return	
  7975  003866                     __end_of___fltol:
  7976                           	opt stack 0
  7977                           tblptru	equ	0xFF8
  7978                           tblptrh	equ	0xFF7
  7979                           tblptrl	equ	0xFF6
  7980                           tablat	equ	0xFF5
  7981                           prodh	equ	0xFF4
  7982                           prodl	equ	0xFF3
  7983                           intcon	equ	0xFF2
  7984                           postinc0	equ	0xFEE
  7985                           wreg	equ	0xFE8
  7986                           indf1	equ	0xFE7
  7987                           postdec1	equ	0xFE5
  7988                           plusw1	equ	0xFE3
  7989                           fsr1h	equ	0xFE2
  7990                           fsr1l	equ	0xFE1
  7991                           indf2	equ	0xFDF
  7992                           postinc2	equ	0xFDE
  7993                           plusw2	equ	0xFDB
  7994                           fsr2h	equ	0xFDA
  7995                           fsr2l	equ	0xFD9
  7996                           status	equ	0xFD8
  7997                           
  7998 ;; *************** function ___flsub *****************
  7999 ;; Defined at:
  8000 ;;		line 245 in file "C:\Program Files (x86)\Microchip\xc8\v1.37\sources\common\sprcadd.c"
  8001 ;; Parameters:    Size  Location     Type
  8002 ;;  b               4   72[BANK0 ] long 
  8003 ;;  a               4   76[BANK0 ] long 
  8004 ;; Auto vars:     Size  Location     Type
  8005 ;;		None
  8006 ;; Return value:  Size  Location     Type
  8007 ;;                  4   72[BANK0 ] long 
  8008 ;; Registers used:
  8009 ;;		wreg, status,2, status,0, cstack
  8010 ;; Tracked objects:
  8011 ;;		On entry : 0/0
  8012 ;;		On exit  : 0/0
  8013 ;;		Unchanged: 0/0
  8014 ;; Data sizes:     COMRAM   BANK0   BANK1   BANK2   BANK3   BANK4   BANK5   BANK6   BANK7
  8015 ;;      Params:         0       8       0       0       0       0       0       0       0
  8016 ;;      Locals:         0       0       0       0       0       0       0       0       0
  8017 ;;      Temps:          0       0       0       0       0       0       0       0       0
  8018 ;;      Totals:         0       8       0       0       0       0       0       0       0
  8019 ;;Total ram usage:        8 bytes
  8020 ;; Hardware stack levels used:    1
  8021 ;; Hardware stack levels required when called:    3
  8022 ;; This function calls:
  8023 ;;		___fladd
  8024 ;; This function is called by:
  8025 ;;		_sprintf
  8026 ;; This function uses a non-reentrant model
  8027 ;;
  8028                           
  8029                           	psect	text21
  8030  00427E                     __ptext21:
  8031                           	opt stack 0
  8032  00427E                     ___flsub:
  8033                           	opt stack 24
  8034                           
  8035                           ; BSR set to: 0
  8036                           ;incstack = 0
  8037  00427E  0E00               	movlw	0
  8038  004280  0100               	movlb	0	; () banked
  8039  004282  1BAC               	xorwf	___flsub@a& (0+255),f,b
  8040  004284  0E00               	movlw	0
  8041  004286  1BAD               	xorwf	(___flsub@a+1)& (0+255),f,b
  8042  004288  0E00               	movlw	0
  8043  00428A  1BAE               	xorwf	(___flsub@a+2)& (0+255),f,b
  8044  00428C  0E80               	movlw	128
  8045  00428E  1BAF               	xorwf	(___flsub@a+3)& (0+255),f,b
  8046                           
  8047                           ; BSR set to: 0
  8048  004290  C0A8  F094         	movff	___flsub@b,___fladd@b
  8049  004294  C0A9  F095         	movff	___flsub@b+1,___fladd@b+1
  8050  004298  C0AA  F096         	movff	___flsub@b+2,___fladd@b+2
  8051  00429C  C0AB  F097         	movff	___flsub@b+3,___fladd@b+3
  8052  0042A0  C0AC  F098         	movff	___flsub@a,___fladd@a
  8053  0042A4  C0AD  F099         	movff	___flsub@a+1,___fladd@a+1
  8054  0042A8  C0AE  F09A         	movff	___flsub@a+2,___fladd@a+2
  8055  0042AC  C0AF  F09B         	movff	___flsub@a+3,___fladd@a+3
  8056  0042B0  EC25  F00C         	call	___fladd	;wreg free
  8057  0042B4  C094  F0A8         	movff	?___fladd,?___flsub
  8058  0042B8  C095  F0A9         	movff	?___fladd+1,?___flsub+1
  8059  0042BC  C096  F0AA         	movff	?___fladd+2,?___flsub+2
  8060  0042C0  C097  F0AB         	movff	?___fladd+3,?___flsub+3
  8061  0042C4  0012               	return	
  8062  0042C6                     __end_of___flsub:
  8063                           	opt stack 0
  8064                           tblptru	equ	0xFF8
  8065                           tblptrh	equ	0xFF7
  8066                           tblptrl	equ	0xFF6
  8067                           tablat	equ	0xFF5
  8068                           prodh	equ	0xFF4
  8069                           prodl	equ	0xFF3
  8070                           intcon	equ	0xFF2
  8071                           postinc0	equ	0xFEE
  8072                           wreg	equ	0xFE8
  8073                           indf1	equ	0xFE7
  8074                           postdec1	equ	0xFE5
  8075                           plusw1	equ	0xFE3
  8076                           fsr1h	equ	0xFE2
  8077                           fsr1l	equ	0xFE1
  8078                           indf2	equ	0xFDF
  8079                           postinc2	equ	0xFDE
  8080                           plusw2	equ	0xFDB
  8081                           fsr2h	equ	0xFDA
  8082                           fsr2l	equ	0xFD9
  8083                           status	equ	0xFD8
  8084                           
  8085 ;; *************** function ___flneg *****************
  8086 ;; Defined at:
  8087 ;;		line 15 in file "C:\Program Files (x86)\Microchip\xc8\v1.37\sources\common\flneg.c"
  8088 ;; Parameters:    Size  Location     Type
  8089 ;;  f1              4    0[BANK0 ] long 
  8090 ;; Auto vars:     Size  Location     Type
  8091 ;;		None
  8092 ;; Return value:  Size  Location     Type
  8093 ;;                  4    0[BANK0 ] long 
  8094 ;; Registers used:
  8095 ;;		wreg, status,2, status,0
  8096 ;; Tracked objects:
  8097 ;;		On entry : 0/0
  8098 ;;		On exit  : 0/0
  8099 ;;		Unchanged: 0/0
  8100 ;; Data sizes:     COMRAM   BANK0   BANK1   BANK2   BANK3   BANK4   BANK5   BANK6   BANK7
  8101 ;;      Params:         0       4       0       0       0       0       0       0       0
  8102 ;;      Locals:         0       0       0       0       0       0       0       0       0
  8103 ;;      Temps:          0       0       0       0       0       0       0       0       0
  8104 ;;      Totals:         0       4       0       0       0       0       0       0       0
  8105 ;;Total ram usage:        4 bytes
  8106 ;; Hardware stack levels used:    1
  8107 ;; Hardware stack levels required when called:    2
  8108 ;; This function calls:
  8109 ;;		Nothing
  8110 ;; This function is called by:
  8111 ;;		_sprintf
  8112 ;; This function uses a non-reentrant model
  8113 ;;
  8114                           
  8115                           	psect	text22
  8116  004300                     __ptext22:
  8117                           	opt stack 0
  8118  004300                     ___flneg:
  8119                           	opt stack 25
  8120                           
  8121                           ;incstack = 0
  8122  004300  0100               	movlb	0	; () banked
  8123  004302  5160               	movf	___flneg@f1& (0+255),w,b
  8124  004304  0100               	movlb	0	; () banked
  8125  004306  1161               	iorwf	(___flneg@f1+1)& (0+255),w,b
  8126  004308  0100               	movlb	0	; () banked
  8127  00430A  1162               	iorwf	(___flneg@f1+2)& (0+255),w,b
  8128  00430C  0100               	movlb	0	; () banked
  8129  00430E  1163               	iorwf	(___flneg@f1+3)& (0+255),w,b
  8130  004310  B4D8               	btfsc	status,2,c
  8131  004312  D009               	goto	l5689
  8132                           
  8133                           ; BSR set to: 0
  8134  004314  0E00               	movlw	0
  8135  004316  0100               	movlb	0	; () banked
  8136  004318  1B60               	xorwf	___flneg@f1& (0+255),f,b
  8137  00431A  0E00               	movlw	0
  8138  00431C  1B61               	xorwf	(___flneg@f1+1)& (0+255),f,b
  8139  00431E  0E00               	movlw	0
  8140  004320  1B62               	xorwf	(___flneg@f1+2)& (0+255),f,b
  8141  004322  0E80               	movlw	128
  8142  004324  1B63               	xorwf	(___flneg@f1+3)& (0+255),f,b
  8143  004326                     l5689:
  8144                           
  8145                           ; BSR set to: 0
  8146  004326  C060  F060         	movff	___flneg@f1,?___flneg
  8147  00432A  C061  F061         	movff	___flneg@f1+1,?___flneg+1
  8148  00432E  C062  F062         	movff	___flneg@f1+2,?___flneg+2
  8149  004332  C063  F063         	movff	___flneg@f1+3,?___flneg+3
  8150  004336  0012               	return	
  8151  004338                     __end_of___flneg:
  8152                           	opt stack 0
  8153                           tblptru	equ	0xFF8
  8154                           tblptrh	equ	0xFF7
  8155                           tblptrl	equ	0xFF6
  8156                           tablat	equ	0xFF5
  8157                           prodh	equ	0xFF4
  8158                           prodl	equ	0xFF3
  8159                           intcon	equ	0xFF2
  8160                           postinc0	equ	0xFEE
  8161                           wreg	equ	0xFE8
  8162                           indf1	equ	0xFE7
  8163                           postdec1	equ	0xFE5
  8164                           plusw1	equ	0xFE3
  8165                           fsr1h	equ	0xFE2
  8166                           fsr1l	equ	0xFE1
  8167                           indf2	equ	0xFDF
  8168                           postinc2	equ	0xFDE
  8169                           plusw2	equ	0xFDB
  8170                           fsr2h	equ	0xFDA
  8171                           fsr2l	equ	0xFD9
  8172                           status	equ	0xFD8
  8173                           
  8174 ;; *************** function _read_adc *****************
  8175 ;; Defined at:
  8176 ;;		line 271 in file "batterua.c"
  8177 ;; Parameters:    Size  Location     Type
  8178 ;;		None
  8179 ;; Auto vars:     Size  Location     Type
  8180 ;;  i               1  125[BANK0 ] unsigned char 
  8181 ;;  lettura         8  126[BANK0 ] volatile int [4]
  8182 ;;  logaritmo       4  121[BANK0 ] float 
  8183 ;; Return value:  Size  Location     Type
  8184 ;;                  1    wreg      void 
  8185 ;; Registers used:
  8186 ;;		wreg, fsr1l, fsr1h, fsr2l, fsr2h, status,2, status,0, tblptrl, tblptrh, tblptru, prodl, prodh, cstack
  8187 ;; Tracked objects:
  8188 ;;		On entry : 0/0
  8189 ;;		On exit  : 0/0
  8190 ;;		Unchanged: 0/0
  8191 ;; Data sizes:     COMRAM   BANK0   BANK1   BANK2   BANK3   BANK4   BANK5   BANK6   BANK7
  8192 ;;      Params:         0       0       0       0       0       0       0       0       0
  8193 ;;      Locals:         0      13       0       0       0       0       0       0       0
  8194 ;;      Temps:          0       2       0       0       0       0       0       0       0
  8195 ;;      Totals:         0      15       0       0       0       0       0       0       0
  8196 ;;Total ram usage:       15 bytes
  8197 ;; Hardware stack levels used:    1
  8198 ;; Hardware stack levels required when called:    5
  8199 ;; This function calls:
  8200 ;;		___fladd
  8201 ;;		___fldiv
  8202 ;;		___flge
  8203 ;;		___flmul
  8204 ;;		___xxtofl
  8205 ;;		_delay_ms
  8206 ;;		_log
  8207 ;; This function is called by:
  8208 ;;		_main
  8209 ;;		_ricarica
  8210 ;;		_display_voltage
  8211 ;; This function uses a non-reentrant model
  8212 ;;
  8213                           
  8214                           	psect	text23
  8215  0013A0                     __ptext23:
  8216                           	opt stack 0
  8217  0013A0                     _read_adc:
  8218                           	opt stack 23
  8219                           
  8220                           ;batterua.c: 272: volatile int lettura [] = {0, 0, 0, 0};
  8221                           
  8222                           ; BSR set to: 0
  8223                           ;incstack = 0
  8224  0013A0  EE21  F02D         	lfsr	2,read_adc@F4633	;volatile
  8225  0013A4  EE10  F0DE         	lfsr	1,read_adc@lettura	;volatile
  8226  0013A8  0E07               	movlw	7
  8227  0013AA                     u6561:
  8228  0013AA  CFDB FFE3          	movff	plusw2,plusw1
  8229  0013AE  06E8               	decf	wreg,f,c
  8230  0013B0  E2FC               	bc	u6561
  8231                           
  8232                           ;batterua.c: 273: for (unsigned char i = 0; i < 4; i++) {
  8233  0013B2  0E00               	movlw	0
  8234  0013B4  0100               	movlb	0	; () banked
  8235  0013B6  6FDD               	movwf	read_adc@i& (0+255),b
  8236  0013B8                     l5847:
  8237                           
  8238                           ; BSR set to: 0
  8239  0013B8  0E03               	movlw	3
  8240  0013BA  0100               	movlb	0	; () banked
  8241  0013BC  65DD               	cpfsgt	read_adc@i& (0+255),b
  8242  0013BE  D001               	goto	l283
  8243  0013C0  D04E               	goto	l5865
  8244  0013C2                     l283:
  8245                           
  8246                           ; BSR set to: 0
  8247                           ;batterua.c: 274: ADCON0bits.ADON = 1;
  8248  0013C2  80C2               	bsf	4034,0,c	;volatile
  8249                           
  8250                           ; BSR set to: 0
  8251                           ;batterua.c: 275: ADCON0 = combinazioni[i];
  8252  0013C4  0100               	movlb	0	; () banked
  8253  0013C6  51DD               	movf	read_adc@i& (0+255),w,b
  8254  0013C8  0D01               	mullw	1
  8255  0013CA  0E3B               	movlw	low _combinazioni
  8256  0013CC  24F3               	addwf	prodl,w,c
  8257  0013CE  6ED9               	movwf	fsr2l,c
  8258  0013D0  0E01               	movlw	high _combinazioni
  8259  0013D2  20F4               	addwfc	prodh,w,c
  8260  0013D4  6EDA               	movwf	fsr2h,c
  8261  0013D6  50DF               	movf	indf2,w,c
  8262  0013D8  6EC2               	movwf	4034,c	;volatile
  8263                           
  8264                           ; BSR set to: 0
  8265                           ;batterua.c: 276: ADCON0bits.GO = 1;
  8266  0013DA  82C2               	bsf	4034,1,c	;volatile
  8267  0013DC                     l285:
  8268  0013DC  B2C2               	btfsc	4034,1,c	;volatile
  8269  0013DE  D7FE               	goto	l285
  8270                           
  8271                           ;batterua.c: 278: lettura [i] = ADRESH;
  8272  0013E0  50C4               	movf	4036,w,c	;volatile
  8273  0013E2  0100               	movlb	0	; () banked
  8274  0013E4  6FD7               	movwf	??_read_adc& (0+255),b
  8275  0013E6  6BD8               	clrf	(??_read_adc+1)& (0+255),b
  8276  0013E8  0100               	movlb	0	; () banked
  8277  0013EA  51DD               	movf	read_adc@i& (0+255),w,b
  8278  0013EC  0D02               	mullw	2
  8279  0013EE  0EDE               	movlw	low read_adc@lettura
  8280  0013F0  24F3               	addwf	prodl,w,c
  8281  0013F2  6ED9               	movwf	fsr2l,c
  8282  0013F4  0E00               	movlw	high read_adc@lettura
  8283  0013F6  20F4               	addwfc	prodh,w,c
  8284  0013F8  6EDA               	movwf	fsr2h,c
  8285  0013FA  C0D7  FFDE         	movff	??_read_adc,postinc2
  8286  0013FE  C0D8  FFDD         	movff	??_read_adc+1,postdec2
  8287                           
  8288                           ;batterua.c: 279: lettura [i] = ((lettura[i] << 8) | ADRESL);
  8289  001402  0100               	movlb	0	; () banked
  8290  001404  51DD               	movf	read_adc@i& (0+255),w,b
  8291  001406  0D02               	mullw	2
  8292  001408  0EDE               	movlw	low read_adc@lettura
  8293  00140A  24F3               	addwf	prodl,w,c
  8294  00140C  6ED9               	movwf	fsr2l,c
  8295  00140E  0E00               	movlw	high read_adc@lettura
  8296  001410  20F4               	addwfc	prodh,w,c
  8297  001412  6EDA               	movwf	fsr2h,c
  8298  001414  CFDE F0D7          	movff	postinc2,??_read_adc
  8299  001418  CFDD F0D8          	movff	postdec2,??_read_adc+1
  8300  00141C  C0D7  F0D8         	movff	??_read_adc,??_read_adc+1
  8301  001420  0100               	movlb	0	; () banked
  8302  001422  6BD7               	clrf	??_read_adc& (0+255),b
  8303  001424  50C3               	movf	4035,w,c	;volatile
  8304  001426  0100               	movlb	0	; () banked
  8305  001428  13D7               	iorwf	??_read_adc& (0+255),f,b
  8306  00142A  0E00               	movlw	0
  8307  00142C  13D8               	iorwf	(??_read_adc+1)& (0+255),f,b
  8308  00142E  0100               	movlb	0	; () banked
  8309  001430  51DD               	movf	read_adc@i& (0+255),w,b
  8310  001432  0D02               	mullw	2
  8311  001434  0EDE               	movlw	low read_adc@lettura
  8312  001436  24F3               	addwf	prodl,w,c
  8313  001438  6ED9               	movwf	fsr2l,c
  8314  00143A  0E00               	movlw	high read_adc@lettura
  8315  00143C  20F4               	addwfc	prodh,w,c
  8316  00143E  6EDA               	movwf	fsr2h,c
  8317  001440  C0D7  FFDE         	movff	??_read_adc,postinc2
  8318  001444  C0D8  FFDD         	movff	??_read_adc+1,postdec2
  8319                           
  8320                           ; BSR set to: 0
  8321                           ;batterua.c: 280: ADCON0bits.ADON = 0;
  8322  001448  90C2               	bcf	4034,0,c	;volatile
  8323                           
  8324                           ; BSR set to: 0
  8325                           ;batterua.c: 281: delay_ms(5);
  8326  00144A  0E00               	movlw	0
  8327  00144C  0100               	movlb	0	; () banked
  8328  00144E  6F67               	movwf	(delay_ms@value_ms+1)& (0+255),b
  8329  001450  0E05               	movlw	5
  8330  001452  6F66               	movwf	delay_ms@value_ms& (0+255),b
  8331  001454  EC63  F021         	call	_delay_ms	;wreg free
  8332  001458  0100               	movlb	0	; () banked
  8333  00145A  2BDD               	incf	read_adc@i& (0+255),f,b
  8334  00145C  D7AD               	goto	l5847
  8335  00145E                     l5865:
  8336                           
  8337                           ; BSR set to: 0
  8338                           ;batterua.c: 282: }
  8339                           ;batterua.c: 283: current = (lettura[2] - lettura[1]);
  8340  00145E  EE20  F0E0         	lfsr	2,read_adc@lettura+2	;volatile
  8341  001462  CFDE F0D7          	movff	postinc2,??_read_adc
  8342  001466  CFDD F0D8          	movff	postdec2,??_read_adc+1
  8343  00146A  0100               	movlb	0	; () banked
  8344  00146C  1FD7               	comf	??_read_adc& (0+255),f,b
  8345  00146E  1FD8               	comf	(??_read_adc+1)& (0+255),f,b
  8346  001470  4BD7               	infsnz	??_read_adc& (0+255),f,b
  8347  001472  2BD8               	incf	(??_read_adc+1)& (0+255),f,b
  8348  001474  0100               	movlb	0	; () banked
  8349  001476  51E2               	movf	(read_adc@lettura+4)& (0+255),w,b	;volatile
  8350  001478  0100               	movlb	0	; () banked
  8351  00147A  27D7               	addwf	??_read_adc& (0+255),f,b
  8352  00147C  0100               	movlb	0	; () banked
  8353  00147E  51E3               	movf	(read_adc@lettura+5)& (0+255),w,b	;volatile
  8354  001480  0100               	movlb	0	; () banked
  8355  001482  23D8               	addwfc	(??_read_adc+1)& (0+255),f,b
  8356  001484  C0D7  F06D         	movff	??_read_adc,___xxtofl@val
  8357  001488  C0D8  F06E         	movff	??_read_adc+1,___xxtofl@val+1
  8358  00148C  0100               	movlb	0	; () banked
  8359  00148E  0E00               	movlw	0
  8360  001490  BF6E               	btfsc	(___xxtofl@val+1)& (0+255),7,b
  8361  001492  0EFF               	movlw	-1
  8362  001494  6F6F               	movwf	(___xxtofl@val+2)& (0+255),b
  8363  001496  6F70               	movwf	(___xxtofl@val+3)& (0+255),b
  8364  001498  0E01               	movlw	1
  8365  00149A  ECFE  F014         	call	___xxtofl
  8366  00149E  C06D  F0E9         	movff	?___xxtofl,_current	;volatile
  8367  0014A2  C06E  F0EA         	movff	?___xxtofl+1,_current+1	;volatile
  8368  0014A6  C06F  F0EB         	movff	?___xxtofl+2,_current+2	;volatile
  8369  0014AA  C070  F0EC         	movff	?___xxtofl+3,_current+3	;volatile
  8370                           
  8371                           ;batterua.c: 284: current = (current * 5);
  8372  0014AE  C0E9  F0A8         	movff	_current,___flmul@b	;volatile
  8373  0014B2  C0EA  F0A9         	movff	_current+1,___flmul@b+1	;volatile
  8374  0014B6  C0EB  F0AA         	movff	_current+2,___flmul@b+2	;volatile
  8375  0014BA  C0EC  F0AB         	movff	_current+3,___flmul@b+3	;volatile
  8376  0014BE  0E00               	movlw	0
  8377  0014C0  0100               	movlb	0	; () banked
  8378  0014C2  6FAC               	movwf	___flmul@a& (0+255),b
  8379  0014C4  0E00               	movlw	0
  8380  0014C6  6FAD               	movwf	(___flmul@a+1)& (0+255),b
  8381  0014C8  0EA0               	movlw	160
  8382  0014CA  6FAE               	movwf	(___flmul@a+2)& (0+255),b
  8383  0014CC  0E40               	movlw	64
  8384  0014CE  6FAF               	movwf	(___flmul@a+3)& (0+255),b
  8385  0014D0  EC79  F00E         	call	___flmul	;wreg free
  8386  0014D4  C0A8  F0E9         	movff	?___flmul,_current	;volatile
  8387  0014D8  C0A9  F0EA         	movff	?___flmul+1,_current+1	;volatile
  8388  0014DC  C0AA  F0EB         	movff	?___flmul+2,_current+2	;volatile
  8389  0014E0  C0AB  F0EC         	movff	?___flmul+3,_current+3	;volatile
  8390                           
  8391                           ;batterua.c: 285: current = current / 1024;
  8392  0014E4  C0E9  F07B         	movff	_current,___fldiv@b	;volatile
  8393  0014E8  C0EA  F07C         	movff	_current+1,___fldiv@b+1	;volatile
  8394  0014EC  C0EB  F07D         	movff	_current+2,___fldiv@b+2	;volatile
  8395  0014F0  C0EC  F07E         	movff	_current+3,___fldiv@b+3	;volatile
  8396  0014F4  0E00               	movlw	0
  8397  0014F6  0100               	movlb	0	; () banked
  8398  0014F8  6F7F               	movwf	___fldiv@a& (0+255),b
  8399  0014FA  0E00               	movlw	0
  8400  0014FC  6F80               	movwf	(___fldiv@a+1)& (0+255),b
  8401  0014FE  0E80               	movlw	128
  8402  001500  6F81               	movwf	(___fldiv@a+2)& (0+255),b
  8403  001502  0E44               	movlw	68
  8404  001504  6F82               	movwf	(___fldiv@a+3)& (0+255),b
  8405  001506  ECCC  F010         	call	___fldiv	;wreg free
  8406  00150A  C07B  F0E9         	movff	?___fldiv,_current	;volatile
  8407  00150E  C07C  F0EA         	movff	?___fldiv+1,_current+1	;volatile
  8408  001512  C07D  F0EB         	movff	?___fldiv+2,_current+2	;volatile
  8409  001516  C07E  F0EC         	movff	?___fldiv+3,_current+3	;volatile
  8410                           
  8411                           ;batterua.c: 286: current = current / 0.200;
  8412  00151A  C0E9  F07B         	movff	_current,___fldiv@b	;volatile
  8413  00151E  C0EA  F07C         	movff	_current+1,___fldiv@b+1	;volatile
  8414  001522  C0EB  F07D         	movff	_current+2,___fldiv@b+2	;volatile
  8415  001526  C0EC  F07E         	movff	_current+3,___fldiv@b+3	;volatile
  8416  00152A  0ECD               	movlw	205
  8417  00152C  0100               	movlb	0	; () banked
  8418  00152E  6F7F               	movwf	___fldiv@a& (0+255),b
  8419  001530  0ECC               	movlw	204
  8420  001532  6F80               	movwf	(___fldiv@a+1)& (0+255),b
  8421  001534  0E4C               	movlw	76
  8422  001536  6F81               	movwf	(___fldiv@a+2)& (0+255),b
  8423  001538  0E3E               	movlw	62
  8424  00153A  6F82               	movwf	(___fldiv@a+3)& (0+255),b
  8425  00153C  ECCC  F010         	call	___fldiv	;wreg free
  8426  001540  C07B  F0E9         	movff	?___fldiv,_current	;volatile
  8427  001544  C07C  F0EA         	movff	?___fldiv+1,_current+1	;volatile
  8428  001548  C07D  F0EB         	movff	?___fldiv+2,_current+2	;volatile
  8429  00154C  C07E  F0EC         	movff	?___fldiv+3,_current+3	;volatile
  8430                           
  8431                           ;batterua.c: 287: voltage = (lettura[0]);
  8432  001550  C0DE  F06D         	movff	read_adc@lettura,___xxtofl@val	;volatile
  8433  001554  C0DF  F06E         	movff	read_adc@lettura+1,___xxtofl@val+1	;volatile
  8434  001558  0100               	movlb	0	; () banked
  8435  00155A  0E00               	movlw	0
  8436  00155C  BF6E               	btfsc	(___xxtofl@val+1)& (0+255),7,b
  8437  00155E  0EFF               	movlw	-1
  8438  001560  6F6F               	movwf	(___xxtofl@val+2)& (0+255),b
  8439  001562  6F70               	movwf	(___xxtofl@val+3)& (0+255),b
  8440  001564  0E01               	movlw	1
  8441  001566  ECFE  F014         	call	___xxtofl
  8442  00156A  C06D  F0F1         	movff	?___xxtofl,_voltage	;volatile
  8443  00156E  C06E  F0F2         	movff	?___xxtofl+1,_voltage+1	;volatile
  8444  001572  C06F  F0F3         	movff	?___xxtofl+2,_voltage+2	;volatile
  8445  001576  C070  F0F4         	movff	?___xxtofl+3,_voltage+3	;volatile
  8446                           
  8447                           ;batterua.c: 288: voltage = (voltage * 5) / 1024;
  8448  00157A  0E00               	movlw	0
  8449  00157C  0100               	movlb	0	; () banked
  8450  00157E  6FAC               	movwf	___flmul@a& (0+255),b
  8451  001580  0E00               	movlw	0
  8452  001582  6FAD               	movwf	(___flmul@a+1)& (0+255),b
  8453  001584  0EA0               	movlw	160
  8454  001586  6FAE               	movwf	(___flmul@a+2)& (0+255),b
  8455  001588  0E40               	movlw	64
  8456  00158A  6FAF               	movwf	(___flmul@a+3)& (0+255),b
  8457  00158C  C0F1  F0A8         	movff	_voltage,___flmul@b	;volatile
  8458  001590  C0F2  F0A9         	movff	_voltage+1,___flmul@b+1	;volatile
  8459  001594  C0F3  F0AA         	movff	_voltage+2,___flmul@b+2	;volatile
  8460  001598  C0F4  F0AB         	movff	_voltage+3,___flmul@b+3	;volatile
  8461  00159C  EC79  F00E         	call	___flmul	;wreg free
  8462  0015A0  C0A8  F07B         	movff	?___flmul,___fldiv@b
  8463  0015A4  C0A9  F07C         	movff	?___flmul+1,___fldiv@b+1
  8464  0015A8  C0AA  F07D         	movff	?___flmul+2,___fldiv@b+2
  8465  0015AC  C0AB  F07E         	movff	?___flmul+3,___fldiv@b+3
  8466  0015B0  0E00               	movlw	0
  8467  0015B2  0100               	movlb	0	; () banked
  8468  0015B4  6F7F               	movwf	___fldiv@a& (0+255),b
  8469  0015B6  0E00               	movlw	0
  8470  0015B8  6F80               	movwf	(___fldiv@a+1)& (0+255),b
  8471  0015BA  0E80               	movlw	128
  8472  0015BC  6F81               	movwf	(___fldiv@a+2)& (0+255),b
  8473  0015BE  0E44               	movlw	68
  8474  0015C0  6F82               	movwf	(___fldiv@a+3)& (0+255),b
  8475  0015C2  ECCC  F010         	call	___fldiv	;wreg free
  8476  0015C6  C07B  F0F1         	movff	?___fldiv,_voltage	;volatile
  8477  0015CA  C07C  F0F2         	movff	?___fldiv+1,_voltage+1	;volatile
  8478  0015CE  C07D  F0F3         	movff	?___fldiv+2,_voltage+2	;volatile
  8479  0015D2  C07E  F0F4         	movff	?___fldiv+3,_voltage+3	;volatile
  8480                           
  8481                           ;batterua.c: 289: voltage = (float) voltage / 0.3302367395864549;
  8482  0015D6  C0F1  F07B         	movff	_voltage,___fldiv@b	;volatile
  8483  0015DA  C0F2  F07C         	movff	_voltage+1,___fldiv@b+1	;volatile
  8484  0015DE  C0F3  F07D         	movff	_voltage+2,___fldiv@b+2	;volatile
  8485  0015E2  C0F4  F07E         	movff	_voltage+3,___fldiv@b+3	;volatile
  8486  0015E6  0ECA               	movlw	202
  8487  0015E8  0100               	movlb	0	; () banked
  8488  0015EA  6F7F               	movwf	___fldiv@a& (0+255),b
  8489  0015EC  0E14               	movlw	20
  8490  0015EE  6F80               	movwf	(___fldiv@a+1)& (0+255),b
  8491  0015F0  0EA9               	movlw	169
  8492  0015F2  6F81               	movwf	(___fldiv@a+2)& (0+255),b
  8493  0015F4  0E3E               	movlw	62
  8494  0015F6  6F82               	movwf	(___fldiv@a+3)& (0+255),b
  8495  0015F8  ECCC  F010         	call	___fldiv	;wreg free
  8496  0015FC  C07B  F0F1         	movff	?___fldiv,_voltage	;volatile
  8497  001600  C07C  F0F2         	movff	?___fldiv+1,_voltage+1	;volatile
  8498  001604  C07D  F0F3         	movff	?___fldiv+2,_voltage+2	;volatile
  8499  001608  C07E  F0F4         	movff	?___fldiv+3,_voltage+3	;volatile
  8500                           
  8501                           ;batterua.c: 290: temperature = lettura[3];
  8502  00160C  EE20  F0E4         	lfsr	2,read_adc@lettura+6	;volatile
  8503  001610  CFDE F06D          	movff	postinc2,___xxtofl@val
  8504  001614  CFDD F06E          	movff	postdec2,___xxtofl@val+1
  8505  001618  0100               	movlb	0	; () banked
  8506  00161A  0E00               	movlw	0
  8507  00161C  BF6E               	btfsc	(___xxtofl@val+1)& (0+255),7,b
  8508  00161E  0EFF               	movlw	-1
  8509  001620  6F6F               	movwf	(___xxtofl@val+2)& (0+255),b
  8510  001622  6F70               	movwf	(___xxtofl@val+3)& (0+255),b
  8511  001624  0E01               	movlw	1
  8512  001626  ECFE  F014         	call	___xxtofl
  8513  00162A  C06D  F0F7         	movff	?___xxtofl,_temperature	;volatile
  8514  00162E  C06E  F0F8         	movff	?___xxtofl+1,_temperature+1	;volatile
  8515  001632  C06F  F0F9         	movff	?___xxtofl+2,_temperature+2	;volatile
  8516  001636  C070  F0FA         	movff	?___xxtofl+3,_temperature+3	;volatile
  8517                           
  8518                           ;batterua.c: 292: temperature = (temperature * 5) / 1024;
  8519  00163A  0E00               	movlw	0
  8520  00163C  0100               	movlb	0	; () banked
  8521  00163E  6FAC               	movwf	___flmul@a& (0+255),b
  8522  001640  0E00               	movlw	0
  8523  001642  6FAD               	movwf	(___flmul@a+1)& (0+255),b
  8524  001644  0EA0               	movlw	160
  8525  001646  6FAE               	movwf	(___flmul@a+2)& (0+255),b
  8526  001648  0E40               	movlw	64
  8527  00164A  6FAF               	movwf	(___flmul@a+3)& (0+255),b
  8528  00164C  C0F7  F0A8         	movff	_temperature,___flmul@b	;volatile
  8529  001650  C0F8  F0A9         	movff	_temperature+1,___flmul@b+1	;volatile
  8530  001654  C0F9  F0AA         	movff	_temperature+2,___flmul@b+2	;volatile
  8531  001658  C0FA  F0AB         	movff	_temperature+3,___flmul@b+3	;volatile
  8532  00165C  EC79  F00E         	call	___flmul	;wreg free
  8533  001660  C0A8  F07B         	movff	?___flmul,___fldiv@b
  8534  001664  C0A9  F07C         	movff	?___flmul+1,___fldiv@b+1
  8535  001668  C0AA  F07D         	movff	?___flmul+2,___fldiv@b+2
  8536  00166C  C0AB  F07E         	movff	?___flmul+3,___fldiv@b+3
  8537  001670  0E00               	movlw	0
  8538  001672  0100               	movlb	0	; () banked
  8539  001674  6F7F               	movwf	___fldiv@a& (0+255),b
  8540  001676  0E00               	movlw	0
  8541  001678  6F80               	movwf	(___fldiv@a+1)& (0+255),b
  8542  00167A  0E80               	movlw	128
  8543  00167C  6F81               	movwf	(___fldiv@a+2)& (0+255),b
  8544  00167E  0E44               	movlw	68
  8545  001680  6F82               	movwf	(___fldiv@a+3)& (0+255),b
  8546  001682  ECCC  F010         	call	___fldiv	;wreg free
  8547  001686  C07B  F0F7         	movff	?___fldiv,_temperature	;volatile
  8548  00168A  C07C  F0F8         	movff	?___fldiv+1,_temperature+1	;volatile
  8549  00168E  C07D  F0F9         	movff	?___fldiv+2,_temperature+2	;volatile
  8550  001692  C07E  F0FA         	movff	?___fldiv+3,_temperature+3	;volatile
  8551                           
  8552                           ;batterua.c: 293: temperature = (((10000 * 5.0) / temperature) - 10000);
  8553  001696  C0F7  F07F         	movff	_temperature,___fldiv@a	;volatile
  8554  00169A  C0F8  F080         	movff	_temperature+1,___fldiv@a+1	;volatile
  8555  00169E  C0F9  F081         	movff	_temperature+2,___fldiv@a+2	;volatile
  8556  0016A2  C0FA  F082         	movff	_temperature+3,___fldiv@a+3	;volatile
  8557  0016A6  0E00               	movlw	0
  8558  0016A8  0100               	movlb	0	; () banked
  8559  0016AA  6F7B               	movwf	___fldiv@b& (0+255),b
  8560  0016AC  0E50               	movlw	80
  8561  0016AE  6F7C               	movwf	(___fldiv@b+1)& (0+255),b
  8562  0016B0  0E43               	movlw	67
  8563  0016B2  6F7D               	movwf	(___fldiv@b+2)& (0+255),b
  8564  0016B4  0E47               	movlw	71
  8565  0016B6  6F7E               	movwf	(___fldiv@b+3)& (0+255),b
  8566  0016B8  ECCC  F010         	call	___fldiv	;wreg free
  8567  0016BC  C07B  F094         	movff	?___fldiv,___fladd@b
  8568  0016C0  C07C  F095         	movff	?___fldiv+1,___fladd@b+1
  8569  0016C4  C07D  F096         	movff	?___fldiv+2,___fladd@b+2
  8570  0016C8  C07E  F097         	movff	?___fldiv+3,___fladd@b+3
  8571  0016CC  0E00               	movlw	0
  8572  0016CE  0100               	movlb	0	; () banked
  8573  0016D0  6F98               	movwf	___fladd@a& (0+255),b
  8574  0016D2  0E40               	movlw	64
  8575  0016D4  6F99               	movwf	(___fladd@a+1)& (0+255),b
  8576  0016D6  0E1C               	movlw	28
  8577  0016D8  6F9A               	movwf	(___fladd@a+2)& (0+255),b
  8578  0016DA  0EC6               	movlw	198
  8579  0016DC  6F9B               	movwf	(___fladd@a+3)& (0+255),b
  8580  0016DE  EC25  F00C         	call	___fladd	;wreg free
  8581  0016E2  C094  F0F7         	movff	?___fladd,_temperature	;volatile
  8582  0016E6  C095  F0F8         	movff	?___fladd+1,_temperature+1	;volatile
  8583  0016EA  C096  F0F9         	movff	?___fladd+2,_temperature+2	;volatile
  8584  0016EE  C097  F0FA         	movff	?___fladd+3,_temperature+3	;volatile
  8585                           
  8586                           ;batterua.c: 294: float logaritmo = 0;
  8587  0016F2  0E00               	movlw	0
  8588  0016F4  0100               	movlb	0	; () banked
  8589  0016F6  6FD9               	movwf	read_adc@logaritmo& (0+255),b
  8590  0016F8  0E00               	movlw	0
  8591  0016FA  6FDA               	movwf	(read_adc@logaritmo+1)& (0+255),b
  8592  0016FC  0E00               	movlw	0
  8593  0016FE  6FDB               	movwf	(read_adc@logaritmo+2)& (0+255),b
  8594  001700  0E00               	movlw	0
  8595  001702  6FDC               	movwf	(read_adc@logaritmo+3)& (0+255),b
  8596                           
  8597                           ; BSR set to: 0
  8598                           ;batterua.c: 295: logaritmo = log(temperature / 10000);
  8599  001704  C0F7  F07B         	movff	_temperature,___fldiv@b	;volatile
  8600  001708  C0F8  F07C         	movff	_temperature+1,___fldiv@b+1	;volatile
  8601  00170C  C0F9  F07D         	movff	_temperature+2,___fldiv@b+2	;volatile
  8602  001710  C0FA  F07E         	movff	_temperature+3,___fldiv@b+3	;volatile
  8603  001714  0E00               	movlw	0
  8604  001716  0100               	movlb	0	; () banked
  8605  001718  6F7F               	movwf	___fldiv@a& (0+255),b
  8606  00171A  0E40               	movlw	64
  8607  00171C  6F80               	movwf	(___fldiv@a+1)& (0+255),b
  8608  00171E  0E1C               	movlw	28
  8609  001720  6F81               	movwf	(___fldiv@a+2)& (0+255),b
  8610  001722  0E46               	movlw	70
  8611  001724  6F82               	movwf	(___fldiv@a+3)& (0+255),b
  8612  001726  ECCC  F010         	call	___fldiv	;wreg free
  8613  00172A  C07B  F0D1         	movff	?___fldiv,log@x
  8614  00172E  C07C  F0D2         	movff	?___fldiv+1,log@x+1
  8615  001732  C07D  F0D3         	movff	?___fldiv+2,log@x+2
  8616  001736  C07E  F0D4         	movff	?___fldiv+3,log@x+3
  8617  00173A  EC20  F019         	call	_log	;wreg free
  8618  00173E  C0D1  F0D9         	movff	?_log,read_adc@logaritmo
  8619  001742  C0D2  F0DA         	movff	?_log+1,read_adc@logaritmo+1
  8620  001746  C0D3  F0DB         	movff	?_log+2,read_adc@logaritmo+2
  8621  00174A  C0D4  F0DC         	movff	?_log+3,read_adc@logaritmo+3
  8622                           
  8623                           ;batterua.c: 296: temperature = (1 / 298.15)+(logaritmo / 4300);
  8624  00174E  0E00               	movlw	0
  8625  001750  0100               	movlb	0	; () banked
  8626  001752  6F7F               	movwf	___fldiv@a& (0+255),b
  8627  001754  0E60               	movlw	96
  8628  001756  6F80               	movwf	(___fldiv@a+1)& (0+255),b
  8629  001758  0E86               	movlw	134
  8630  00175A  6F81               	movwf	(___fldiv@a+2)& (0+255),b
  8631  00175C  0E45               	movlw	69
  8632  00175E  6F82               	movwf	(___fldiv@a+3)& (0+255),b
  8633  001760  C0D9  F07B         	movff	read_adc@logaritmo,___fldiv@b
  8634  001764  C0DA  F07C         	movff	read_adc@logaritmo+1,___fldiv@b+1
  8635  001768  C0DB  F07D         	movff	read_adc@logaritmo+2,___fldiv@b+2
  8636  00176C  C0DC  F07E         	movff	read_adc@logaritmo+3,___fldiv@b+3
  8637  001770  ECCC  F010         	call	___fldiv	;wreg free
  8638  001774  C07B  F094         	movff	?___fldiv,___fladd@b
  8639  001778  C07C  F095         	movff	?___fldiv+1,___fladd@b+1
  8640  00177C  C07D  F096         	movff	?___fldiv+2,___fladd@b+2
  8641  001780  C07E  F097         	movff	?___fldiv+3,___fladd@b+3
  8642  001784  0E0F               	movlw	15
  8643  001786  0100               	movlb	0	; () banked
  8644  001788  6F98               	movwf	___fladd@a& (0+255),b
  8645  00178A  0ECF               	movlw	207
  8646  00178C  6F99               	movwf	(___fladd@a+1)& (0+255),b
  8647  00178E  0E5B               	movlw	91
  8648  001790  6F9A               	movwf	(___fladd@a+2)& (0+255),b
  8649  001792  0E3B               	movlw	59
  8650  001794  6F9B               	movwf	(___fladd@a+3)& (0+255),b
  8651  001796  EC25  F00C         	call	___fladd	;wreg free
  8652  00179A  C094  F0F7         	movff	?___fladd,_temperature	;volatile
  8653  00179E  C095  F0F8         	movff	?___fladd+1,_temperature+1	;volatile
  8654  0017A2  C096  F0F9         	movff	?___fladd+2,_temperature+2	;volatile
  8655  0017A6  C097  F0FA         	movff	?___fladd+3,_temperature+3	;volatile
  8656                           
  8657                           ;batterua.c: 297: temperature = 1 / temperature;
  8658  0017AA  0E00               	movlw	0
  8659  0017AC  0100               	movlb	0	; () banked
  8660  0017AE  6F7B               	movwf	___fldiv@b& (0+255),b
  8661  0017B0  0E00               	movlw	0
  8662  0017B2  6F7C               	movwf	(___fldiv@b+1)& (0+255),b
  8663  0017B4  0E80               	movlw	128
  8664  0017B6  6F7D               	movwf	(___fldiv@b+2)& (0+255),b
  8665  0017B8  0E3F               	movlw	63
  8666  0017BA  6F7E               	movwf	(___fldiv@b+3)& (0+255),b
  8667  0017BC  C0F7  F07F         	movff	_temperature,___fldiv@a	;volatile
  8668  0017C0  C0F8  F080         	movff	_temperature+1,___fldiv@a+1	;volatile
  8669  0017C4  C0F9  F081         	movff	_temperature+2,___fldiv@a+2	;volatile
  8670  0017C8  C0FA  F082         	movff	_temperature+3,___fldiv@a+3	;volatile
  8671  0017CC  ECCC  F010         	call	___fldiv	;wreg free
  8672  0017D0  C07B  F0F7         	movff	?___fldiv,_temperature	;volatile
  8673  0017D4  C07C  F0F8         	movff	?___fldiv+1,_temperature+1	;volatile
  8674  0017D8  C07D  F0F9         	movff	?___fldiv+2,_temperature+2	;volatile
  8675  0017DC  C07E  F0FA         	movff	?___fldiv+3,_temperature+3	;volatile
  8676                           
  8677                           ;batterua.c: 298: temperature = temperature - 273.15;
  8678  0017E0  C0F7  F094         	movff	_temperature,___fladd@b	;volatile
  8679  0017E4  C0F8  F095         	movff	_temperature+1,___fladd@b+1	;volatile
  8680  0017E8  C0F9  F096         	movff	_temperature+2,___fladd@b+2	;volatile
  8681  0017EC  C0FA  F097         	movff	_temperature+3,___fladd@b+3	;volatile
  8682  0017F0  0E33               	movlw	51
  8683  0017F2  0100               	movlb	0	; () banked
  8684  0017F4  6F98               	movwf	___fladd@a& (0+255),b
  8685  0017F6  0E93               	movlw	147
  8686  0017F8  6F99               	movwf	(___fladd@a+1)& (0+255),b
  8687  0017FA  0E88               	movlw	136
  8688  0017FC  6F9A               	movwf	(___fladd@a+2)& (0+255),b
  8689  0017FE  0EC3               	movlw	195
  8690  001800  6F9B               	movwf	(___fladd@a+3)& (0+255),b
  8691  001802  EC25  F00C         	call	___fladd	;wreg free
  8692  001806  C094  F0F7         	movff	?___fladd,_temperature	;volatile
  8693  00180A  C095  F0F8         	movff	?___fladd+1,_temperature+1	;volatile
  8694  00180E  C096  F0F9         	movff	?___fladd+2,_temperature+2	;volatile
  8695  001812  C097  F0FA         	movff	?___fladd+3,_temperature+3	;volatile
  8696                           
  8697                           ;batterua.c: 299: if (temperature > 40.0) {
  8698  001816  0E00               	movlw	0
  8699  001818  0100               	movlb	0	; () banked
  8700  00181A  6F60               	movwf	___flge@ff1& (0+255),b
  8701  00181C  0E00               	movlw	0
  8702  00181E  6F61               	movwf	(___flge@ff1+1)& (0+255),b
  8703  001820  0E20               	movlw	32
  8704  001822  6F62               	movwf	(___flge@ff1+2)& (0+255),b
  8705  001824  0E42               	movlw	66
  8706  001826  6F63               	movwf	(___flge@ff1+3)& (0+255),b
  8707  001828  C0F7  F064         	movff	_temperature,___flge@ff2	;volatile
  8708  00182C  C0F8  F065         	movff	_temperature+1,___flge@ff2+1	;volatile
  8709  001830  C0F9  F066         	movff	_temperature+2,___flge@ff2+2	;volatile
  8710  001834  C0FA  F067         	movff	_temperature+3,___flge@ff2+3	;volatile
  8711  001838  EC94  F017         	call	___flge	;wreg free
  8712  00183C  0100               	movlb	0	; () banked
  8713  00183E  B0D8               	btfsc	status,0,c
  8714  001840  D002               	goto	l288
  8715                           
  8716                           ; BSR set to: 0
  8717                           ;batterua.c: 300: LATCbits.LATC2 = 1;
  8718  001842  848B               	bsf	3979,2,c	;volatile
  8719                           
  8720                           ;batterua.c: 301: } else {
  8721  001844  0012               	return	
  8722  001846                     l288:
  8723                           
  8724                           ; BSR set to: 0
  8725                           ;batterua.c: 302: LATCbits.LATC2 = 0;
  8726  001846  948B               	bcf	3979,2,c	;volatile
  8727  001848  0012               	return	
  8728  00184A                     __end_of_read_adc:
  8729                           	opt stack 0
  8730                           tblptru	equ	0xFF8
  8731                           tblptrh	equ	0xFF7
  8732                           tblptrl	equ	0xFF6
  8733                           tablat	equ	0xFF5
  8734                           prodh	equ	0xFF4
  8735                           prodl	equ	0xFF3
  8736                           intcon	equ	0xFF2
  8737                           postinc0	equ	0xFEE
  8738                           wreg	equ	0xFE8
  8739                           indf1	equ	0xFE7
  8740                           postdec1	equ	0xFE5
  8741                           plusw1	equ	0xFE3
  8742                           fsr1h	equ	0xFE2
  8743                           fsr1l	equ	0xFE1
  8744                           indf2	equ	0xFDF
  8745                           postinc2	equ	0xFDE
  8746                           postdec2	equ	0xFDD
  8747                           plusw2	equ	0xFDB
  8748                           fsr2h	equ	0xFDA
  8749                           fsr2l	equ	0xFD9
  8750                           status	equ	0xFD8
  8751                           
  8752 ;; *************** function _log *****************
  8753 ;; Defined at:
  8754 ;;		line 5 in file "C:\Program Files (x86)\Microchip\xc8\v1.37\sources\common\log.c"
  8755 ;; Parameters:    Size  Location     Type
  8756 ;;  x               4  113[BANK0 ] void 
  8757 ;; Auto vars:     Size  Location     Type
  8758 ;;  exponent        2  117[BANK0 ] int 
  8759 ;; Return value:  Size  Location     Type
  8760 ;;                  4  113[BANK0 ] int 
  8761 ;; Registers used:
  8762 ;;		wreg, fsr2l, fsr2h, status,2, status,0, tblptrl, tblptrh, tblptru, prodl, prodh, cstack
  8763 ;; Tracked objects:
  8764 ;;		On entry : 0/0
  8765 ;;		On exit  : 0/0
  8766 ;;		Unchanged: 0/0
  8767 ;; Data sizes:     COMRAM   BANK0   BANK1   BANK2   BANK3   BANK4   BANK5   BANK6   BANK7
  8768 ;;      Params:         0       4       0       0       0       0       0       0       0
  8769 ;;      Locals:         0       2       0       0       0       0       0       0       0
  8770 ;;      Temps:          0       0       0       0       0       0       0       0       0
  8771 ;;      Totals:         0       6       0       0       0       0       0       0       0
  8772 ;;Total ram usage:        6 bytes
  8773 ;; Hardware stack levels used:    1
  8774 ;; Hardware stack levels required when called:    4
  8775 ;; This function calls:
  8776 ;;		___fladd
  8777 ;;		___flmul
  8778 ;;		___xxtofl
  8779 ;;		_eval_poly
  8780 ;;		_frexp
  8781 ;; This function is called by:
  8782 ;;		_read_adc
  8783 ;; This function uses a non-reentrant model
  8784 ;;
  8785                           
  8786                           	psect	text24
  8787  003240                     __ptext24:
  8788                           	opt stack 0
  8789  003240                     _log:
  8790                           	opt stack 23
  8791                           
  8792                           ; BSR set to: 0
  8793                           ;incstack = 0
  8794  003240  0100               	movlb	0	; () banked
  8795  003242  AFD4               	btfss	(log@x+3)& (0+255),7,b
  8796  003244  D00E               	goto	l5317
  8797                           
  8798                           ; BSR set to: 0
  8799  003246  0E00               	movlw	0
  8800  003248  6E2E               	movwf	_errno+1,c
  8801  00324A  0E21               	movlw	33
  8802  00324C  6E2D               	movwf	_errno,c
  8803  00324E  0E00               	movlw	0
  8804  003250  0100               	movlb	0	; () banked
  8805  003252  6FD1               	movwf	?_log& (0+255),b
  8806  003254  0E00               	movlw	0
  8807  003256  6FD2               	movwf	(?_log+1)& (0+255),b
  8808  003258  0E00               	movlw	0
  8809  00325A  6FD3               	movwf	(?_log+2)& (0+255),b
  8810  00325C  0E00               	movlw	0
  8811  00325E  6FD4               	movwf	(?_log+3)& (0+255),b
  8812                           
  8813                           ; BSR set to: 0
  8814  003260  0012               	return	
  8815  003262                     l5317:
  8816                           
  8817                           ; BSR set to: 0
  8818  003262  0100               	movlb	0	; () banked
  8819  003264  51D1               	movf	log@x& (0+255),w,b
  8820  003266  0100               	movlb	0	; () banked
  8821  003268  11D2               	iorwf	(log@x+1)& (0+255),w,b
  8822  00326A  0100               	movlb	0	; () banked
  8823  00326C  11D3               	iorwf	(log@x+2)& (0+255),w,b
  8824  00326E  0100               	movlb	0	; () banked
  8825  003270  11D4               	iorwf	(log@x+3)& (0+255),w,b
  8826  003272  A4D8               	btfss	status,2,c
  8827  003274  D00E               	goto	l5323
  8828                           
  8829                           ; BSR set to: 0
  8830  003276  0E00               	movlw	0
  8831  003278  6E2E               	movwf	_errno+1,c
  8832  00327A  0E22               	movlw	34
  8833  00327C  6E2D               	movwf	_errno,c
  8834  00327E  0E00               	movlw	0
  8835  003280  0100               	movlb	0	; () banked
  8836  003282  6FD1               	movwf	?_log& (0+255),b
  8837  003284  0E00               	movlw	0
  8838  003286  6FD2               	movwf	(?_log+1)& (0+255),b
  8839  003288  0E00               	movlw	0
  8840  00328A  6FD3               	movwf	(?_log+2)& (0+255),b
  8841  00328C  0E00               	movlw	0
  8842  00328E  6FD4               	movwf	(?_log+3)& (0+255),b
  8843                           
  8844                           ; BSR set to: 0
  8845  003290  0012               	return	
  8846  003292                     l5323:
  8847                           
  8848                           ; BSR set to: 0
  8849  003292  0E00               	movlw	0
  8850  003294  0100               	movlb	0	; () banked
  8851  003296  6FAC               	movwf	___flmul@a& (0+255),b
  8852  003298  0E00               	movlw	0
  8853  00329A  6FAD               	movwf	(___flmul@a+1)& (0+255),b
  8854  00329C  0E00               	movlw	0
  8855  00329E  6FAE               	movwf	(___flmul@a+2)& (0+255),b
  8856  0032A0  0E40               	movlw	64
  8857  0032A2  6FAF               	movwf	(___flmul@a+3)& (0+255),b
  8858  0032A4  0ED5               	movlw	low log@exponent
  8859  0032A6  0100               	movlb	0	; () banked
  8860  0032A8  6F64               	movwf	frexp@eptr& (0+255),b
  8861  0032AA  0E00               	movlw	high log@exponent
  8862  0032AC  0100               	movlb	0	; () banked
  8863  0032AE  6F65               	movwf	(frexp@eptr+1)& (0+255),b
  8864  0032B0  C0D1  F060         	movff	log@x,frexp@value
  8865  0032B4  C0D2  F061         	movff	log@x+1,frexp@value+1
  8866  0032B8  C0D3  F062         	movff	log@x+2,frexp@value+2
  8867  0032BC  C0D4  F063         	movff	log@x+3,frexp@value+3
  8868  0032C0  ECA5  F01E         	call	_frexp	;wreg free
  8869  0032C4  C060  F0A8         	movff	?_frexp,___flmul@b
  8870  0032C8  C061  F0A9         	movff	?_frexp+1,___flmul@b+1
  8871  0032CC  C062  F0AA         	movff	?_frexp+2,___flmul@b+2
  8872  0032D0  C063  F0AB         	movff	?_frexp+3,___flmul@b+3
  8873  0032D4  EC79  F00E         	call	___flmul	;wreg free
  8874  0032D8  C0A8  F094         	movff	?___flmul,___fladd@b
  8875  0032DC  C0A9  F095         	movff	?___flmul+1,___fladd@b+1
  8876  0032E0  C0AA  F096         	movff	?___flmul+2,___fladd@b+2
  8877  0032E4  C0AB  F097         	movff	?___flmul+3,___fladd@b+3
  8878  0032E8  0E00               	movlw	0
  8879  0032EA  0100               	movlb	0	; () banked
  8880  0032EC  6F98               	movwf	___fladd@a& (0+255),b
  8881  0032EE  0E00               	movlw	0
  8882  0032F0  6F99               	movwf	(___fladd@a+1)& (0+255),b
  8883  0032F2  0E80               	movlw	128
  8884  0032F4  6F9A               	movwf	(___fladd@a+2)& (0+255),b
  8885  0032F6  0EBF               	movlw	191
  8886  0032F8  6F9B               	movwf	(___fladd@a+3)& (0+255),b
  8887  0032FA  EC25  F00C         	call	___fladd	;wreg free
  8888  0032FE  C094  F0D1         	movff	?___fladd,log@x
  8889  003302  C095  F0D2         	movff	?___fladd+1,log@x+1
  8890  003306  C096  F0D3         	movff	?___fladd+2,log@x+2
  8891  00330A  C097  F0D4         	movff	?___fladd+3,log@x+3
  8892  00330E  0100               	movlb	0	; () banked
  8893  003310  07D5               	decf	log@exponent& (0+255),f,b
  8894  003312  A0D8               	btfss	status,0,c
  8895  003314  07D6               	decf	(log@exponent+1)& (0+255),f,b
  8896                           
  8897                           ; BSR set to: 0
  8898  003316  C0D1  F0C1         	movff	log@x,eval_poly@x
  8899  00331A  C0D2  F0C2         	movff	log@x+1,eval_poly@x+1
  8900  00331E  C0D3  F0C3         	movff	log@x+2,eval_poly@x+2
  8901  003322  C0D4  F0C4         	movff	log@x+3,eval_poly@x+3
  8902  003326  0EA9               	movlw	low log@coeff
  8903  003328  0100               	movlb	0	; () banked
  8904  00332A  6FC5               	movwf	eval_poly@d& (0+255),b
  8905  00332C  0E7E               	movlw	high log@coeff
  8906  00332E  0100               	movlb	0	; () banked
  8907  003330  6FC6               	movwf	(eval_poly@d+1)& (0+255),b
  8908  003332  0E00               	movlw	0
  8909  003334  0100               	movlb	0	; () banked
  8910  003336  6FC8               	movwf	(eval_poly@n+1)& (0+255),b
  8911  003338  0E08               	movlw	8
  8912  00333A  6FC7               	movwf	eval_poly@n& (0+255),b
  8913  00333C  EC25  F01B         	call	_eval_poly	;wreg free
  8914  003340  C0C1  F0D1         	movff	?_eval_poly,log@x
  8915  003344  C0C2  F0D2         	movff	?_eval_poly+1,log@x+1
  8916  003348  C0C3  F0D3         	movff	?_eval_poly+2,log@x+2
  8917  00334C  C0C4  F0D4         	movff	?_eval_poly+3,log@x+3
  8918  003350  0E18               	movlw	24
  8919  003352  0100               	movlb	0	; () banked
  8920  003354  6FAC               	movwf	___flmul@a& (0+255),b
  8921  003356  0E72               	movlw	114
  8922  003358  6FAD               	movwf	(___flmul@a+1)& (0+255),b
  8923  00335A  0E31               	movlw	49
  8924  00335C  6FAE               	movwf	(___flmul@a+2)& (0+255),b
  8925  00335E  0E3F               	movlw	63
  8926  003360  6FAF               	movwf	(___flmul@a+3)& (0+255),b
  8927  003362  C0D5  F06D         	movff	log@exponent,___xxtofl@val
  8928  003366  C0D6  F06E         	movff	log@exponent+1,___xxtofl@val+1
  8929  00336A  0100               	movlb	0	; () banked
  8930  00336C  0E00               	movlw	0
  8931  00336E  BF6E               	btfsc	(___xxtofl@val+1)& (0+255),7,b
  8932  003370  0EFF               	movlw	-1
  8933  003372  6F6F               	movwf	(___xxtofl@val+2)& (0+255),b
  8934  003374  6F70               	movwf	(___xxtofl@val+3)& (0+255),b
  8935  003376  0E01               	movlw	1
  8936  003378  ECFE  F014         	call	___xxtofl
  8937  00337C  C06D  F0A8         	movff	?___xxtofl,___flmul@b
  8938  003380  C06E  F0A9         	movff	?___xxtofl+1,___flmul@b+1
  8939  003384  C06F  F0AA         	movff	?___xxtofl+2,___flmul@b+2
  8940  003388  C070  F0AB         	movff	?___xxtofl+3,___flmul@b+3
  8941  00338C  EC79  F00E         	call	___flmul	;wreg free
  8942  003390  C0A8  F094         	movff	?___flmul,___fladd@b
  8943  003394  C0A9  F095         	movff	?___flmul+1,___fladd@b+1
  8944  003398  C0AA  F096         	movff	?___flmul+2,___fladd@b+2
  8945  00339C  C0AB  F097         	movff	?___flmul+3,___fladd@b+3
  8946  0033A0  C0D1  F098         	movff	log@x,___fladd@a
  8947  0033A4  C0D2  F099         	movff	log@x+1,___fladd@a+1
  8948  0033A8  C0D3  F09A         	movff	log@x+2,___fladd@a+2
  8949  0033AC  C0D4  F09B         	movff	log@x+3,___fladd@a+3
  8950  0033B0  EC25  F00C         	call	___fladd	;wreg free
  8951  0033B4  C094  F0D1         	movff	?___fladd,?_log
  8952  0033B8  C095  F0D2         	movff	?___fladd+1,?_log+1
  8953  0033BC  C096  F0D3         	movff	?___fladd+2,?_log+2
  8954  0033C0  C097  F0D4         	movff	?___fladd+3,?_log+3
  8955  0033C4  0012               	return	
  8956  0033C6                     __end_of_log:
  8957                           	opt stack 0
  8958                           tblptru	equ	0xFF8
  8959                           tblptrh	equ	0xFF7
  8960                           tblptrl	equ	0xFF6
  8961                           tablat	equ	0xFF5
  8962                           prodh	equ	0xFF4
  8963                           prodl	equ	0xFF3
  8964                           intcon	equ	0xFF2
  8965                           postinc0	equ	0xFEE
  8966                           wreg	equ	0xFE8
  8967                           indf1	equ	0xFE7
  8968                           postdec1	equ	0xFE5
  8969                           plusw1	equ	0xFE3
  8970                           fsr1h	equ	0xFE2
  8971                           fsr1l	equ	0xFE1
  8972                           indf2	equ	0xFDF
  8973                           postinc2	equ	0xFDE
  8974                           postdec2	equ	0xFDD
  8975                           plusw2	equ	0xFDB
  8976                           fsr2h	equ	0xFDA
  8977                           fsr2l	equ	0xFD9
  8978                           status	equ	0xFD8
  8979                           
  8980 ;; *************** function _frexp *****************
  8981 ;; Defined at:
  8982 ;;		line 254 in file "C:\Program Files (x86)\Microchip\xc8\v1.37\sources\common\frexp.c"
  8983 ;; Parameters:    Size  Location     Type
  8984 ;;  value           4    0[BANK0 ] int 
  8985 ;;  eptr            2    4[BANK0 ] PTR int 
  8986 ;;		 -> log@exponent(2), 
  8987 ;; Auto vars:     Size  Location     Type
  8988 ;;		None
  8989 ;; Return value:  Size  Location     Type
  8990 ;;                  4    0[BANK0 ] PTR int 
  8991 ;; Registers used:
  8992 ;;		wreg, fsr2l, fsr2h, status,2, status,0
  8993 ;; Tracked objects:
  8994 ;;		On entry : 0/0
  8995 ;;		On exit  : 0/0
  8996 ;;		Unchanged: 0/0
  8997 ;; Data sizes:     COMRAM   BANK0   BANK1   BANK2   BANK3   BANK4   BANK5   BANK6   BANK7
  8998 ;;      Params:         0       6       0       0       0       0       0       0       0
  8999 ;;      Locals:         0       0       0       0       0       0       0       0       0
  9000 ;;      Temps:          0       2       0       0       0       0       0       0       0
  9001 ;;      Totals:         0       8       0       0       0       0       0       0       0
  9002 ;;Total ram usage:        8 bytes
  9003 ;; Hardware stack levels used:    1
  9004 ;; Hardware stack levels required when called:    2
  9005 ;; This function calls:
  9006 ;;		Nothing
  9007 ;; This function is called by:
  9008 ;;		_log
  9009 ;; This function uses a non-reentrant model
  9010 ;;
  9011                           
  9012                           	psect	text25
  9013  003D4A                     __ptext25:
  9014                           	opt stack 0
  9015  003D4A                     _frexp:
  9016                           	opt stack 24
  9017                           
  9018                           ;incstack = 0
  9019  003D4A  0100               	movlb	0	; () banked
  9020  003D4C  5160               	movf	frexp@value& (0+255),w,b
  9021  003D4E  0100               	movlb	0	; () banked
  9022  003D50  1161               	iorwf	(frexp@value+1)& (0+255),w,b
  9023  003D52  0100               	movlb	0	; () banked
  9024  003D54  1162               	iorwf	(frexp@value+2)& (0+255),w,b
  9025  003D56  0100               	movlb	0	; () banked
  9026  003D58  1163               	iorwf	(frexp@value+3)& (0+255),w,b
  9027  003D5A  A4D8               	btfss	status,2,c
  9028  003D5C  D012               	goto	l5195
  9029                           
  9030                           ; BSR set to: 0
  9031  003D5E  C064  FFD9         	movff	frexp@eptr,fsr2l
  9032  003D62  C065  FFDA         	movff	frexp@eptr+1,fsr2h
  9033  003D66  0E00               	movlw	0
  9034  003D68  6EDE               	movwf	postinc2,c
  9035  003D6A  0E00               	movlw	0
  9036  003D6C  6EDD               	movwf	postdec2,c
  9037                           
  9038                           ; BSR set to: 0
  9039  003D6E  0E00               	movlw	0
  9040  003D70  0100               	movlb	0	; () banked
  9041  003D72  6F60               	movwf	?_frexp& (0+255),b
  9042  003D74  0E00               	movlw	0
  9043  003D76  6F61               	movwf	(?_frexp+1)& (0+255),b
  9044  003D78  0E00               	movlw	0
  9045  003D7A  6F62               	movwf	(?_frexp+2)& (0+255),b
  9046  003D7C  0E00               	movlw	0
  9047  003D7E  6F63               	movwf	(?_frexp+3)& (0+255),b
  9048                           
  9049                           ; BSR set to: 0
  9050  003D80  0012               	return	
  9051  003D82                     l5195:
  9052                           
  9053                           ; BSR set to: 0
  9054  003D82  0100               	movlb	0	; () banked
  9055  003D84  5163               	movf	(frexp@value+3)& (0+255),w,b
  9056  003D86  0B7F               	andlw	127
  9057  003D88  0100               	movlb	0	; () banked
  9058  003D8A  6F66               	movwf	??_frexp& (0+255),b
  9059  003D8C  6B67               	clrf	(??_frexp+1)& (0+255),b
  9060  003D8E  90D8               	bcf	status,0,c
  9061  003D90  0100               	movlb	0	; () banked
  9062  003D92  3766               	rlcf	??_frexp& (0+255),f,b
  9063  003D94  3767               	rlcf	(??_frexp+1)& (0+255),f,b
  9064  003D96  C064  FFD9         	movff	frexp@eptr,fsr2l
  9065  003D9A  C065  FFDA         	movff	frexp@eptr+1,fsr2h
  9066  003D9E  C066  FFDE         	movff	??_frexp,postinc2
  9067  003DA2  C067  FFDD         	movff	??_frexp+1,postdec2
  9068  003DA6  0100               	movlb	0	; () banked
  9069  003DA8  AF62               	btfss	(frexp@value+2)& (0+255),7,b
  9070  003DAA  D004               	goto	u5640
  9071  003DAC  0100               	movlb	0	; () banked
  9072  003DAE  6B66               	clrf	??_frexp& (0+255),b
  9073  003DB0  2B66               	incf	??_frexp& (0+255),f,b
  9074  003DB2  D002               	goto	u5648
  9075  003DB4                     u5640:
  9076  003DB4  0100               	movlb	0	; () banked
  9077  003DB6  6B66               	clrf	??_frexp& (0+255),b
  9078  003DB8                     u5648:
  9079  003DB8  0100               	movlb	0	; () banked
  9080  003DBA  5166               	movf	??_frexp& (0+255),w,b
  9081  003DBC  C064  FFD9         	movff	frexp@eptr,fsr2l
  9082  003DC0  C065  FFDA         	movff	frexp@eptr+1,fsr2h
  9083  003DC4  12DE               	iorwf	postinc2,f,c
  9084  003DC6  0E00               	movlw	0
  9085  003DC8  12DD               	iorwf	postdec2,f,c
  9086                           
  9087                           ; BSR set to: 0
  9088  003DCA  C064  FFD9         	movff	frexp@eptr,fsr2l
  9089  003DCE  C065  FFDA         	movff	frexp@eptr+1,fsr2h
  9090  003DD2  0E82               	movlw	130
  9091  003DD4  26DE               	addwf	postinc2,f,c
  9092  003DD6  0EFF               	movlw	255
  9093  003DD8  22DD               	addwfc	postdec2,f,c
  9094                           
  9095                           ; BSR set to: 0
  9096  003DDA  0100               	movlb	0	; () banked
  9097  003DDC  8163               	bsf	(frexp@value+3)& (0+255),0,b
  9098  003DDE  8363               	bsf	(frexp@value+3)& (0+255),1,b
  9099  003DE0  8563               	bsf	(frexp@value+3)& (0+255),2,b
  9100  003DE2  8763               	bsf	(frexp@value+3)& (0+255),3,b
  9101  003DE4  8963               	bsf	(frexp@value+3)& (0+255),4,b
  9102  003DE6  8B63               	bsf	(frexp@value+3)& (0+255),5,b
  9103  003DE8  9D63               	bcf	(frexp@value+3)& (0+255),6,b
  9104                           
  9105                           ; BSR set to: 0
  9106  003DEA  0100               	movlb	0	; () banked
  9107  003DEC  9F62               	bcf	(frexp@value+2)& (0+255),7,b
  9108                           
  9109                           ; BSR set to: 0
  9110  003DEE  C060  F060         	movff	frexp@value,?_frexp
  9111  003DF2  C061  F061         	movff	frexp@value+1,?_frexp+1
  9112  003DF6  C062  F062         	movff	frexp@value+2,?_frexp+2
  9113  003DFA  C063  F063         	movff	frexp@value+3,?_frexp+3
  9114  003DFE  0012               	return	
  9115  003E00                     __end_of_frexp:
  9116                           	opt stack 0
  9117                           tblptru	equ	0xFF8
  9118                           tblptrh	equ	0xFF7
  9119                           tblptrl	equ	0xFF6
  9120                           tablat	equ	0xFF5
  9121                           prodh	equ	0xFF4
  9122                           prodl	equ	0xFF3
  9123                           intcon	equ	0xFF2
  9124                           postinc0	equ	0xFEE
  9125                           wreg	equ	0xFE8
  9126                           indf1	equ	0xFE7
  9127                           postdec1	equ	0xFE5
  9128                           plusw1	equ	0xFE3
  9129                           fsr1h	equ	0xFE2
  9130                           fsr1l	equ	0xFE1
  9131                           indf2	equ	0xFDF
  9132                           postinc2	equ	0xFDE
  9133                           postdec2	equ	0xFDD
  9134                           plusw2	equ	0xFDB
  9135                           fsr2h	equ	0xFDA
  9136                           fsr2l	equ	0xFD9
  9137                           status	equ	0xFD8
  9138                           
  9139 ;; *************** function _eval_poly *****************
  9140 ;; Defined at:
  9141 ;;		line 4 in file "C:\Program Files (x86)\Microchip\xc8\v1.37\sources\common\evalpoly.c"
  9142 ;; Parameters:    Size  Location     Type
  9143 ;;  x               4   97[BANK0 ] PTR int 
  9144 ;;  d               2  101[BANK0 ] PTR const 
  9145 ;;		 -> log@coeff(36), 
  9146 ;;  n               2  103[BANK0 ] int 
  9147 ;; Auto vars:     Size  Location     Type
  9148 ;;  res             4  109[BANK0 ] int 
  9149 ;; Return value:  Size  Location     Type
  9150 ;;                  4   97[BANK0 ] int 
  9151 ;; Registers used:
  9152 ;;		wreg, status,2, status,0, tblptrl, tblptrh, tblptru, prodl, prodh, cstack
  9153 ;; Tracked objects:
  9154 ;;		On entry : 0/0
  9155 ;;		On exit  : 0/0
  9156 ;;		Unchanged: 0/0
  9157 ;; Data sizes:     COMRAM   BANK0   BANK1   BANK2   BANK3   BANK4   BANK5   BANK6   BANK7
  9158 ;;      Params:         0       8       0       0       0       0       0       0       0
  9159 ;;      Locals:         0       4       0       0       0       0       0       0       0
  9160 ;;      Temps:          0       4       0       0       0       0       0       0       0
  9161 ;;      Totals:         0      16       0       0       0       0       0       0       0
  9162 ;;Total ram usage:       16 bytes
  9163 ;; Hardware stack levels used:    1
  9164 ;; Hardware stack levels required when called:    3
  9165 ;; This function calls:
  9166 ;;		___fladd
  9167 ;;		___flmul
  9168 ;; This function is called by:
  9169 ;;		_log
  9170 ;; This function uses a non-reentrant model
  9171 ;;
  9172                           
  9173                           	psect	text26
  9174  00364A                     __ptext26:
  9175                           	opt stack 0
  9176  00364A                     _eval_poly:
  9177                           	opt stack 23
  9178                           
  9179                           ; BSR set to: 0
  9180                           ;incstack = 0
  9181  00364A  C0C7  F0C9         	movff	eval_poly@n,??_eval_poly
  9182  00364E  C0C8  F0CA         	movff	eval_poly@n+1,??_eval_poly+1
  9183  003652  0100               	movlb	0	; () banked
  9184  003654  90D8               	bcf	status,0,c
  9185  003656  37C9               	rlcf	??_eval_poly& (0+255),f,b
  9186  003658  37CA               	rlcf	(??_eval_poly+1)& (0+255),f,b
  9187  00365A  0100               	movlb	0	; () banked
  9188  00365C  90D8               	bcf	status,0,c
  9189  00365E  37C9               	rlcf	??_eval_poly& (0+255),f,b
  9190  003660  37CA               	rlcf	(??_eval_poly+1)& (0+255),f,b
  9191  003662  C0C5  F0CB         	movff	eval_poly@d,??_eval_poly+2
  9192  003666  C0C6  F0CC         	movff	eval_poly@d+1,??_eval_poly+3
  9193  00366A  0100               	movlb	0	; () banked
  9194  00366C  51C9               	movf	??_eval_poly& (0+255),w,b
  9195  00366E  0100               	movlb	0	; () banked
  9196  003670  27CB               	addwf	(??_eval_poly+2)& (0+255),f,b
  9197  003672  0100               	movlb	0	; () banked
  9198  003674  51CA               	movf	(??_eval_poly+1)& (0+255),w,b
  9199  003676  0100               	movlb	0	; () banked
  9200  003678  23CC               	addwfc	(??_eval_poly+3)& (0+255),f,b
  9201  00367A  C0CB  FFF6         	movff	??_eval_poly+2,tblptrl
  9202  00367E  C0CC  FFF7         	movff	??_eval_poly+3,tblptrh
  9203  003682                     	if	0	;tblptru may be non-zero
  9204  003682                     	endif
  9205  003682                     	if	0	;tblptru may be non-zero
  9206  003682                     	endif
  9207  003682  0009               	tblrd		*+
  9208  003684  CFF5 F0CD          	movff	tablat,eval_poly@res
  9209  003688  0009               	tblrd		*+
  9210  00368A  CFF5 F0CE          	movff	tablat,eval_poly@res+1
  9211  00368E  0009               	tblrd		*+
  9212  003690  CFF5 F0CF          	movff	tablat,eval_poly@res+2
  9213  003694  000A               	tblrd		*-
  9214  003696  CFF5 F0D0          	movff	tablat,eval_poly@res+3
  9215  00369A  D050               	goto	l5211
  9216  00369C                     l5209:
  9217                           
  9218                           ; BSR set to: 0
  9219  00369C  C0CD  F0AC         	movff	eval_poly@res,___flmul@a
  9220  0036A0  C0CE  F0AD         	movff	eval_poly@res+1,___flmul@a+1
  9221  0036A4  C0CF  F0AE         	movff	eval_poly@res+2,___flmul@a+2
  9222  0036A8  C0D0  F0AF         	movff	eval_poly@res+3,___flmul@a+3
  9223  0036AC  C0C1  F0A8         	movff	eval_poly@x,___flmul@b
  9224  0036B0  C0C2  F0A9         	movff	eval_poly@x+1,___flmul@b+1
  9225  0036B4  C0C3  F0AA         	movff	eval_poly@x+2,___flmul@b+2
  9226  0036B8  C0C4  F0AB         	movff	eval_poly@x+3,___flmul@b+3
  9227  0036BC  EC79  F00E         	call	___flmul	;wreg free
  9228  0036C0  C0A8  F094         	movff	?___flmul,___fladd@b
  9229  0036C4  C0A9  F095         	movff	?___flmul+1,___fladd@b+1
  9230  0036C8  C0AA  F096         	movff	?___flmul+2,___fladd@b+2
  9231  0036CC  C0AB  F097         	movff	?___flmul+3,___fladd@b+3
  9232  0036D0  0100               	movlb	0	; () banked
  9233  0036D2  07C7               	decf	eval_poly@n& (0+255),f,b
  9234  0036D4  A0D8               	btfss	status,0,c
  9235  0036D6  07C8               	decf	(eval_poly@n+1)& (0+255),f,b
  9236  0036D8  C0C7  F0C9         	movff	eval_poly@n,??_eval_poly
  9237  0036DC  C0C8  F0CA         	movff	eval_poly@n+1,??_eval_poly+1
  9238  0036E0  0100               	movlb	0	; () banked
  9239  0036E2  90D8               	bcf	status,0,c
  9240  0036E4  37C9               	rlcf	??_eval_poly& (0+255),f,b
  9241  0036E6  37CA               	rlcf	(??_eval_poly+1)& (0+255),f,b
  9242  0036E8  0100               	movlb	0	; () banked
  9243  0036EA  90D8               	bcf	status,0,c
  9244  0036EC  37C9               	rlcf	??_eval_poly& (0+255),f,b
  9245  0036EE  37CA               	rlcf	(??_eval_poly+1)& (0+255),f,b
  9246  0036F0  C0C5  F0CB         	movff	eval_poly@d,??_eval_poly+2
  9247  0036F4  C0C6  F0CC         	movff	eval_poly@d+1,??_eval_poly+3
  9248  0036F8  0100               	movlb	0	; () banked
  9249  0036FA  51C9               	movf	??_eval_poly& (0+255),w,b
  9250  0036FC  0100               	movlb	0	; () banked
  9251  0036FE  27CB               	addwf	(??_eval_poly+2)& (0+255),f,b
  9252  003700  0100               	movlb	0	; () banked
  9253  003702  51CA               	movf	(??_eval_poly+1)& (0+255),w,b
  9254  003704  0100               	movlb	0	; () banked
  9255  003706  23CC               	addwfc	(??_eval_poly+3)& (0+255),f,b
  9256  003708  C0CB  FFF6         	movff	??_eval_poly+2,tblptrl
  9257  00370C  C0CC  FFF7         	movff	??_eval_poly+3,tblptrh
  9258  003710                     	if	0	;tblptru may be non-zero
  9259  003710                     	endif
  9260  003710                     	if	0	;tblptru may be non-zero
  9261  003710                     	endif
  9262  003710  0009               	tblrd		*+
  9263  003712  CFF5 F098          	movff	tablat,___fladd@a
  9264  003716  0009               	tblrd		*+
  9265  003718  CFF5 F099          	movff	tablat,___fladd@a+1
  9266  00371C  0009               	tblrd		*+
  9267  00371E  CFF5 F09A          	movff	tablat,___fladd@a+2
  9268  003722  000A               	tblrd		*-
  9269  003724  CFF5 F09B          	movff	tablat,___fladd@a+3
  9270  003728  EC25  F00C         	call	___fladd	;wreg free
  9271  00372C  C094  F0CD         	movff	?___fladd,eval_poly@res
  9272  003730  C095  F0CE         	movff	?___fladd+1,eval_poly@res+1
  9273  003734  C096  F0CF         	movff	?___fladd+2,eval_poly@res+2
  9274  003738  C097  F0D0         	movff	?___fladd+3,eval_poly@res+3
  9275  00373C                     l5211:
  9276  00373C  0100               	movlb	0	; () banked
  9277  00373E  51C7               	movf	eval_poly@n& (0+255),w,b
  9278  003740  0100               	movlb	0	; () banked
  9279  003742  11C8               	iorwf	(eval_poly@n+1)& (0+255),w,b
  9280  003744  A4D8               	btfss	status,2,c
  9281  003746  D7AA               	goto	l5209
  9282                           
  9283                           ; BSR set to: 0
  9284  003748  C0CD  F0C1         	movff	eval_poly@res,?_eval_poly
  9285  00374C  C0CE  F0C2         	movff	eval_poly@res+1,?_eval_poly+1
  9286  003750  C0CF  F0C3         	movff	eval_poly@res+2,?_eval_poly+2
  9287  003754  C0D0  F0C4         	movff	eval_poly@res+3,?_eval_poly+3
  9288                           
  9289                           ; BSR set to: 0
  9290  003758  0012               	return		;funcret
  9291  00375A                     __end_of_eval_poly:
  9292                           	opt stack 0
  9293                           tblptru	equ	0xFF8
  9294                           tblptrh	equ	0xFF7
  9295                           tblptrl	equ	0xFF6
  9296                           tablat	equ	0xFF5
  9297                           prodh	equ	0xFF4
  9298                           prodl	equ	0xFF3
  9299                           intcon	equ	0xFF2
  9300                           postinc0	equ	0xFEE
  9301                           wreg	equ	0xFE8
  9302                           indf1	equ	0xFE7
  9303                           postdec1	equ	0xFE5
  9304                           plusw1	equ	0xFE3
  9305                           fsr1h	equ	0xFE2
  9306                           fsr1l	equ	0xFE1
  9307                           indf2	equ	0xFDF
  9308                           postinc2	equ	0xFDE
  9309                           postdec2	equ	0xFDD
  9310                           plusw2	equ	0xFDB
  9311                           fsr2h	equ	0xFDA
  9312                           fsr2l	equ	0xFD9
  9313                           status	equ	0xFD8
  9314                           
  9315 ;; *************** function ___flmul *****************
  9316 ;; Defined at:
  9317 ;;		line 8 in file "C:\Program Files (x86)\Microchip\xc8\v1.37\sources\common\sprcmul.c"
  9318 ;; Parameters:    Size  Location     Type
  9319 ;;  b               4   72[BANK0 ] int 
  9320 ;;  a               4   76[BANK0 ] int 
  9321 ;; Auto vars:     Size  Location     Type
  9322 ;;  prod            4   91[BANK0 ] struct .
  9323 ;;  grs             4   86[BANK0 ] unsigned long 
  9324 ;;  temp            2   95[BANK0 ] struct .
  9325 ;;  bexp            1   90[BANK0 ] unsigned char 
  9326 ;;  aexp            1   85[BANK0 ] unsigned char 
  9327 ;;  sign            1   84[BANK0 ] unsigned char 
  9328 ;; Return value:  Size  Location     Type
  9329 ;;                  4   72[BANK0 ] unsigned char 
  9330 ;; Registers used:
  9331 ;;		wreg, status,2, status,0, prodl, prodh
  9332 ;; Tracked objects:
  9333 ;;		On entry : 0/0
  9334 ;;		On exit  : 0/0
  9335 ;;		Unchanged: 0/0
  9336 ;; Data sizes:     COMRAM   BANK0   BANK1   BANK2   BANK3   BANK4   BANK5   BANK6   BANK7
  9337 ;;      Params:         0       8       0       0       0       0       0       0       0
  9338 ;;      Locals:         0      13       0       0       0       0       0       0       0
  9339 ;;      Temps:          0       4       0       0       0       0       0       0       0
  9340 ;;      Totals:         0      25       0       0       0       0       0       0       0
  9341 ;;Total ram usage:       25 bytes
  9342 ;; Hardware stack levels used:    1
  9343 ;; Hardware stack levels required when called:    2
  9344 ;; This function calls:
  9345 ;;		Nothing
  9346 ;; This function is called by:
  9347 ;;		_main
  9348 ;;		_read_adc
  9349 ;;		_fround
  9350 ;;		_scale
  9351 ;;		_sprintf
  9352 ;;		_log
  9353 ;;		_eval_poly
  9354 ;; This function uses a non-reentrant model
  9355 ;;
  9356                           
  9357                           	psect	text27
  9358  001CF2                     __ptext27:
  9359                           	opt stack 0
  9360  001CF2                     ___flmul:
  9361                           	opt stack 24
  9362                           
  9363                           ; BSR set to: 0
  9364                           ;incstack = 0
  9365  001CF2  0100               	movlb	0	; () banked
  9366  001CF4  51AB               	movf	(___flmul@b+3)& (0+255),w,b
  9367  001CF6  0B80               	andlw	128
  9368  001CF8  0100               	movlb	0	; () banked
  9369  001CFA  6FB4               	movwf	___flmul@sign& (0+255),b
  9370  001CFC  0100               	movlb	0	; () banked
  9371  001CFE  51AB               	movf	(___flmul@b+3)& (0+255),w,b
  9372  001D00  25AB               	addwf	(___flmul@b+3)& (0+255),w,b
  9373  001D02  0100               	movlb	0	; () banked
  9374  001D04  6FBA               	movwf	___flmul@bexp& (0+255),b
  9375                           
  9376                           ; BSR set to: 0
  9377  001D06  0100               	movlb	0	; () banked
  9378  001D08  AFAA               	btfss	(___flmul@b+2)& (0+255),7,b
  9379  001D0A  D002               	goto	l4977
  9380                           
  9381                           ; BSR set to: 0
  9382  001D0C  0100               	movlb	0	; () banked
  9383  001D0E  81BA               	bsf	___flmul@bexp& (0+255),0,b
  9384  001D10                     l4977:
  9385                           
  9386                           ; BSR set to: 0
  9387  001D10  0100               	movlb	0	; () banked
  9388  001D12  51BA               	movf	___flmul@bexp& (0+255),w,b
  9389  001D14  0100               	movlb	0	; () banked
  9390  001D16  B4D8               	btfsc	status,2,c
  9391  001D18  D010               	goto	l4985
  9392                           
  9393                           ; BSR set to: 0
  9394  001D1A  0100               	movlb	0	; () banked
  9395  001D1C  29BA               	incf	___flmul@bexp& (0+255),w,b
  9396  001D1E  A4D8               	btfss	status,2,c
  9397  001D20  D009               	goto	l4983
  9398                           
  9399                           ; BSR set to: 0
  9400  001D22  0E00               	movlw	0
  9401  001D24  0100               	movlb	0	; () banked
  9402  001D26  6FA8               	movwf	___flmul@b& (0+255),b
  9403  001D28  0E00               	movlw	0
  9404  001D2A  6FA9               	movwf	(___flmul@b+1)& (0+255),b
  9405  001D2C  0E00               	movlw	0
  9406  001D2E  6FAA               	movwf	(___flmul@b+2)& (0+255),b
  9407  001D30  0E00               	movlw	0
  9408  001D32  6FAB               	movwf	(___flmul@b+3)& (0+255),b
  9409  001D34                     l4983:
  9410                           
  9411                           ; BSR set to: 0
  9412  001D34  0100               	movlb	0	; () banked
  9413  001D36  8FAA               	bsf	(___flmul@b+2)& (0+255),7,b
  9414  001D38  D009               	goto	l4987
  9415  001D3A                     l4985:
  9416                           
  9417                           ; BSR set to: 0
  9418  001D3A  0E00               	movlw	0
  9419  001D3C  0100               	movlb	0	; () banked
  9420  001D3E  6FA8               	movwf	___flmul@b& (0+255),b
  9421  001D40  0E00               	movlw	0
  9422  001D42  6FA9               	movwf	(___flmul@b+1)& (0+255),b
  9423  001D44  0E00               	movlw	0
  9424  001D46  6FAA               	movwf	(___flmul@b+2)& (0+255),b
  9425  001D48  0E00               	movlw	0
  9426  001D4A  6FAB               	movwf	(___flmul@b+3)& (0+255),b
  9427  001D4C                     l4987:
  9428                           
  9429                           ; BSR set to: 0
  9430  001D4C  0100               	movlb	0	; () banked
  9431  001D4E  51AF               	movf	(___flmul@a+3)& (0+255),w,b
  9432  001D50  0B80               	andlw	128
  9433  001D52  0100               	movlb	0	; () banked
  9434  001D54  1BB4               	xorwf	___flmul@sign& (0+255),f,b
  9435                           
  9436                           ; BSR set to: 0
  9437  001D56  0100               	movlb	0	; () banked
  9438  001D58  51AF               	movf	(___flmul@a+3)& (0+255),w,b
  9439  001D5A  25AF               	addwf	(___flmul@a+3)& (0+255),w,b
  9440  001D5C  0100               	movlb	0	; () banked
  9441  001D5E  6FB5               	movwf	___flmul@aexp& (0+255),b
  9442                           
  9443                           ; BSR set to: 0
  9444  001D60  0100               	movlb	0	; () banked
  9445  001D62  AFAE               	btfss	(___flmul@a+2)& (0+255),7,b
  9446  001D64  D002               	goto	l4995
  9447                           
  9448                           ; BSR set to: 0
  9449  001D66  0100               	movlb	0	; () banked
  9450  001D68  81B5               	bsf	___flmul@aexp& (0+255),0,b
  9451  001D6A                     l4995:
  9452                           
  9453                           ; BSR set to: 0
  9454  001D6A  0100               	movlb	0	; () banked
  9455  001D6C  51B5               	movf	___flmul@aexp& (0+255),w,b
  9456  001D6E  0100               	movlb	0	; () banked
  9457  001D70  B4D8               	btfsc	status,2,c
  9458  001D72  D010               	goto	l5003
  9459                           
  9460                           ; BSR set to: 0
  9461  001D74  0100               	movlb	0	; () banked
  9462  001D76  29B5               	incf	___flmul@aexp& (0+255),w,b
  9463  001D78  A4D8               	btfss	status,2,c
  9464  001D7A  D009               	goto	l5001
  9465                           
  9466                           ; BSR set to: 0
  9467  001D7C  0E00               	movlw	0
  9468  001D7E  0100               	movlb	0	; () banked
  9469  001D80  6FAC               	movwf	___flmul@a& (0+255),b
  9470  001D82  0E00               	movlw	0
  9471  001D84  6FAD               	movwf	(___flmul@a+1)& (0+255),b
  9472  001D86  0E00               	movlw	0
  9473  001D88  6FAE               	movwf	(___flmul@a+2)& (0+255),b
  9474  001D8A  0E00               	movlw	0
  9475  001D8C  6FAF               	movwf	(___flmul@a+3)& (0+255),b
  9476  001D8E                     l5001:
  9477                           
  9478                           ; BSR set to: 0
  9479  001D8E  0100               	movlb	0	; () banked
  9480  001D90  8FAE               	bsf	(___flmul@a+2)& (0+255),7,b
  9481  001D92  D009               	goto	l985
  9482  001D94                     l5003:
  9483                           
  9484                           ; BSR set to: 0
  9485  001D94  0E00               	movlw	0
  9486  001D96  0100               	movlb	0	; () banked
  9487  001D98  6FAC               	movwf	___flmul@a& (0+255),b
  9488  001D9A  0E00               	movlw	0
  9489  001D9C  6FAD               	movwf	(___flmul@a+1)& (0+255),b
  9490  001D9E  0E00               	movlw	0
  9491  001DA0  6FAE               	movwf	(___flmul@a+2)& (0+255),b
  9492  001DA2  0E00               	movlw	0
  9493  001DA4  6FAF               	movwf	(___flmul@a+3)& (0+255),b
  9494  001DA6                     l985:
  9495                           
  9496                           ; BSR set to: 0
  9497  001DA6  0100               	movlb	0	; () banked
  9498  001DA8  51B5               	movf	___flmul@aexp& (0+255),w,b
  9499  001DAA  0100               	movlb	0	; () banked
  9500  001DAC  B4D8               	btfsc	status,2,c
  9501  001DAE  D005               	goto	l5007
  9502                           
  9503                           ; BSR set to: 0
  9504  001DB0  0100               	movlb	0	; () banked
  9505  001DB2  51BA               	movf	___flmul@bexp& (0+255),w,b
  9506  001DB4  0100               	movlb	0	; () banked
  9507  001DB6  A4D8               	btfss	status,2,c
  9508  001DB8  D00A               	goto	l5011
  9509  001DBA                     l5007:
  9510                           
  9511                           ; BSR set to: 0
  9512  001DBA  0E00               	movlw	0
  9513  001DBC  0100               	movlb	0	; () banked
  9514  001DBE  6FA8               	movwf	?___flmul& (0+255),b
  9515  001DC0  0E00               	movlw	0
  9516  001DC2  6FA9               	movwf	(?___flmul+1)& (0+255),b
  9517  001DC4  0E00               	movlw	0
  9518  001DC6  6FAA               	movwf	(?___flmul+2)& (0+255),b
  9519  001DC8  0E00               	movlw	0
  9520  001DCA  6FAB               	movwf	(?___flmul+3)& (0+255),b
  9521                           
  9522                           ; BSR set to: 0
  9523  001DCC  0012               	return	
  9524  001DCE                     l5011:
  9525                           
  9526                           ; BSR set to: 0
  9527  001DCE  0100               	movlb	0	; () banked
  9528  001DD0  51AE               	movf	(___flmul@a+2)& (0+255),w,b
  9529  001DD2  0100               	movlb	0	; () banked
  9530  001DD4  03A8               	mulwf	___flmul@b& (0+255),b
  9531  001DD6  CFF3 F0BF          	movff	prodl,___flmul@temp
  9532  001DDA  CFF4 F0C0          	movff	prodh,___flmul@temp+1
  9533                           
  9534                           ; BSR set to: 0
  9535  001DDE  0100               	movlb	0	; () banked
  9536  001DE0  51BF               	movf	___flmul@temp& (0+255),w,b
  9537  001DE2  0100               	movlb	0	; () banked
  9538  001DE4  6FB6               	movwf	___flmul@grs& (0+255),b
  9539  001DE6  6BB7               	clrf	(___flmul@grs+1)& (0+255),b
  9540  001DE8  6BB8               	clrf	(___flmul@grs+2)& (0+255),b
  9541  001DEA  6BB9               	clrf	(___flmul@grs+3)& (0+255),b
  9542                           
  9543                           ; BSR set to: 0
  9544  001DEC  0100               	movlb	0	; () banked
  9545  001DEE  51C0               	movf	(___flmul@temp+1)& (0+255),w,b
  9546  001DF0  0100               	movlb	0	; () banked
  9547  001DF2  6FBB               	movwf	___flmul@prod& (0+255),b
  9548  001DF4  6BBC               	clrf	(___flmul@prod+1)& (0+255),b
  9549  001DF6  6BBD               	clrf	(___flmul@prod+2)& (0+255),b
  9550  001DF8  6BBE               	clrf	(___flmul@prod+3)& (0+255),b
  9551  001DFA  0100               	movlb	0	; () banked
  9552  001DFC  51AD               	movf	(___flmul@a+1)& (0+255),w,b
  9553  001DFE  0100               	movlb	0	; () banked
  9554  001E00  03A9               	mulwf	(___flmul@b+1)& (0+255),b
  9555  001E02  CFF3 F0BF          	movff	prodl,___flmul@temp
  9556  001E06  CFF4 F0C0          	movff	prodh,___flmul@temp+1
  9557                           
  9558                           ; BSR set to: 0
  9559  001E0A  0100               	movlb	0	; () banked
  9560  001E0C  51BF               	movf	___flmul@temp& (0+255),w,b
  9561  001E0E  0100               	movlb	0	; () banked
  9562  001E10  27B6               	addwf	___flmul@grs& (0+255),f,b
  9563  001E12  0E00               	movlw	0
  9564  001E14  23B7               	addwfc	(___flmul@grs+1)& (0+255),f,b
  9565  001E16  23B8               	addwfc	(___flmul@grs+2)& (0+255),f,b
  9566  001E18  23B9               	addwfc	(___flmul@grs+3)& (0+255),f,b
  9567                           
  9568                           ; BSR set to: 0
  9569  001E1A  0100               	movlb	0	; () banked
  9570  001E1C  51C0               	movf	(___flmul@temp+1)& (0+255),w,b
  9571  001E1E  0100               	movlb	0	; () banked
  9572  001E20  27BB               	addwf	___flmul@prod& (0+255),f,b
  9573  001E22  0E00               	movlw	0
  9574  001E24  23BC               	addwfc	(___flmul@prod+1)& (0+255),f,b
  9575  001E26  23BD               	addwfc	(___flmul@prod+2)& (0+255),f,b
  9576  001E28  23BE               	addwfc	(___flmul@prod+3)& (0+255),f,b
  9577  001E2A  0100               	movlb	0	; () banked
  9578  001E2C  51AC               	movf	___flmul@a& (0+255),w,b
  9579  001E2E  0100               	movlb	0	; () banked
  9580  001E30  03AA               	mulwf	(___flmul@b+2)& (0+255),b
  9581  001E32  CFF3 F0BF          	movff	prodl,___flmul@temp
  9582  001E36  CFF4 F0C0          	movff	prodh,___flmul@temp+1
  9583                           
  9584                           ; BSR set to: 0
  9585  001E3A  0100               	movlb	0	; () banked
  9586  001E3C  51BF               	movf	___flmul@temp& (0+255),w,b
  9587  001E3E  0100               	movlb	0	; () banked
  9588  001E40  27B6               	addwf	___flmul@grs& (0+255),f,b
  9589  001E42  0E00               	movlw	0
  9590  001E44  23B7               	addwfc	(___flmul@grs+1)& (0+255),f,b
  9591  001E46  23B8               	addwfc	(___flmul@grs+2)& (0+255),f,b
  9592  001E48  23B9               	addwfc	(___flmul@grs+3)& (0+255),f,b
  9593                           
  9594                           ; BSR set to: 0
  9595  001E4A  0100               	movlb	0	; () banked
  9596  001E4C  51C0               	movf	(___flmul@temp+1)& (0+255),w,b
  9597  001E4E  0100               	movlb	0	; () banked
  9598  001E50  27BB               	addwf	___flmul@prod& (0+255),f,b
  9599  001E52  0E00               	movlw	0
  9600  001E54  23BC               	addwfc	(___flmul@prod+1)& (0+255),f,b
  9601  001E56  23BD               	addwfc	(___flmul@prod+2)& (0+255),f,b
  9602  001E58  23BE               	addwfc	(___flmul@prod+3)& (0+255),f,b
  9603                           
  9604                           ; BSR set to: 0
  9605  001E5A  C0B8  F0B9         	movff	___flmul@grs+2,___flmul@grs+3
  9606  001E5E  C0B7  F0B8         	movff	___flmul@grs+1,___flmul@grs+2
  9607  001E62  C0B6  F0B7         	movff	___flmul@grs,___flmul@grs+1
  9608  001E66  0100               	movlb	0	; () banked
  9609  001E68  6BB6               	clrf	___flmul@grs& (0+255),b
  9610                           
  9611                           ; BSR set to: 0
  9612  001E6A  0100               	movlb	0	; () banked
  9613  001E6C  51AC               	movf	___flmul@a& (0+255),w,b
  9614  001E6E  0100               	movlb	0	; () banked
  9615  001E70  03A9               	mulwf	(___flmul@b+1)& (0+255),b
  9616  001E72  CFF3 F0BF          	movff	prodl,___flmul@temp
  9617  001E76  CFF4 F0C0          	movff	prodh,___flmul@temp+1
  9618                           
  9619                           ; BSR set to: 0
  9620  001E7A  0100               	movlb	0	; () banked
  9621  001E7C  51BF               	movf	___flmul@temp& (0+255),w,b
  9622  001E7E  0100               	movlb	0	; () banked
  9623  001E80  27B6               	addwf	___flmul@grs& (0+255),f,b
  9624  001E82  0100               	movlb	0	; () banked
  9625  001E84  51C0               	movf	(___flmul@temp+1)& (0+255),w,b
  9626  001E86  0100               	movlb	0	; () banked
  9627  001E88  23B7               	addwfc	(___flmul@grs+1)& (0+255),f,b
  9628  001E8A  0E00               	movlw	0
  9629  001E8C  0100               	movlb	0	; () banked
  9630  001E8E  23B8               	addwfc	(___flmul@grs+2)& (0+255),f,b
  9631  001E90  0E00               	movlw	0
  9632  001E92  0100               	movlb	0	; () banked
  9633  001E94  23B9               	addwfc	(___flmul@grs+3)& (0+255),f,b
  9634                           
  9635                           ; BSR set to: 0
  9636  001E96  0100               	movlb	0	; () banked
  9637  001E98  51AD               	movf	(___flmul@a+1)& (0+255),w,b
  9638  001E9A  0100               	movlb	0	; () banked
  9639  001E9C  03A8               	mulwf	___flmul@b& (0+255),b
  9640  001E9E  CFF3 F0BF          	movff	prodl,___flmul@temp
  9641  001EA2  CFF4 F0C0          	movff	prodh,___flmul@temp+1
  9642                           
  9643                           ; BSR set to: 0
  9644  001EA6  0100               	movlb	0	; () banked
  9645  001EA8  51BF               	movf	___flmul@temp& (0+255),w,b
  9646  001EAA  0100               	movlb	0	; () banked
  9647  001EAC  27B6               	addwf	___flmul@grs& (0+255),f,b
  9648  001EAE  0100               	movlb	0	; () banked
  9649  001EB0  51C0               	movf	(___flmul@temp+1)& (0+255),w,b
  9650  001EB2  0100               	movlb	0	; () banked
  9651  001EB4  23B7               	addwfc	(___flmul@grs+1)& (0+255),f,b
  9652  001EB6  0E00               	movlw	0
  9653  001EB8  0100               	movlb	0	; () banked
  9654  001EBA  23B8               	addwfc	(___flmul@grs+2)& (0+255),f,b
  9655  001EBC  0E00               	movlw	0
  9656  001EBE  0100               	movlb	0	; () banked
  9657  001EC0  23B9               	addwfc	(___flmul@grs+3)& (0+255),f,b
  9658                           
  9659                           ; BSR set to: 0
  9660  001EC2  C0B8  F0B9         	movff	___flmul@grs+2,___flmul@grs+3
  9661  001EC6  C0B7  F0B8         	movff	___flmul@grs+1,___flmul@grs+2
  9662  001ECA  C0B6  F0B7         	movff	___flmul@grs,___flmul@grs+1
  9663  001ECE  0100               	movlb	0	; () banked
  9664  001ED0  6BB6               	clrf	___flmul@grs& (0+255),b
  9665  001ED2  0100               	movlb	0	; () banked
  9666  001ED4  51AC               	movf	___flmul@a& (0+255),w,b
  9667  001ED6  0100               	movlb	0	; () banked
  9668  001ED8  03A8               	mulwf	___flmul@b& (0+255),b
  9669  001EDA  CFF3 F0BF          	movff	prodl,___flmul@temp
  9670  001EDE  CFF4 F0C0          	movff	prodh,___flmul@temp+1
  9671                           
  9672                           ; BSR set to: 0
  9673  001EE2  0100               	movlb	0	; () banked
  9674  001EE4  51BF               	movf	___flmul@temp& (0+255),w,b
  9675  001EE6  0100               	movlb	0	; () banked
  9676  001EE8  27B6               	addwf	___flmul@grs& (0+255),f,b
  9677  001EEA  0100               	movlb	0	; () banked
  9678  001EEC  51C0               	movf	(___flmul@temp+1)& (0+255),w,b
  9679  001EEE  0100               	movlb	0	; () banked
  9680  001EF0  23B7               	addwfc	(___flmul@grs+1)& (0+255),f,b
  9681  001EF2  0E00               	movlw	0
  9682  001EF4  0100               	movlb	0	; () banked
  9683  001EF6  23B8               	addwfc	(___flmul@grs+2)& (0+255),f,b
  9684  001EF8  0E00               	movlw	0
  9685  001EFA  0100               	movlb	0	; () banked
  9686  001EFC  23B9               	addwfc	(___flmul@grs+3)& (0+255),f,b
  9687                           
  9688                           ; BSR set to: 0
  9689  001EFE  0100               	movlb	0	; () banked
  9690  001F00  51AE               	movf	(___flmul@a+2)& (0+255),w,b
  9691  001F02  0100               	movlb	0	; () banked
  9692  001F04  03A9               	mulwf	(___flmul@b+1)& (0+255),b
  9693  001F06  CFF3 F0BF          	movff	prodl,___flmul@temp
  9694  001F0A  CFF4 F0C0          	movff	prodh,___flmul@temp+1
  9695  001F0E  0100               	movlb	0	; () banked
  9696  001F10  51BF               	movf	___flmul@temp& (0+255),w,b
  9697  001F12  0100               	movlb	0	; () banked
  9698  001F14  27BB               	addwf	___flmul@prod& (0+255),f,b
  9699  001F16  0100               	movlb	0	; () banked
  9700  001F18  51C0               	movf	(___flmul@temp+1)& (0+255),w,b
  9701  001F1A  0100               	movlb	0	; () banked
  9702  001F1C  23BC               	addwfc	(___flmul@prod+1)& (0+255),f,b
  9703  001F1E  0E00               	movlw	0
  9704  001F20  0100               	movlb	0	; () banked
  9705  001F22  23BD               	addwfc	(___flmul@prod+2)& (0+255),f,b
  9706  001F24  0E00               	movlw	0
  9707  001F26  0100               	movlb	0	; () banked
  9708  001F28  23BE               	addwfc	(___flmul@prod+3)& (0+255),f,b
  9709                           
  9710                           ; BSR set to: 0
  9711  001F2A  0100               	movlb	0	; () banked
  9712  001F2C  51AD               	movf	(___flmul@a+1)& (0+255),w,b
  9713  001F2E  0100               	movlb	0	; () banked
  9714  001F30  03AA               	mulwf	(___flmul@b+2)& (0+255),b
  9715  001F32  CFF3 F0BF          	movff	prodl,___flmul@temp
  9716  001F36  CFF4 F0C0          	movff	prodh,___flmul@temp+1
  9717                           
  9718                           ; BSR set to: 0
  9719  001F3A  0100               	movlb	0	; () banked
  9720  001F3C  51BF               	movf	___flmul@temp& (0+255),w,b
  9721  001F3E  0100               	movlb	0	; () banked
  9722  001F40  27BB               	addwf	___flmul@prod& (0+255),f,b
  9723  001F42  0100               	movlb	0	; () banked
  9724  001F44  51C0               	movf	(___flmul@temp+1)& (0+255),w,b
  9725  001F46  0100               	movlb	0	; () banked
  9726  001F48  23BC               	addwfc	(___flmul@prod+1)& (0+255),f,b
  9727  001F4A  0E00               	movlw	0
  9728  001F4C  0100               	movlb	0	; () banked
  9729  001F4E  23BD               	addwfc	(___flmul@prod+2)& (0+255),f,b
  9730  001F50  0E00               	movlw	0
  9731  001F52  0100               	movlb	0	; () banked
  9732  001F54  23BE               	addwfc	(___flmul@prod+3)& (0+255),f,b
  9733  001F56  0100               	movlb	0	; () banked
  9734  001F58  51AE               	movf	(___flmul@a+2)& (0+255),w,b
  9735  001F5A  0100               	movlb	0	; () banked
  9736  001F5C  03AA               	mulwf	(___flmul@b+2)& (0+255),b
  9737  001F5E  CFF3 F0BF          	movff	prodl,___flmul@temp
  9738  001F62  CFF4 F0C0          	movff	prodh,___flmul@temp+1
  9739                           
  9740                           ; BSR set to: 0
  9741  001F66  0100               	movlb	0	; () banked
  9742  001F68  51BF               	movf	___flmul@temp& (0+255),w,b
  9743  001F6A  0100               	movlb	0	; () banked
  9744  001F6C  6FB0               	movwf	??___flmul& (0+255),b
  9745  001F6E  0100               	movlb	0	; () banked
  9746  001F70  51C0               	movf	(___flmul@temp+1)& (0+255),w,b
  9747  001F72  0100               	movlb	0	; () banked
  9748  001F74  6FB1               	movwf	(??___flmul+1)& (0+255),b
  9749  001F76  0100               	movlb	0	; () banked
  9750  001F78  6BB2               	clrf	(??___flmul+2)& (0+255),b
  9751  001F7A  0100               	movlb	0	; () banked
  9752  001F7C  6BB3               	clrf	(??___flmul+3)& (0+255),b
  9753  001F7E  C0B2  F0B3         	movff	??___flmul+2,??___flmul+3
  9754  001F82  C0B1  F0B2         	movff	??___flmul+1,??___flmul+2
  9755  001F86  C0B0  F0B1         	movff	??___flmul,??___flmul+1
  9756  001F8A  0100               	movlb	0	; () banked
  9757  001F8C  6BB0               	clrf	??___flmul& (0+255),b
  9758  001F8E  0100               	movlb	0	; () banked
  9759  001F90  51B0               	movf	??___flmul& (0+255),w,b
  9760  001F92  0100               	movlb	0	; () banked
  9761  001F94  27BB               	addwf	___flmul@prod& (0+255),f,b
  9762  001F96  0100               	movlb	0	; () banked
  9763  001F98  51B1               	movf	(??___flmul+1)& (0+255),w,b
  9764  001F9A  0100               	movlb	0	; () banked
  9765  001F9C  23BC               	addwfc	(___flmul@prod+1)& (0+255),f,b
  9766  001F9E  0100               	movlb	0	; () banked
  9767  001FA0  51B2               	movf	(??___flmul+2)& (0+255),w,b
  9768  001FA2  0100               	movlb	0	; () banked
  9769  001FA4  23BD               	addwfc	(___flmul@prod+2)& (0+255),f,b
  9770  001FA6  0100               	movlb	0	; () banked
  9771  001FA8  51B3               	movf	(??___flmul+3)& (0+255),w,b
  9772  001FAA  0100               	movlb	0	; () banked
  9773  001FAC  23BE               	addwfc	(___flmul@prod+3)& (0+255),f,b
  9774                           
  9775                           ; BSR set to: 0
  9776  001FAE  C0B6  F0B0         	movff	___flmul@grs,??___flmul
  9777  001FB2  C0B7  F0B1         	movff	___flmul@grs+1,??___flmul+1
  9778  001FB6  C0B8  F0B2         	movff	___flmul@grs+2,??___flmul+2
  9779  001FBA  C0B9  F0B3         	movff	___flmul@grs+3,??___flmul+3
  9780  001FBE  0E19               	movlw	25
  9781  001FC0  D006               	goto	u5360
  9782  001FC2                     u5365:
  9783  001FC2  0100               	movlb	0	; () banked
  9784  001FC4  90D8               	bcf	status,0,c
  9785  001FC6  33B3               	rrcf	(??___flmul+3)& (0+255),f,b
  9786  001FC8  33B2               	rrcf	(??___flmul+2)& (0+255),f,b
  9787  001FCA  33B1               	rrcf	(??___flmul+1)& (0+255),f,b
  9788  001FCC  33B0               	rrcf	??___flmul& (0+255),f,b
  9789  001FCE                     u5360:
  9790  001FCE  2EE8               	decfsz	wreg,f,c
  9791  001FD0  D7F8               	goto	u5365
  9792  001FD2  0100               	movlb	0	; () banked
  9793  001FD4  51B0               	movf	??___flmul& (0+255),w,b
  9794  001FD6  0100               	movlb	0	; () banked
  9795  001FD8  27BB               	addwf	___flmul@prod& (0+255),f,b
  9796  001FDA  0100               	movlb	0	; () banked
  9797  001FDC  51B1               	movf	(??___flmul+1)& (0+255),w,b
  9798  001FDE  0100               	movlb	0	; () banked
  9799  001FE0  23BC               	addwfc	(___flmul@prod+1)& (0+255),f,b
  9800  001FE2  0100               	movlb	0	; () banked
  9801  001FE4  51B2               	movf	(??___flmul+2)& (0+255),w,b
  9802  001FE6  0100               	movlb	0	; () banked
  9803  001FE8  23BD               	addwfc	(___flmul@prod+2)& (0+255),f,b
  9804  001FEA  0100               	movlb	0	; () banked
  9805  001FEC  51B3               	movf	(??___flmul+3)& (0+255),w,b
  9806  001FEE  0100               	movlb	0	; () banked
  9807  001FF0  23BE               	addwfc	(___flmul@prod+3)& (0+255),f,b
  9808                           
  9809                           ; BSR set to: 0
  9810  001FF2  C0B8  F0B9         	movff	___flmul@grs+2,___flmul@grs+3
  9811  001FF6  C0B7  F0B8         	movff	___flmul@grs+1,___flmul@grs+2
  9812  001FFA  C0B6  F0B7         	movff	___flmul@grs,___flmul@grs+1
  9813  001FFE  0100               	movlb	0	; () banked
  9814  002000  6BB6               	clrf	___flmul@grs& (0+255),b
  9815                           
  9816                           ; BSR set to: 0
  9817  002002  0100               	movlb	0	; () banked
  9818  002004  51B5               	movf	___flmul@aexp& (0+255),w,b
  9819  002006  C0BA  F0B0         	movff	___flmul@bexp,??___flmul
  9820  00200A  0100               	movlb	0	; () banked
  9821  00200C  6BB1               	clrf	(??___flmul+1)& (0+255),b
  9822  00200E  0100               	movlb	0	; () banked
  9823  002010  27B0               	addwf	??___flmul& (0+255),f,b
  9824  002012  0E00               	movlw	0
  9825  002014  23B1               	addwfc	(??___flmul+1)& (0+255),f,b
  9826  002016  0E82               	movlw	130
  9827  002018  0100               	movlb	0	; () banked
  9828  00201A  25B0               	addwf	??___flmul& (0+255),w,b
  9829  00201C  0100               	movlb	0	; () banked
  9830  00201E  6FBF               	movwf	___flmul@temp& (0+255),b
  9831  002020  0EFF               	movlw	255
  9832  002022  0100               	movlb	0	; () banked
  9833  002024  21B1               	addwfc	(??___flmul+1)& (0+255),w,b
  9834  002026  0100               	movlb	0	; () banked
  9835  002028  6FC0               	movwf	(___flmul@temp+1)& (0+255),b
  9836  00202A  D015               	goto	l5059
  9837  00202C                     l5053:
  9838                           
  9839                           ; BSR set to: 0
  9840  00202C  0100               	movlb	0	; () banked
  9841  00202E  90D8               	bcf	status,0,c
  9842  002030  37BB               	rlcf	___flmul@prod& (0+255),f,b
  9843  002032  37BC               	rlcf	(___flmul@prod+1)& (0+255),f,b
  9844  002034  37BD               	rlcf	(___flmul@prod+2)& (0+255),f,b
  9845  002036  37BE               	rlcf	(___flmul@prod+3)& (0+255),f,b
  9846                           
  9847                           ; BSR set to: 0
  9848  002038  0100               	movlb	0	; () banked
  9849  00203A  AFB9               	btfss	(___flmul@grs+3)& (0+255),7,b
  9850  00203C  D002               	goto	l992
  9851                           
  9852                           ; BSR set to: 0
  9853  00203E  0100               	movlb	0	; () banked
  9854  002040  81BB               	bsf	___flmul@prod& (0+255),0,b
  9855  002042                     l992:
  9856                           
  9857                           ; BSR set to: 0
  9858  002042  0100               	movlb	0	; () banked
  9859  002044  90D8               	bcf	status,0,c
  9860  002046  37B6               	rlcf	___flmul@grs& (0+255),f,b
  9861  002048  37B7               	rlcf	(___flmul@grs+1)& (0+255),f,b
  9862  00204A  37B8               	rlcf	(___flmul@grs+2)& (0+255),f,b
  9863  00204C  37B9               	rlcf	(___flmul@grs+3)& (0+255),f,b
  9864  00204E  0100               	movlb	0	; () banked
  9865  002050  07BF               	decf	___flmul@temp& (0+255),f,b
  9866  002052  A0D8               	btfss	status,0,c
  9867  002054  07C0               	decf	(___flmul@temp+1)& (0+255),f,b
  9868  002056                     l5059:
  9869                           
  9870                           ; BSR set to: 0
  9871  002056  0100               	movlb	0	; () banked
  9872  002058  AFBD               	btfss	(___flmul@prod+2)& (0+255),7,b
  9873  00205A  D7E8               	goto	l5053
  9874                           
  9875                           ; BSR set to: 0
  9876                           
  9877                           ; BSR set to: 0
  9878  00205C  0E00               	movlw	0
  9879  00205E  0100               	movlb	0	; () banked
  9880  002060  6FB5               	movwf	___flmul@aexp& (0+255),b
  9881                           
  9882                           ; BSR set to: 0
  9883  002062  0100               	movlb	0	; () banked
  9884  002064  AFB9               	btfss	(___flmul@grs+3)& (0+255),7,b
  9885  002066  D024               	goto	l994
  9886                           
  9887                           ; BSR set to: 0
  9888  002068  0EFF               	movlw	255
  9889  00206A  0100               	movlb	0	; () banked
  9890  00206C  15B6               	andwf	___flmul@grs& (0+255),w,b
  9891  00206E  0100               	movlb	0	; () banked
  9892  002070  6FB0               	movwf	??___flmul& (0+255),b
  9893  002072  0EFF               	movlw	255
  9894  002074  0100               	movlb	0	; () banked
  9895  002076  15B7               	andwf	(___flmul@grs+1)& (0+255),w,b
  9896  002078  0100               	movlb	0	; () banked
  9897  00207A  6FB1               	movwf	(??___flmul+1)& (0+255),b
  9898  00207C  0EFF               	movlw	255
  9899  00207E  0100               	movlb	0	; () banked
  9900  002080  15B8               	andwf	(___flmul@grs+2)& (0+255),w,b
  9901  002082  0100               	movlb	0	; () banked
  9902  002084  6FB2               	movwf	(??___flmul+2)& (0+255),b
  9903  002086  0E7F               	movlw	127
  9904  002088  0100               	movlb	0	; () banked
  9905  00208A  15B9               	andwf	(___flmul@grs+3)& (0+255),w,b
  9906  00208C  0100               	movlb	0	; () banked
  9907  00208E  6FB3               	movwf	(??___flmul+3)& (0+255),b
  9908  002090  0100               	movlb	0	; () banked
  9909  002092  51B0               	movf	??___flmul& (0+255),w,b
  9910  002094  0100               	movlb	0	; () banked
  9911  002096  11B1               	iorwf	(??___flmul+1)& (0+255),w,b
  9912  002098  0100               	movlb	0	; () banked
  9913  00209A  11B2               	iorwf	(??___flmul+2)& (0+255),w,b
  9914  00209C  0100               	movlb	0	; () banked
  9915  00209E  11B3               	iorwf	(??___flmul+3)& (0+255),w,b
  9916  0020A0  A4D8               	btfss	status,2,c
  9917  0020A2  D003               	goto	l5069
  9918                           
  9919                           ; BSR set to: 0
  9920                           
  9921                           ; BSR set to: 0
  9922  0020A4  0100               	movlb	0	; () banked
  9923  0020A6  A1BB               	btfss	___flmul@prod& (0+255),0,b
  9924  0020A8  D003               	goto	l994
  9925  0020AA                     l5069:
  9926                           
  9927                           ; BSR set to: 0
  9928  0020AA  0E01               	movlw	1
  9929  0020AC  0100               	movlb	0	; () banked
  9930  0020AE  6FB5               	movwf	___flmul@aexp& (0+255),b
  9931  0020B0                     l994:
  9932                           
  9933                           ; BSR set to: 0
  9934  0020B0  0100               	movlb	0	; () banked
  9935  0020B2  51B5               	movf	___flmul@aexp& (0+255),w,b
  9936  0020B4  0100               	movlb	0	; () banked
  9937  0020B6  B4D8               	btfsc	status,2,c
  9938  0020B8  D023               	goto	l5079
  9939                           
  9940                           ; BSR set to: 0
  9941  0020BA  0E01               	movlw	1
  9942  0020BC  0100               	movlb	0	; () banked
  9943  0020BE  27BB               	addwf	___flmul@prod& (0+255),f,b
  9944  0020C0  0E00               	movlw	0
  9945  0020C2  23BC               	addwfc	(___flmul@prod+1)& (0+255),f,b
  9946  0020C4  23BD               	addwfc	(___flmul@prod+2)& (0+255),f,b
  9947  0020C6  23BE               	addwfc	(___flmul@prod+3)& (0+255),f,b
  9948                           
  9949                           ; BSR set to: 0
  9950  0020C8  0100               	movlb	0	; () banked
  9951  0020CA  A1BE               	btfss	(___flmul@prod+3)& (0+255),0,b
  9952  0020CC  D019               	goto	l5079
  9953                           
  9954                           ; BSR set to: 0
  9955  0020CE  C0BB  F0B0         	movff	___flmul@prod,??___flmul
  9956  0020D2  C0BC  F0B1         	movff	___flmul@prod+1,??___flmul+1
  9957  0020D6  C0BD  F0B2         	movff	___flmul@prod+2,??___flmul+2
  9958  0020DA  C0BE  F0B3         	movff	___flmul@prod+3,??___flmul+3
  9959  0020DE  0100               	movlb	0	; () banked
  9960  0020E0  35B3               	rlcf	(??___flmul+3)& (0+255),w,b
  9961  0020E2  33B3               	rrcf	(??___flmul+3)& (0+255),f,b
  9962  0020E4  33B2               	rrcf	(??___flmul+2)& (0+255),f,b
  9963  0020E6  33B1               	rrcf	(??___flmul+1)& (0+255),f,b
  9964  0020E8  33B0               	rrcf	??___flmul& (0+255),f,b
  9965  0020EA  C0B0  F0BB         	movff	??___flmul,___flmul@prod
  9966  0020EE  C0B1  F0BC         	movff	??___flmul+1,___flmul@prod+1
  9967  0020F2  C0B2  F0BD         	movff	??___flmul+2,___flmul@prod+2
  9968  0020F6  C0B3  F0BE         	movff	??___flmul+3,___flmul@prod+3
  9969                           
  9970                           ; BSR set to: 0
  9971  0020FA  0100               	movlb	0	; () banked
  9972  0020FC  4BBF               	infsnz	___flmul@temp& (0+255),f,b
  9973  0020FE  2BC0               	incf	(___flmul@temp+1)& (0+255),f,b
  9974  002100                     l5079:
  9975                           
  9976                           ; BSR set to: 0
  9977  002100  0100               	movlb	0	; () banked
  9978  002102  BFC0               	btfsc	(___flmul@temp+1)& (0+255),7,b
  9979  002104  D010               	goto	l5083
  9980  002106  0100               	movlb	0	; () banked
  9981  002108  51C0               	movf	(___flmul@temp+1)& (0+255),w,b
  9982  00210A  E104               	bnz	u5440
  9983  00210C  0100               	movlb	0	; () banked
  9984  00210E  29BF               	incf	___flmul@temp& (0+255),w,b
  9985  002110  A0D8               	btfss	status,0,c
  9986  002112  D009               	goto	l5083
  9987  002114                     u5440:
  9988                           
  9989                           ; BSR set to: 0
  9990  002114  0E00               	movlw	0
  9991  002116  0100               	movlb	0	; () banked
  9992  002118  6FBB               	movwf	___flmul@prod& (0+255),b
  9993  00211A  0E00               	movlw	0
  9994  00211C  6FBC               	movwf	(___flmul@prod+1)& (0+255),b
  9995  00211E  0E80               	movlw	128
  9996  002120  6FBD               	movwf	(___flmul@prod+2)& (0+255),b
  9997  002122  0E7F               	movlw	127
  9998  002124  D02B               	goto	L7
  9999  002126                     l5083:
 10000                           
 10001                           ; BSR set to: 0
 10002  002126  0100               	movlb	0	; () banked
 10003  002128  BFC0               	btfsc	(___flmul@temp+1)& (0+255),7,b
 10004  00212A  D007               	goto	l5085
 10005  00212C  0100               	movlb	0	; () banked
 10006  00212E  51C0               	movf	(___flmul@temp+1)& (0+255),w,b
 10007  002130  E111               	bnz	l1002
 10008  002132  0100               	movlb	0	; () banked
 10009  002134  05BF               	decf	___flmul@temp& (0+255),w,b
 10010  002136  B0D8               	btfsc	status,0,c
 10011  002138  D00D               	goto	l1002
 10012  00213A                     l5085:
 10013                           
 10014                           ; BSR set to: 0
 10015  00213A  0E00               	movlw	0
 10016  00213C  0100               	movlb	0	; () banked
 10017  00213E  6FBB               	movwf	___flmul@prod& (0+255),b
 10018  002140  0E00               	movlw	0
 10019  002142  6FBC               	movwf	(___flmul@prod+1)& (0+255),b
 10020  002144  0E00               	movlw	0
 10021  002146  6FBD               	movwf	(___flmul@prod+2)& (0+255),b
 10022  002148  0E00               	movlw	0
 10023  00214A  6FBE               	movwf	(___flmul@prod+3)& (0+255),b
 10024  00214C  0E00               	movlw	0
 10025  00214E  0100               	movlb	0	; () banked
 10026  002150  6FB4               	movwf	___flmul@sign& (0+255),b
 10027  002152  D015               	goto	l5095
 10028  002154                     l1002:
 10029                           
 10030                           ; BSR set to: 0
 10031  002154  C0BF  F0BA         	movff	___flmul@temp,___flmul@bexp
 10032                           
 10033                           ; BSR set to: 0
 10034  002158  0EFF               	movlw	255
 10035  00215A  0100               	movlb	0	; () banked
 10036  00215C  17BB               	andwf	___flmul@prod& (0+255),f,b
 10037  00215E  0EFF               	movlw	255
 10038  002160  17BC               	andwf	(___flmul@prod+1)& (0+255),f,b
 10039  002162  0E7F               	movlw	127
 10040  002164  17BD               	andwf	(___flmul@prod+2)& (0+255),f,b
 10041  002166  0E00               	movlw	0
 10042  002168  17BE               	andwf	(___flmul@prod+3)& (0+255),f,b
 10043                           
 10044                           ; BSR set to: 0
 10045  00216A  0100               	movlb	0	; () banked
 10046  00216C  A1BA               	btfss	___flmul@bexp& (0+255),0,b
 10047  00216E  D002               	goto	l5093
 10048                           
 10049                           ; BSR set to: 0
 10050  002170  0100               	movlb	0	; () banked
 10051  002172  8FBD               	bsf	(___flmul@prod+2)& (0+255),7,b
 10052  002174                     l5093:
 10053                           
 10054                           ; BSR set to: 0
 10055  002174  0100               	movlb	0	; () banked
 10056  002176  90D8               	bcf	status,0,c
 10057  002178  31BA               	rrcf	___flmul@bexp& (0+255),w,b
 10058  00217A  0100               	movlb	0	; () banked
 10059  00217C                     L7:
 10060  00217C  6FBE               	movwf	(___flmul@prod+3)& (0+255),b
 10061  00217E                     l5095:
 10062                           
 10063                           ; BSR set to: 0
 10064  00217E  0100               	movlb	0	; () banked
 10065  002180  51B4               	movf	___flmul@sign& (0+255),w,b
 10066  002182  0100               	movlb	0	; () banked
 10067  002184  13BE               	iorwf	(___flmul@prod+3)& (0+255),f,b
 10068                           
 10069                           ; BSR set to: 0
 10070  002186  C0BB  F0A8         	movff	___flmul@prod,?___flmul
 10071  00218A  C0BC  F0A9         	movff	___flmul@prod+1,?___flmul+1
 10072  00218E  C0BD  F0AA         	movff	___flmul@prod+2,?___flmul+2
 10073  002192  C0BE  F0AB         	movff	___flmul@prod+3,?___flmul+3
 10074  002196  0012               	return	
 10075  002198                     __end_of___flmul:
 10076                           	opt stack 0
 10077                           tblptru	equ	0xFF8
 10078                           tblptrh	equ	0xFF7
 10079                           tblptrl	equ	0xFF6
 10080                           tablat	equ	0xFF5
 10081                           prodh	equ	0xFF4
 10082                           prodl	equ	0xFF3
 10083                           intcon	equ	0xFF2
 10084                           postinc0	equ	0xFEE
 10085                           wreg	equ	0xFE8
 10086                           indf1	equ	0xFE7
 10087                           postdec1	equ	0xFE5
 10088                           plusw1	equ	0xFE3
 10089                           fsr1h	equ	0xFE2
 10090                           fsr1l	equ	0xFE1
 10091                           indf2	equ	0xFDF
 10092                           postinc2	equ	0xFDE
 10093                           postdec2	equ	0xFDD
 10094                           plusw2	equ	0xFDB
 10095                           fsr2h	equ	0xFDA
 10096                           fsr2l	equ	0xFD9
 10097                           status	equ	0xFD8
 10098                           
 10099 ;; *************** function ___fladd *****************
 10100 ;; Defined at:
 10101 ;;		line 10 in file "C:\Program Files (x86)\Microchip\xc8\v1.37\sources\common\sprcadd.c"
 10102 ;; Parameters:    Size  Location     Type
 10103 ;;  b               4   52[BANK0 ] unsigned char 
 10104 ;;  a               4   56[BANK0 ] unsigned char 
 10105 ;; Auto vars:     Size  Location     Type
 10106 ;;  grs             1   71[BANK0 ] unsigned char 
 10107 ;;  bexp            1   70[BANK0 ] unsigned char 
 10108 ;;  aexp            1   69[BANK0 ] unsigned char 
 10109 ;;  signs           1   68[BANK0 ] unsigned char 
 10110 ;; Return value:  Size  Location     Type
 10111 ;;                  4   52[BANK0 ] unsigned char 
 10112 ;; Registers used:
 10113 ;;		wreg, status,2, status,0
 10114 ;; Tracked objects:
 10115 ;;		On entry : 0/0
 10116 ;;		On exit  : 0/0
 10117 ;;		Unchanged: 0/0
 10118 ;; Data sizes:     COMRAM   BANK0   BANK1   BANK2   BANK3   BANK4   BANK5   BANK6   BANK7
 10119 ;;      Params:         0       8       0       0       0       0       0       0       0
 10120 ;;      Locals:         0       4       0       0       0       0       0       0       0
 10121 ;;      Temps:          0       8       0       0       0       0       0       0       0
 10122 ;;      Totals:         0      20       0       0       0       0       0       0       0
 10123 ;;Total ram usage:       20 bytes
 10124 ;; Hardware stack levels used:    1
 10125 ;; Hardware stack levels required when called:    2
 10126 ;; This function calls:
 10127 ;;		Nothing
 10128 ;; This function is called by:
 10129 ;;		_main
 10130 ;;		_scarica
 10131 ;;		_read_adc
 10132 ;;		_sprintf
 10133 ;;		_log
 10134 ;;		___flsub
 10135 ;;		_eval_poly
 10136 ;; This function uses a non-reentrant model
 10137 ;;
 10138                           
 10139                           	psect	text28
 10140  00184A                     __ptext28:
 10141                           	opt stack 0
 10142  00184A                     ___fladd:
 10143                           	opt stack 24
 10144                           
 10145                           ; BSR set to: 0
 10146                           ;incstack = 0
 10147  00184A  0100               	movlb	0	; () banked
 10148  00184C  5197               	movf	(___fladd@b+3)& (0+255),w,b
 10149  00184E  0B80               	andlw	128
 10150  001850  0100               	movlb	0	; () banked
 10151  001852  6FA4               	movwf	___fladd@signs& (0+255),b
 10152  001854  0100               	movlb	0	; () banked
 10153  001856  5197               	movf	(___fladd@b+3)& (0+255),w,b
 10154  001858  2597               	addwf	(___fladd@b+3)& (0+255),w,b
 10155  00185A  0100               	movlb	0	; () banked
 10156  00185C  6FA6               	movwf	___fladd@bexp& (0+255),b
 10157                           
 10158                           ; BSR set to: 0
 10159  00185E  0100               	movlb	0	; () banked
 10160  001860  AF96               	btfss	(___fladd@b+2)& (0+255),7,b
 10161  001862  D002               	goto	l4775
 10162                           
 10163                           ; BSR set to: 0
 10164  001864  0100               	movlb	0	; () banked
 10165  001866  81A6               	bsf	___fladd@bexp& (0+255),0,b
 10166  001868                     l4775:
 10167                           
 10168                           ; BSR set to: 0
 10169  001868  0100               	movlb	0	; () banked
 10170  00186A  51A6               	movf	___fladd@bexp& (0+255),w,b
 10171  00186C  0100               	movlb	0	; () banked
 10172  00186E  B4D8               	btfsc	status,2,c
 10173  001870  D012               	goto	l4785
 10174                           
 10175                           ; BSR set to: 0
 10176  001872  0100               	movlb	0	; () banked
 10177  001874  29A6               	incf	___fladd@bexp& (0+255),w,b
 10178  001876  A4D8               	btfss	status,2,c
 10179  001878  D009               	goto	l4781
 10180                           
 10181                           ; BSR set to: 0
 10182  00187A  0E00               	movlw	0
 10183  00187C  0100               	movlb	0	; () banked
 10184  00187E  6F94               	movwf	___fladd@b& (0+255),b
 10185  001880  0E00               	movlw	0
 10186  001882  6F95               	movwf	(___fladd@b+1)& (0+255),b
 10187  001884  0E00               	movlw	0
 10188  001886  6F96               	movwf	(___fladd@b+2)& (0+255),b
 10189  001888  0E00               	movlw	0
 10190  00188A  6F97               	movwf	(___fladd@b+3)& (0+255),b
 10191  00188C                     l4781:
 10192                           
 10193                           ; BSR set to: 0
 10194  00188C  0100               	movlb	0	; () banked
 10195  00188E  8F96               	bsf	(___fladd@b+2)& (0+255),7,b
 10196                           
 10197                           ; BSR set to: 0
 10198  001890  0E00               	movlw	0
 10199  001892  0100               	movlb	0	; () banked
 10200  001894  D008               	goto	L8
 10201  001896                     l4785:
 10202                           
 10203                           ; BSR set to: 0
 10204  001896  0E00               	movlw	0
 10205  001898  0100               	movlb	0	; () banked
 10206  00189A  6F94               	movwf	___fladd@b& (0+255),b
 10207  00189C  0E00               	movlw	0
 10208  00189E  6F95               	movwf	(___fladd@b+1)& (0+255),b
 10209  0018A0  0E00               	movlw	0
 10210  0018A2  6F96               	movwf	(___fladd@b+2)& (0+255),b
 10211  0018A4  0E00               	movlw	0
 10212  0018A6                     L8:
 10213  0018A6  6F97               	movwf	(___fladd@b+3)& (0+255),b
 10214                           
 10215                           ; BSR set to: 0
 10216                           
 10217                           ; BSR set to: 0
 10218  0018A8  0100               	movlb	0	; () banked
 10219  0018AA  519B               	movf	(___fladd@a+3)& (0+255),w,b
 10220  0018AC  0B80               	andlw	128
 10221  0018AE  0100               	movlb	0	; () banked
 10222  0018B0  6FA5               	movwf	___fladd@aexp& (0+255),b
 10223                           
 10224                           ; BSR set to: 0
 10225  0018B2  0100               	movlb	0	; () banked
 10226  0018B4  51A4               	movf	___fladd@signs& (0+255),w,b
 10227  0018B6  0100               	movlb	0	; () banked
 10228  0018B8  19A5               	xorwf	___fladd@aexp& (0+255),w,b
 10229  0018BA  B4D8               	btfsc	status,2,c
 10230  0018BC  D002               	goto	l4793
 10231                           
 10232                           ; BSR set to: 0
 10233  0018BE  0100               	movlb	0	; () banked
 10234  0018C0  8DA4               	bsf	___fladd@signs& (0+255),6,b
 10235  0018C2                     l4793:
 10236                           
 10237                           ; BSR set to: 0
 10238  0018C2  0100               	movlb	0	; () banked
 10239  0018C4  519B               	movf	(___fladd@a+3)& (0+255),w,b
 10240  0018C6  259B               	addwf	(___fladd@a+3)& (0+255),w,b
 10241  0018C8  0100               	movlb	0	; () banked
 10242  0018CA  6FA5               	movwf	___fladd@aexp& (0+255),b
 10243                           
 10244                           ; BSR set to: 0
 10245  0018CC  0100               	movlb	0	; () banked
 10246  0018CE  AF9A               	btfss	(___fladd@a+2)& (0+255),7,b
 10247  0018D0  D002               	goto	l4799
 10248                           
 10249                           ; BSR set to: 0
 10250  0018D2  0100               	movlb	0	; () banked
 10251  0018D4  81A5               	bsf	___fladd@aexp& (0+255),0,b
 10252  0018D6                     l4799:
 10253                           
 10254                           ; BSR set to: 0
 10255  0018D6  0100               	movlb	0	; () banked
 10256  0018D8  51A5               	movf	___fladd@aexp& (0+255),w,b
 10257  0018DA  0100               	movlb	0	; () banked
 10258  0018DC  B4D8               	btfsc	status,2,c
 10259  0018DE  D012               	goto	l4809
 10260                           
 10261                           ; BSR set to: 0
 10262  0018E0  0100               	movlb	0	; () banked
 10263  0018E2  29A5               	incf	___fladd@aexp& (0+255),w,b
 10264  0018E4  A4D8               	btfss	status,2,c
 10265  0018E6  D009               	goto	l4805
 10266                           
 10267                           ; BSR set to: 0
 10268  0018E8  0E00               	movlw	0
 10269  0018EA  0100               	movlb	0	; () banked
 10270  0018EC  6F98               	movwf	___fladd@a& (0+255),b
 10271  0018EE  0E00               	movlw	0
 10272  0018F0  6F99               	movwf	(___fladd@a+1)& (0+255),b
 10273  0018F2  0E00               	movlw	0
 10274  0018F4  6F9A               	movwf	(___fladd@a+2)& (0+255),b
 10275  0018F6  0E00               	movlw	0
 10276  0018F8  6F9B               	movwf	(___fladd@a+3)& (0+255),b
 10277  0018FA                     l4805:
 10278                           
 10279                           ; BSR set to: 0
 10280  0018FA  0100               	movlb	0	; () banked
 10281  0018FC  8F9A               	bsf	(___fladd@a+2)& (0+255),7,b
 10282                           
 10283                           ; BSR set to: 0
 10284  0018FE  0E00               	movlw	0
 10285  001900  0100               	movlb	0	; () banked
 10286  001902  D008               	goto	L9
 10287  001904                     l4809:
 10288                           
 10289                           ; BSR set to: 0
 10290  001904  0E00               	movlw	0
 10291  001906  0100               	movlb	0	; () banked
 10292  001908  6F98               	movwf	___fladd@a& (0+255),b
 10293  00190A  0E00               	movlw	0
 10294  00190C  6F99               	movwf	(___fladd@a+1)& (0+255),b
 10295  00190E  0E00               	movlw	0
 10296  001910  6F9A               	movwf	(___fladd@a+2)& (0+255),b
 10297  001912  0E00               	movlw	0
 10298  001914                     L9:
 10299  001914  6F9B               	movwf	(___fladd@a+3)& (0+255),b
 10300                           
 10301                           ; BSR set to: 0
 10302                           
 10303                           ; BSR set to: 0
 10304  001916  0100               	movlb	0	; () banked
 10305  001918  51A6               	movf	___fladd@bexp& (0+255),w,b
 10306  00191A  0100               	movlb	0	; () banked
 10307  00191C  5DA5               	subwf	___fladd@aexp& (0+255),w,b
 10308  00191E  B0D8               	btfsc	status,0,c
 10309  001920  D024               	goto	l4847
 10310                           
 10311                           ; BSR set to: 0
 10312  001922  0100               	movlb	0	; () banked
 10313  001924  ADA4               	btfss	___fladd@signs& (0+255),6,b
 10314  001926  D003               	goto	l4817
 10315                           
 10316                           ; BSR set to: 0
 10317  001928  0E80               	movlw	128
 10318  00192A  0100               	movlb	0	; () banked
 10319  00192C  1BA4               	xorwf	___fladd@signs& (0+255),f,b
 10320  00192E                     l4817:
 10321                           
 10322                           ; BSR set to: 0
 10323  00192E  C0A6  F0A7         	movff	___fladd@bexp,___fladd@grs
 10324                           
 10325                           ; BSR set to: 0
 10326  001932  C0A5  F0A6         	movff	___fladd@aexp,___fladd@bexp
 10327                           
 10328                           ; BSR set to: 0
 10329  001936  C0A7  F0A5         	movff	___fladd@grs,___fladd@aexp
 10330                           
 10331                           ; BSR set to: 0
 10332  00193A  C094  F0A7         	movff	___fladd@b,___fladd@grs
 10333                           
 10334                           ; BSR set to: 0
 10335  00193E  C098  F094         	movff	___fladd@a,___fladd@b
 10336                           
 10337                           ; BSR set to: 0
 10338  001942  C0A7  F098         	movff	___fladd@grs,___fladd@a
 10339                           
 10340                           ; BSR set to: 0
 10341  001946  C095  F0A7         	movff	___fladd@b+1,___fladd@grs
 10342                           
 10343                           ; BSR set to: 0
 10344  00194A  C099  F095         	movff	___fladd@a+1,___fladd@b+1
 10345                           
 10346                           ; BSR set to: 0
 10347  00194E  C0A7  F099         	movff	___fladd@grs,___fladd@a+1
 10348                           
 10349                           ; BSR set to: 0
 10350  001952  C096  F0A7         	movff	___fladd@b+2,___fladd@grs
 10351                           
 10352                           ; BSR set to: 0
 10353  001956  C09A  F096         	movff	___fladd@a+2,___fladd@b+2
 10354                           
 10355                           ; BSR set to: 0
 10356  00195A  C0A7  F09A         	movff	___fladd@grs,___fladd@a+2
 10357                           
 10358                           ; BSR set to: 0
 10359  00195E  C097  F0A7         	movff	___fladd@b+3,___fladd@grs
 10360                           
 10361                           ; BSR set to: 0
 10362  001962  C09B  F097         	movff	___fladd@a+3,___fladd@b+3
 10363                           
 10364                           ; BSR set to: 0
 10365  001966  C0A7  F09B         	movff	___fladd@grs,___fladd@a+3
 10366  00196A                     l4847:
 10367                           
 10368                           ; BSR set to: 0
 10369  00196A  0E00               	movlw	0
 10370  00196C  0100               	movlb	0	; () banked
 10371  00196E  6FA7               	movwf	___fladd@grs& (0+255),b
 10372                           
 10373                           ; BSR set to: 0
 10374  001970  0100               	movlb	0	; () banked
 10375  001972  51A6               	movf	___fladd@bexp& (0+255),w,b
 10376  001974  0100               	movlb	0	; () banked
 10377  001976  6F9C               	movwf	??___fladd& (0+255),b
 10378  001978  6B9D               	clrf	(??___fladd+1)& (0+255),b
 10379  00197A  0100               	movlb	0	; () banked
 10380  00197C  1F9C               	comf	??___fladd& (0+255),f,b
 10381  00197E  1F9D               	comf	(??___fladd+1)& (0+255),f,b
 10382  001980  4B9C               	infsnz	??___fladd& (0+255),f,b
 10383  001982  2B9D               	incf	(??___fladd+1)& (0+255),f,b
 10384  001984  0100               	movlb	0	; () banked
 10385  001986  51A5               	movf	___fladd@aexp& (0+255),w,b
 10386  001988  0100               	movlb	0	; () banked
 10387  00198A  6F9E               	movwf	(??___fladd+2)& (0+255),b
 10388  00198C  6B9F               	clrf	(??___fladd+3)& (0+255),b
 10389  00198E  0100               	movlb	0	; () banked
 10390  001990  519C               	movf	??___fladd& (0+255),w,b
 10391  001992  0100               	movlb	0	; () banked
 10392  001994  279E               	addwf	(??___fladd+2)& (0+255),f,b
 10393  001996  0100               	movlb	0	; () banked
 10394  001998  519D               	movf	(??___fladd+1)& (0+255),w,b
 10395  00199A  0100               	movlb	0	; () banked
 10396  00199C  239F               	addwfc	(??___fladd+3)& (0+255),f,b
 10397  00199E  0100               	movlb	0	; () banked
 10398  0019A0  BF9F               	btfsc	(??___fladd+3)& (0+255),7,b
 10399  0019A2  D03D               	goto	l900
 10400  0019A4  0100               	movlb	0	; () banked
 10401  0019A6  519F               	movf	(??___fladd+3)& (0+255),w,b
 10402  0019A8  E105               	bnz	u4980
 10403  0019AA  0E1A               	movlw	26
 10404  0019AC  0100               	movlb	0	; () banked
 10405  0019AE  5D9E               	subwf	(??___fladd+2)& (0+255),w,b
 10406  0019B0  A0D8               	btfss	status,0,c
 10407  0019B2  D035               	goto	l900
 10408  0019B4                     u4980:
 10409                           
 10410                           ; BSR set to: 0
 10411  0019B4  0100               	movlb	0	; () banked
 10412  0019B6  5194               	movf	___fladd@b& (0+255),w,b
 10413  0019B8  0100               	movlb	0	; () banked
 10414  0019BA  1195               	iorwf	(___fladd@b+1)& (0+255),w,b
 10415  0019BC  0100               	movlb	0	; () banked
 10416  0019BE  1196               	iorwf	(___fladd@b+2)& (0+255),w,b
 10417  0019C0  0100               	movlb	0	; () banked
 10418  0019C2  1197               	iorwf	(___fladd@b+3)& (0+255),w,b
 10419  0019C4  B4D8               	btfsc	status,2,c
 10420  0019C6  D002               	goto	u4990
 10421  0019C8  0E01               	movlw	1
 10422  0019CA  D001               	goto	u5000
 10423  0019CC                     u4990:
 10424  0019CC  0E00               	movlw	0
 10425  0019CE                     u5000:
 10426  0019CE  0100               	movlb	0	; () banked
 10427  0019D0  6FA7               	movwf	___fladd@grs& (0+255),b
 10428                           
 10429                           ; BSR set to: 0
 10430  0019D2  0E00               	movlw	0
 10431  0019D4  0100               	movlb	0	; () banked
 10432  0019D6  6F94               	movwf	___fladd@b& (0+255),b
 10433  0019D8  0E00               	movlw	0
 10434  0019DA  6F95               	movwf	(___fladd@b+1)& (0+255),b
 10435  0019DC  0E00               	movlw	0
 10436  0019DE  6F96               	movwf	(___fladd@b+2)& (0+255),b
 10437  0019E0  0E00               	movlw	0
 10438  0019E2  6F97               	movwf	(___fladd@b+3)& (0+255),b
 10439                           
 10440                           ; BSR set to: 0
 10441  0019E4  C0A5  F0A6         	movff	___fladd@aexp,___fladd@bexp
 10442  0019E8  D020               	goto	l899
 10443  0019EA                     l901:
 10444                           
 10445                           ; BSR set to: 0
 10446  0019EA  0100               	movlb	0	; () banked
 10447  0019EC  A1A7               	btfss	___fladd@grs& (0+255),0,b
 10448  0019EE  D007               	goto	l4859
 10449                           
 10450                           ; BSR set to: 0
 10451  0019F0  0100               	movlb	0	; () banked
 10452  0019F2  90D8               	bcf	status,0,c
 10453  0019F4  31A7               	rrcf	___fladd@grs& (0+255),w,b
 10454  0019F6  0901               	iorlw	1
 10455  0019F8  0100               	movlb	0	; () banked
 10456  0019FA  6FA7               	movwf	___fladd@grs& (0+255),b
 10457  0019FC  D003               	goto	l4861
 10458  0019FE                     l4859:
 10459                           
 10460                           ; BSR set to: 0
 10461  0019FE  0100               	movlb	0	; () banked
 10462  001A00  90D8               	bcf	status,0,c
 10463  001A02  33A7               	rrcf	___fladd@grs& (0+255),f,b
 10464  001A04                     l4861:
 10465                           
 10466                           ; BSR set to: 0
 10467  001A04  0100               	movlb	0	; () banked
 10468  001A06  A194               	btfss	___fladd@b& (0+255),0,b
 10469  001A08  D002               	goto	l4865
 10470                           
 10471                           ; BSR set to: 0
 10472  001A0A  0100               	movlb	0	; () banked
 10473  001A0C  8FA7               	bsf	___fladd@grs& (0+255),7,b
 10474  001A0E                     l4865:
 10475                           
 10476                           ; BSR set to: 0
 10477  001A0E  0100               	movlb	0	; () banked
 10478  001A10  3597               	rlcf	(___fladd@b+3)& (0+255),w,b
 10479  001A12  3397               	rrcf	(___fladd@b+3)& (0+255),f,b
 10480  001A14  3396               	rrcf	(___fladd@b+2)& (0+255),f,b
 10481  001A16  3395               	rrcf	(___fladd@b+1)& (0+255),f,b
 10482  001A18  3394               	rrcf	___fladd@b& (0+255),f,b
 10483                           
 10484                           ; BSR set to: 0
 10485  001A1A  0100               	movlb	0	; () banked
 10486  001A1C  2BA6               	incf	___fladd@bexp& (0+255),f,b
 10487  001A1E                     l900:
 10488                           
 10489                           ; BSR set to: 0
 10490  001A1E  0100               	movlb	0	; () banked
 10491  001A20  51A5               	movf	___fladd@aexp& (0+255),w,b
 10492  001A22  0100               	movlb	0	; () banked
 10493  001A24  5DA6               	subwf	___fladd@bexp& (0+255),w,b
 10494  001A26  A0D8               	btfss	status,0,c
 10495  001A28  D7E0               	goto	l901
 10496  001A2A                     l899:
 10497                           
 10498                           ; BSR set to: 0
 10499  001A2A  0100               	movlb	0	; () banked
 10500  001A2C  BDA4               	btfsc	___fladd@signs& (0+255),6,b
 10501  001A2E  D03F               	goto	l4893
 10502                           
 10503                           ; BSR set to: 0
 10504  001A30  0100               	movlb	0	; () banked
 10505  001A32  51A6               	movf	___fladd@bexp& (0+255),w,b
 10506  001A34  0100               	movlb	0	; () banked
 10507  001A36  A4D8               	btfss	status,2,c
 10508  001A38  D00A               	goto	l4875
 10509                           
 10510                           ; BSR set to: 0
 10511  001A3A  0E00               	movlw	0
 10512  001A3C  0100               	movlb	0	; () banked
 10513  001A3E  6F94               	movwf	?___fladd& (0+255),b
 10514  001A40  0E00               	movlw	0
 10515  001A42  6F95               	movwf	(?___fladd+1)& (0+255),b
 10516  001A44  0E00               	movlw	0
 10517  001A46  6F96               	movwf	(?___fladd+2)& (0+255),b
 10518  001A48  0E00               	movlw	0
 10519  001A4A  6F97               	movwf	(?___fladd+3)& (0+255),b
 10520                           
 10521                           ; BSR set to: 0
 10522  001A4C  0012               	return	
 10523  001A4E                     l4875:
 10524                           
 10525                           ; BSR set to: 0
 10526  001A4E  0100               	movlb	0	; () banked
 10527  001A50  5198               	movf	___fladd@a& (0+255),w,b
 10528  001A52  0100               	movlb	0	; () banked
 10529  001A54  2794               	addwf	___fladd@b& (0+255),f,b
 10530  001A56  0100               	movlb	0	; () banked
 10531  001A58  5199               	movf	(___fladd@a+1)& (0+255),w,b
 10532  001A5A  0100               	movlb	0	; () banked
 10533  001A5C  2395               	addwfc	(___fladd@b+1)& (0+255),f,b
 10534  001A5E  0100               	movlb	0	; () banked
 10535  001A60  519A               	movf	(___fladd@a+2)& (0+255),w,b
 10536  001A62  0100               	movlb	0	; () banked
 10537  001A64  2396               	addwfc	(___fladd@b+2)& (0+255),f,b
 10538  001A66  0100               	movlb	0	; () banked
 10539  001A68  519B               	movf	(___fladd@a+3)& (0+255),w,b
 10540  001A6A  0100               	movlb	0	; () banked
 10541  001A6C  2397               	addwfc	(___fladd@b+3)& (0+255),f,b
 10542                           
 10543                           ; BSR set to: 0
 10544  001A6E  0100               	movlb	0	; () banked
 10545  001A70  A197               	btfss	(___fladd@b+3)& (0+255),0,b
 10546  001A72  D0CC               	goto	l4929
 10547                           
 10548                           ; BSR set to: 0
 10549  001A74  0100               	movlb	0	; () banked
 10550  001A76  A1A7               	btfss	___fladd@grs& (0+255),0,b
 10551  001A78  D009               	goto	l4883
 10552                           
 10553                           ; BSR set to: 0
 10554  001A7A  0100               	movlb	0	; () banked
 10555  001A7C  90D8               	bcf	status,0,c
 10556  001A7E  33A7               	rrcf	___fladd@grs& (0+255),f,b
 10557  001A80  0100               	movlb	0	; () banked
 10558  001A82  51A7               	movf	___fladd@grs& (0+255),w,b
 10559  001A84  0901               	iorlw	1
 10560  001A86  0100               	movlb	0	; () banked
 10561  001A88  6FA7               	movwf	___fladd@grs& (0+255),b
 10562  001A8A  D003               	goto	l4885
 10563  001A8C                     l4883:
 10564                           
 10565                           ; BSR set to: 0
 10566  001A8C  0100               	movlb	0	; () banked
 10567  001A8E  90D8               	bcf	status,0,c
 10568  001A90  33A7               	rrcf	___fladd@grs& (0+255),f,b
 10569  001A92                     l4885:
 10570                           
 10571                           ; BSR set to: 0
 10572  001A92  0100               	movlb	0	; () banked
 10573  001A94  A194               	btfss	___fladd@b& (0+255),0,b
 10574  001A96  D002               	goto	l4889
 10575                           
 10576                           ; BSR set to: 0
 10577  001A98  0100               	movlb	0	; () banked
 10578  001A9A  8FA7               	bsf	___fladd@grs& (0+255),7,b
 10579  001A9C                     l4889:
 10580                           
 10581                           ; BSR set to: 0
 10582  001A9C  0100               	movlb	0	; () banked
 10583  001A9E  3597               	rlcf	(___fladd@b+3)& (0+255),w,b
 10584  001AA0  3397               	rrcf	(___fladd@b+3)& (0+255),f,b
 10585  001AA2  3396               	rrcf	(___fladd@b+2)& (0+255),f,b
 10586  001AA4  3395               	rrcf	(___fladd@b+1)& (0+255),f,b
 10587  001AA6  3394               	rrcf	___fladd@b& (0+255),f,b
 10588                           
 10589                           ; BSR set to: 0
 10590  001AA8  0100               	movlb	0	; () banked
 10591  001AAA  2BA6               	incf	___fladd@bexp& (0+255),f,b
 10592                           
 10593                           ; BSR set to: 0
 10594  001AAC  D0AF               	goto	l4929
 10595  001AAE                     l4893:
 10596                           
 10597                           ; BSR set to: 0
 10598  001AAE  0100               	movlb	0	; () banked
 10599  001AB0  5198               	movf	___fladd@a& (0+255),w,b
 10600  001AB2  0100               	movlb	0	; () banked
 10601  001AB4  5D94               	subwf	___fladd@b& (0+255),w,b
 10602  001AB6  0100               	movlb	0	; () banked
 10603  001AB8  5199               	movf	(___fladd@a+1)& (0+255),w,b
 10604  001ABA  0100               	movlb	0	; () banked
 10605  001ABC  5995               	subwfb	(___fladd@b+1)& (0+255),w,b
 10606  001ABE  0100               	movlb	0	; () banked
 10607  001AC0  519A               	movf	(___fladd@a+2)& (0+255),w,b
 10608  001AC2  0100               	movlb	0	; () banked
 10609  001AC4  5996               	subwfb	(___fladd@b+2)& (0+255),w,b
 10610  001AC6  0100               	movlb	0	; () banked
 10611  001AC8  5197               	movf	(___fladd@b+3)& (0+255),w,b
 10612  001ACA  0A80               	xorlw	128
 10613  001ACC  0100               	movlb	0	; () banked
 10614  001ACE  6F9C               	movwf	??___fladd& (0+255),b
 10615  001AD0  0100               	movlb	0	; () banked
 10616  001AD2  519B               	movf	(___fladd@a+3)& (0+255),w,b
 10617  001AD4  0A80               	xorlw	128
 10618  001AD6  0100               	movlb	0	; () banked
 10619  001AD8  599C               	subwfb	??___fladd& (0+255),w,b
 10620  001ADA  B0D8               	btfsc	status,0,c
 10621  001ADC  D050               	goto	l4903
 10622                           
 10623                           ; BSR set to: 0
 10624  001ADE  C094  F09C         	movff	___fladd@b,??___fladd
 10625  001AE2  C095  F09D         	movff	___fladd@b+1,??___fladd+1
 10626  001AE6  C096  F09E         	movff	___fladd@b+2,??___fladd+2
 10627  001AEA  C097  F09F         	movff	___fladd@b+3,??___fladd+3
 10628  001AEE  0100               	movlb	0	; () banked
 10629  001AF0  1F9C               	comf	??___fladd& (0+255),f,b
 10630  001AF2  1F9D               	comf	(??___fladd+1)& (0+255),f,b
 10631  001AF4  1F9E               	comf	(??___fladd+2)& (0+255),f,b
 10632  001AF6  1F9F               	comf	(??___fladd+3)& (0+255),f,b
 10633  001AF8  2B9C               	incf	??___fladd& (0+255),f,b
 10634  001AFA  0E00               	movlw	0
 10635  001AFC  239D               	addwfc	(??___fladd+1)& (0+255),f,b
 10636  001AFE  239E               	addwfc	(??___fladd+2)& (0+255),f,b
 10637  001B00  239F               	addwfc	(??___fladd+3)& (0+255),f,b
 10638  001B02  0100               	movlb	0	; () banked
 10639  001B04  5198               	movf	___fladd@a& (0+255),w,b
 10640  001B06  0100               	movlb	0	; () banked
 10641  001B08  259C               	addwf	??___fladd& (0+255),w,b
 10642  001B0A  0100               	movlb	0	; () banked
 10643  001B0C  6FA0               	movwf	(??___fladd+4)& (0+255),b
 10644  001B0E  0100               	movlb	0	; () banked
 10645  001B10  5199               	movf	(___fladd@a+1)& (0+255),w,b
 10646  001B12  0100               	movlb	0	; () banked
 10647  001B14  219D               	addwfc	(??___fladd+1)& (0+255),w,b
 10648  001B16  0100               	movlb	0	; () banked
 10649  001B18  6FA1               	movwf	(??___fladd+5)& (0+255),b
 10650  001B1A  0100               	movlb	0	; () banked
 10651  001B1C  519A               	movf	(___fladd@a+2)& (0+255),w,b
 10652  001B1E  0100               	movlb	0	; () banked
 10653  001B20  219E               	addwfc	(??___fladd+2)& (0+255),w,b
 10654  001B22  0100               	movlb	0	; () banked
 10655  001B24  6FA2               	movwf	(??___fladd+6)& (0+255),b
 10656  001B26  0100               	movlb	0	; () banked
 10657  001B28  519B               	movf	(___fladd@a+3)& (0+255),w,b
 10658  001B2A  0100               	movlb	0	; () banked
 10659  001B2C  219F               	addwfc	(??___fladd+3)& (0+255),w,b
 10660  001B2E  0100               	movlb	0	; () banked
 10661  001B30  6FA3               	movwf	(??___fladd+7)& (0+255),b
 10662  001B32  0EFF               	movlw	255
 10663  001B34  0100               	movlb	0	; () banked
 10664  001B36  25A0               	addwf	(??___fladd+4)& (0+255),w,b
 10665  001B38  0100               	movlb	0	; () banked
 10666  001B3A  6F94               	movwf	___fladd@b& (0+255),b
 10667  001B3C  0EFF               	movlw	255
 10668  001B3E  0100               	movlb	0	; () banked
 10669  001B40  21A1               	addwfc	(??___fladd+5)& (0+255),w,b
 10670  001B42  0100               	movlb	0	; () banked
 10671  001B44  6F95               	movwf	(___fladd@b+1)& (0+255),b
 10672  001B46  0EFF               	movlw	255
 10673  001B48  0100               	movlb	0	; () banked
 10674  001B4A  21A2               	addwfc	(??___fladd+6)& (0+255),w,b
 10675  001B4C  0100               	movlb	0	; () banked
 10676  001B4E  6F96               	movwf	(___fladd@b+2)& (0+255),b
 10677  001B50  0EFF               	movlw	255
 10678  001B52  0100               	movlb	0	; () banked
 10679  001B54  21A3               	addwfc	(??___fladd+7)& (0+255),w,b
 10680  001B56  0100               	movlb	0	; () banked
 10681  001B58  6F97               	movwf	(___fladd@b+3)& (0+255),b
 10682  001B5A  0E80               	movlw	128
 10683  001B5C  0100               	movlb	0	; () banked
 10684  001B5E  1BA4               	xorwf	___fladd@signs& (0+255),f,b
 10685                           
 10686                           ; BSR set to: 0
 10687  001B60  0100               	movlb	0	; () banked
 10688  001B62  6DA7               	negf	___fladd@grs& (0+255),b
 10689                           
 10690                           ; BSR set to: 0
 10691  001B64  0100               	movlb	0	; () banked
 10692  001B66  51A7               	movf	___fladd@grs& (0+255),w,b
 10693  001B68  0100               	movlb	0	; () banked
 10694  001B6A  A4D8               	btfss	status,2,c
 10695  001B6C  D018               	goto	l916
 10696                           
 10697                           ; BSR set to: 0
 10698  001B6E  0E01               	movlw	1
 10699  001B70  0100               	movlb	0	; () banked
 10700  001B72  2794               	addwf	___fladd@b& (0+255),f,b
 10701  001B74  0E00               	movlw	0
 10702  001B76  2395               	addwfc	(___fladd@b+1)& (0+255),f,b
 10703  001B78  2396               	addwfc	(___fladd@b+2)& (0+255),f,b
 10704  001B7A  2397               	addwfc	(___fladd@b+3)& (0+255),f,b
 10705                           
 10706                           ; BSR set to: 0
 10707  001B7C  D010               	goto	l916
 10708  001B7E                     l4903:
 10709                           
 10710                           ; BSR set to: 0
 10711  001B7E  0100               	movlb	0	; () banked
 10712  001B80  5198               	movf	___fladd@a& (0+255),w,b
 10713  001B82  0100               	movlb	0	; () banked
 10714  001B84  5F94               	subwf	___fladd@b& (0+255),f,b
 10715  001B86  0100               	movlb	0	; () banked
 10716  001B88  5199               	movf	(___fladd@a+1)& (0+255),w,b
 10717  001B8A  0100               	movlb	0	; () banked
 10718  001B8C  5B95               	subwfb	(___fladd@b+1)& (0+255),f,b
 10719  001B8E  0100               	movlb	0	; () banked
 10720  001B90  519A               	movf	(___fladd@a+2)& (0+255),w,b
 10721  001B92  0100               	movlb	0	; () banked
 10722  001B94  5B96               	subwfb	(___fladd@b+2)& (0+255),f,b
 10723  001B96  0100               	movlb	0	; () banked
 10724  001B98  519B               	movf	(___fladd@a+3)& (0+255),w,b
 10725  001B9A  0100               	movlb	0	; () banked
 10726  001B9C  5B97               	subwfb	(___fladd@b+3)& (0+255),f,b
 10727  001B9E                     l916:
 10728                           
 10729                           ; BSR set to: 0
 10730  001B9E  0100               	movlb	0	; () banked
 10731  001BA0  5194               	movf	___fladd@b& (0+255),w,b
 10732  001BA2  0100               	movlb	0	; () banked
 10733  001BA4  1195               	iorwf	(___fladd@b+1)& (0+255),w,b
 10734  001BA6  0100               	movlb	0	; () banked
 10735  001BA8  1196               	iorwf	(___fladd@b+2)& (0+255),w,b
 10736  001BAA  0100               	movlb	0	; () banked
 10737  001BAC  1197               	iorwf	(___fladd@b+3)& (0+255),w,b
 10738  001BAE  A4D8               	btfss	status,2,c
 10739  001BB0  D02A               	goto	l4927
 10740                           
 10741                           ; BSR set to: 0
 10742  001BB2  0100               	movlb	0	; () banked
 10743  001BB4  51A7               	movf	___fladd@grs& (0+255),w,b
 10744  001BB6  0100               	movlb	0	; () banked
 10745  001BB8  A4D8               	btfss	status,2,c
 10746  001BBA  D025               	goto	l4927
 10747                           
 10748                           ; BSR set to: 0
 10749  001BBC  0E00               	movlw	0
 10750  001BBE  0100               	movlb	0	; () banked
 10751  001BC0  6F94               	movwf	?___fladd& (0+255),b
 10752  001BC2  0E00               	movlw	0
 10753  001BC4  6F95               	movwf	(?___fladd+1)& (0+255),b
 10754  001BC6  0E00               	movlw	0
 10755  001BC8  6F96               	movwf	(?___fladd+2)& (0+255),b
 10756  001BCA  0E00               	movlw	0
 10757  001BCC  6F97               	movwf	(?___fladd+3)& (0+255),b
 10758                           
 10759                           ; BSR set to: 0
 10760  001BCE  0012               	return	
 10761  001BD0                     l4911:
 10762                           
 10763                           ; BSR set to: 0
 10764  001BD0  0100               	movlb	0	; () banked
 10765  001BD2  90D8               	bcf	status,0,c
 10766  001BD4  3794               	rlcf	___fladd@b& (0+255),f,b
 10767  001BD6  3795               	rlcf	(___fladd@b+1)& (0+255),f,b
 10768  001BD8  3796               	rlcf	(___fladd@b+2)& (0+255),f,b
 10769  001BDA  3797               	rlcf	(___fladd@b+3)& (0+255),f,b
 10770                           
 10771                           ; BSR set to: 0
 10772  001BDC  0100               	movlb	0	; () banked
 10773  001BDE  AFA7               	btfss	___fladd@grs& (0+255),7,b
 10774  001BE0  D002               	goto	l4917
 10775                           
 10776                           ; BSR set to: 0
 10777  001BE2  0100               	movlb	0	; () banked
 10778  001BE4  8194               	bsf	___fladd@b& (0+255),0,b
 10779  001BE6                     l4917:
 10780                           
 10781                           ; BSR set to: 0
 10782  001BE6  0100               	movlb	0	; () banked
 10783  001BE8  A1A7               	btfss	___fladd@grs& (0+255),0,b
 10784  001BEA  D003               	goto	l4921
 10785                           
 10786                           ; BSR set to: 0
 10787  001BEC  80D8               	bsf	status,0,c
 10788  001BEE  0100               	movlb	0	; () banked
 10789  001BF0  D002               	goto	L10
 10790  001BF2                     l4921:
 10791                           
 10792                           ; BSR set to: 0
 10793  001BF2  0100               	movlb	0	; () banked
 10794  001BF4  90D8               	bcf	status,0,c
 10795  001BF6                     L10:
 10796  001BF6  37A7               	rlcf	___fladd@grs& (0+255),f,b
 10797                           
 10798                           ; BSR set to: 0
 10799                           
 10800                           ; BSR set to: 0
 10801  001BF8  0100               	movlb	0	; () banked
 10802  001BFA  51A6               	movf	___fladd@bexp& (0+255),w,b
 10803  001BFC  0100               	movlb	0	; () banked
 10804  001BFE  B4D8               	btfsc	status,2,c
 10805  001C00  D002               	goto	l4927
 10806                           
 10807                           ; BSR set to: 0
 10808  001C02  0100               	movlb	0	; () banked
 10809  001C04  07A6               	decf	___fladd@bexp& (0+255),f,b
 10810  001C06                     l4927:
 10811                           
 10812                           ; BSR set to: 0
 10813  001C06  0100               	movlb	0	; () banked
 10814  001C08  AF96               	btfss	(___fladd@b+2)& (0+255),7,b
 10815  001C0A  D7E2               	goto	l4911
 10816  001C0C                     l4929:
 10817                           
 10818                           ; BSR set to: 0
 10819  001C0C  0E00               	movlw	0
 10820  001C0E  0100               	movlb	0	; () banked
 10821  001C10  6FA5               	movwf	___fladd@aexp& (0+255),b
 10822                           
 10823                           ; BSR set to: 0
 10824  001C12  0100               	movlb	0	; () banked
 10825  001C14  AFA7               	btfss	___fladd@grs& (0+255),7,b
 10826  001C16  D00D               	goto	l925
 10827                           
 10828                           ; BSR set to: 0
 10829  001C18  C0A7  F09C         	movff	___fladd@grs,??___fladd
 10830  001C1C  0E7F               	movlw	127
 10831  001C1E  0100               	movlb	0	; () banked
 10832  001C20  179C               	andwf	??___fladd& (0+255),f,b
 10833  001C22  A4D8               	btfss	status,2,c
 10834  001C24  D003               	goto	l4937
 10835                           
 10836                           ; BSR set to: 0
 10837                           
 10838                           ; BSR set to: 0
 10839  001C26  0100               	movlb	0	; () banked
 10840  001C28  A194               	btfss	___fladd@b& (0+255),0,b
 10841  001C2A  D003               	goto	l925
 10842  001C2C                     l4937:
 10843                           
 10844                           ; BSR set to: 0
 10845  001C2C  0E01               	movlw	1
 10846  001C2E  0100               	movlb	0	; () banked
 10847  001C30  6FA5               	movwf	___fladd@aexp& (0+255),b
 10848  001C32                     l925:
 10849                           
 10850                           ; BSR set to: 0
 10851  001C32  0100               	movlb	0	; () banked
 10852  001C34  51A5               	movf	___fladd@aexp& (0+255),w,b
 10853  001C36  0100               	movlb	0	; () banked
 10854  001C38  B4D8               	btfsc	status,2,c
 10855  001C3A  D026               	goto	l4947
 10856                           
 10857                           ; BSR set to: 0
 10858  001C3C  0E01               	movlw	1
 10859  001C3E  0100               	movlb	0	; () banked
 10860  001C40  2794               	addwf	___fladd@b& (0+255),f,b
 10861  001C42  0E00               	movlw	0
 10862  001C44  2395               	addwfc	(___fladd@b+1)& (0+255),f,b
 10863  001C46  2396               	addwfc	(___fladd@b+2)& (0+255),f,b
 10864  001C48  2397               	addwfc	(___fladd@b+3)& (0+255),f,b
 10865                           
 10866                           ; BSR set to: 0
 10867  001C4A  0100               	movlb	0	; () banked
 10868  001C4C  A197               	btfss	(___fladd@b+3)& (0+255),0,b
 10869  001C4E  D01C               	goto	l4947
 10870                           
 10871                           ; BSR set to: 0
 10872  001C50  C094  F09C         	movff	___fladd@b,??___fladd
 10873  001C54  C095  F09D         	movff	___fladd@b+1,??___fladd+1
 10874  001C58  C096  F09E         	movff	___fladd@b+2,??___fladd+2
 10875  001C5C  C097  F09F         	movff	___fladd@b+3,??___fladd+3
 10876  001C60  0100               	movlb	0	; () banked
 10877  001C62  359F               	rlcf	(??___fladd+3)& (0+255),w,b
 10878  001C64  339F               	rrcf	(??___fladd+3)& (0+255),f,b
 10879  001C66  339E               	rrcf	(??___fladd+2)& (0+255),f,b
 10880  001C68  339D               	rrcf	(??___fladd+1)& (0+255),f,b
 10881  001C6A  339C               	rrcf	??___fladd& (0+255),f,b
 10882  001C6C  C09C  F094         	movff	??___fladd,___fladd@b
 10883  001C70  C09D  F095         	movff	??___fladd+1,___fladd@b+1
 10884  001C74  C09E  F096         	movff	??___fladd+2,___fladd@b+2
 10885  001C78  C09F  F097         	movff	??___fladd+3,___fladd@b+3
 10886  001C7C  0100               	movlb	0	; () banked
 10887  001C7E  29A6               	incf	___fladd@bexp& (0+255),w,b
 10888  001C80  B4D8               	btfsc	status,2,c
 10889  001C82  D002               	goto	l4947
 10890                           
 10891                           ; BSR set to: 0
 10892  001C84  0100               	movlb	0	; () banked
 10893  001C86  2BA6               	incf	___fladd@bexp& (0+255),f,b
 10894  001C88                     l4947:
 10895                           
 10896                           ; BSR set to: 0
 10897  001C88  0100               	movlb	0	; () banked
 10898  001C8A  29A6               	incf	___fladd@bexp& (0+255),w,b
 10899  001C8C  B4D8               	btfsc	status,2,c
 10900  001C8E  D005               	goto	l4951
 10901                           
 10902                           ; BSR set to: 0
 10903  001C90  0100               	movlb	0	; () banked
 10904  001C92  51A6               	movf	___fladd@bexp& (0+255),w,b
 10905  001C94  0100               	movlb	0	; () banked
 10906  001C96  A4D8               	btfss	status,2,c
 10907  001C98  D011               	goto	l4955
 10908  001C9A                     l4951:
 10909                           
 10910                           ; BSR set to: 0
 10911  001C9A  0E00               	movlw	0
 10912  001C9C  0100               	movlb	0	; () banked
 10913  001C9E  6F94               	movwf	___fladd@b& (0+255),b
 10914  001CA0  0E00               	movlw	0
 10915  001CA2  6F95               	movwf	(___fladd@b+1)& (0+255),b
 10916  001CA4  0E00               	movlw	0
 10917  001CA6  6F96               	movwf	(___fladd@b+2)& (0+255),b
 10918  001CA8  0E00               	movlw	0
 10919  001CAA  6F97               	movwf	(___fladd@b+3)& (0+255),b
 10920  001CAC  0100               	movlb	0	; () banked
 10921  001CAE  51A6               	movf	___fladd@bexp& (0+255),w,b
 10922  001CB0  0100               	movlb	0	; () banked
 10923  001CB2  A4D8               	btfss	status,2,c
 10924  001CB4  D003               	goto	l4955
 10925                           
 10926                           ; BSR set to: 0
 10927  001CB6  0E00               	movlw	0
 10928  001CB8  0100               	movlb	0	; () banked
 10929  001CBA  6FA4               	movwf	___fladd@signs& (0+255),b
 10930  001CBC                     l4955:
 10931                           
 10932                           ; BSR set to: 0
 10933  001CBC  0100               	movlb	0	; () banked
 10934  001CBE  A1A6               	btfss	___fladd@bexp& (0+255),0,b
 10935  001CC0  D003               	goto	l4959
 10936                           
 10937                           ; BSR set to: 0
 10938  001CC2  0100               	movlb	0	; () banked
 10939  001CC4  8F96               	bsf	(___fladd@b+2)& (0+255),7,b
 10940  001CC6  D002               	goto	l4961
 10941  001CC8                     l4959:
 10942                           
 10943                           ; BSR set to: 0
 10944  001CC8  0100               	movlb	0	; () banked
 10945  001CCA  9F96               	bcf	(___fladd@b+2)& (0+255),7,b
 10946  001CCC                     l4961:
 10947                           
 10948                           ; BSR set to: 0
 10949  001CCC  0100               	movlb	0	; () banked
 10950  001CCE  90D8               	bcf	status,0,c
 10951  001CD0  31A6               	rrcf	___fladd@bexp& (0+255),w,b
 10952  001CD2  0100               	movlb	0	; () banked
 10953  001CD4  6F97               	movwf	(___fladd@b+3)& (0+255),b
 10954                           
 10955                           ; BSR set to: 0
 10956  001CD6  0100               	movlb	0	; () banked
 10957  001CD8  AFA4               	btfss	___fladd@signs& (0+255),7,b
 10958  001CDA  D002               	goto	l4967
 10959                           
 10960                           ; BSR set to: 0
 10961  001CDC  0100               	movlb	0	; () banked
 10962  001CDE  8F97               	bsf	(___fladd@b+3)& (0+255),7,b
 10963  001CE0                     l4967:
 10964                           
 10965                           ; BSR set to: 0
 10966  001CE0  C094  F094         	movff	___fladd@b,?___fladd
 10967  001CE4  C095  F095         	movff	___fladd@b+1,?___fladd+1
 10968  001CE8  C096  F096         	movff	___fladd@b+2,?___fladd+2
 10969  001CEC  C097  F097         	movff	___fladd@b+3,?___fladd+3
 10970  001CF0  0012               	return	
 10971  001CF2                     __end_of___fladd:
 10972                           	opt stack 0
 10973                           tblptru	equ	0xFF8
 10974                           tblptrh	equ	0xFF7
 10975                           tblptrl	equ	0xFF6
 10976                           tablat	equ	0xFF5
 10977                           prodh	equ	0xFF4
 10978                           prodl	equ	0xFF3
 10979                           intcon	equ	0xFF2
 10980                           postinc0	equ	0xFEE
 10981                           wreg	equ	0xFE8
 10982                           indf1	equ	0xFE7
 10983                           postdec1	equ	0xFE5
 10984                           plusw1	equ	0xFE3
 10985                           fsr1h	equ	0xFE2
 10986                           fsr1l	equ	0xFE1
 10987                           indf2	equ	0xFDF
 10988                           postinc2	equ	0xFDE
 10989                           postdec2	equ	0xFDD
 10990                           plusw2	equ	0xFDB
 10991                           fsr2h	equ	0xFDA
 10992                           fsr2l	equ	0xFD9
 10993                           status	equ	0xFD8
 10994                           
 10995 ;; *************** function ___xxtofl *****************
 10996 ;; Defined at:
 10997 ;;		line 10 in file "C:\Program Files (x86)\Microchip\xc8\v1.37\sources\common\xxtofl.c"
 10998 ;; Parameters:    Size  Location     Type
 10999 ;;  sign            1    wreg     unsigned char 
 11000 ;;  val             4   13[BANK0 ] long 
 11001 ;; Auto vars:     Size  Location     Type
 11002 ;;  sign            1   21[BANK0 ] unsigned char 
 11003 ;;  arg             4   23[BANK0 ] unsigned long 
 11004 ;;  exp             1   22[BANK0 ] unsigned char 
 11005 ;; Return value:  Size  Location     Type
 11006 ;;                  4   13[BANK0 ] unsigned char 
 11007 ;; Registers used:
 11008 ;;		wreg, status,2, status,0
 11009 ;; Tracked objects:
 11010 ;;		On entry : 0/0
 11011 ;;		On exit  : 0/0
 11012 ;;		Unchanged: 0/0
 11013 ;; Data sizes:     COMRAM   BANK0   BANK1   BANK2   BANK3   BANK4   BANK5   BANK6   BANK7
 11014 ;;      Params:         0       4       0       0       0       0       0       0       0
 11015 ;;      Locals:         0       6       0       0       0       0       0       0       0
 11016 ;;      Temps:          0       4       0       0       0       0       0       0       0
 11017 ;;      Totals:         0      14       0       0       0       0       0       0       0
 11018 ;;Total ram usage:       14 bytes
 11019 ;; Hardware stack levels used:    1
 11020 ;; Hardware stack levels required when called:    2
 11021 ;; This function calls:
 11022 ;;		Nothing
 11023 ;; This function is called by:
 11024 ;;		_main
 11025 ;;		_read_adc
 11026 ;;		_sprintf
 11027 ;;		_log
 11028 ;; This function uses a non-reentrant model
 11029 ;;
 11030                           
 11031                           	psect	text29
 11032  0029FC                     __ptext29:
 11033                           	opt stack 0
 11034  0029FC                     ___xxtofl:
 11035                           	opt stack 25
 11036                           
 11037                           ; BSR set to: 0
 11038                           ;incstack = 0
 11039                           ;___xxtofl@sign stored from wreg
 11040  0029FC  0100               	movlb	0	; () banked
 11041  0029FE  6F75               	movwf	___xxtofl@sign& (0+255),b
 11042  002A00  0100               	movlb	0	; () banked
 11043  002A02  5175               	movf	___xxtofl@sign& (0+255),w,b
 11044  002A04  0100               	movlb	0	; () banked
 11045  002A06  B4D8               	btfsc	status,2,c
 11046  002A08  D01E               	goto	l1007
 11047                           
 11048                           ; BSR set to: 0
 11049  002A0A  0100               	movlb	0	; () banked
 11050  002A0C  AF70               	btfss	(___xxtofl@val+3)& (0+255),7,b
 11051  002A0E  D01B               	goto	l1007
 11052                           
 11053                           ; BSR set to: 0
 11054  002A10  C06D  F071         	movff	___xxtofl@val,??___xxtofl
 11055  002A14  C06E  F072         	movff	___xxtofl@val+1,??___xxtofl+1
 11056  002A18  C06F  F073         	movff	___xxtofl@val+2,??___xxtofl+2
 11057  002A1C  C070  F074         	movff	___xxtofl@val+3,??___xxtofl+3
 11058  002A20  0100               	movlb	0	; () banked
 11059  002A22  1F71               	comf	??___xxtofl& (0+255),f,b
 11060  002A24  1F72               	comf	(??___xxtofl+1)& (0+255),f,b
 11061  002A26  1F73               	comf	(??___xxtofl+2)& (0+255),f,b
 11062  002A28  1F74               	comf	(??___xxtofl+3)& (0+255),f,b
 11063  002A2A  2B71               	incf	??___xxtofl& (0+255),f,b
 11064  002A2C  0E00               	movlw	0
 11065  002A2E  2372               	addwfc	(??___xxtofl+1)& (0+255),f,b
 11066  002A30  2373               	addwfc	(??___xxtofl+2)& (0+255),f,b
 11067  002A32  2374               	addwfc	(??___xxtofl+3)& (0+255),f,b
 11068  002A34  C071  F077         	movff	??___xxtofl,___xxtofl@arg
 11069  002A38  C072  F078         	movff	??___xxtofl+1,___xxtofl@arg+1
 11070  002A3C  C073  F079         	movff	??___xxtofl+2,___xxtofl@arg+2
 11071  002A40  C074  F07A         	movff	??___xxtofl+3,___xxtofl@arg+3
 11072  002A44  D008               	goto	l5257
 11073  002A46                     l1007:
 11074                           
 11075                           ; BSR set to: 0
 11076  002A46  C06D  F077         	movff	___xxtofl@val,___xxtofl@arg
 11077  002A4A  C06E  F078         	movff	___xxtofl@val+1,___xxtofl@arg+1
 11078  002A4E  C06F  F079         	movff	___xxtofl@val+2,___xxtofl@arg+2
 11079  002A52  C070  F07A         	movff	___xxtofl@val+3,___xxtofl@arg+3
 11080  002A56                     l5257:
 11081                           
 11082                           ; BSR set to: 0
 11083  002A56  0100               	movlb	0	; () banked
 11084  002A58  516D               	movf	___xxtofl@val& (0+255),w,b
 11085  002A5A  0100               	movlb	0	; () banked
 11086  002A5C  116E               	iorwf	(___xxtofl@val+1)& (0+255),w,b
 11087  002A5E  0100               	movlb	0	; () banked
 11088  002A60  116F               	iorwf	(___xxtofl@val+2)& (0+255),w,b
 11089  002A62  0100               	movlb	0	; () banked
 11090  002A64  1170               	iorwf	(___xxtofl@val+3)& (0+255),w,b
 11091  002A66  A4D8               	btfss	status,2,c
 11092  002A68  D00A               	goto	l5263
 11093                           
 11094                           ; BSR set to: 0
 11095  002A6A  0E00               	movlw	0
 11096  002A6C  0100               	movlb	0	; () banked
 11097  002A6E  6F6D               	movwf	?___xxtofl& (0+255),b
 11098  002A70  0E00               	movlw	0
 11099  002A72  6F6E               	movwf	(?___xxtofl+1)& (0+255),b
 11100  002A74  0E00               	movlw	0
 11101  002A76  6F6F               	movwf	(?___xxtofl+2)& (0+255),b
 11102  002A78  0E00               	movlw	0
 11103  002A7A  6F70               	movwf	(?___xxtofl+3)& (0+255),b
 11104                           
 11105                           ; BSR set to: 0
 11106  002A7C  0012               	return	
 11107  002A7E                     l5263:
 11108                           
 11109                           ; BSR set to: 0
 11110  002A7E  0E96               	movlw	150
 11111  002A80  0100               	movlb	0	; () banked
 11112  002A82  6F76               	movwf	___xxtofl@exp& (0+255),b
 11113  002A84  D008               	goto	l5267
 11114  002A86                     l5265:
 11115                           
 11116                           ; BSR set to: 0
 11117  002A86  0100               	movlb	0	; () banked
 11118  002A88  2B76               	incf	___xxtofl@exp& (0+255),f,b
 11119  002A8A  0100               	movlb	0	; () banked
 11120  002A8C  90D8               	bcf	status,0,c
 11121  002A8E  337A               	rrcf	(___xxtofl@arg+3)& (0+255),f,b
 11122  002A90  3379               	rrcf	(___xxtofl@arg+2)& (0+255),f,b
 11123  002A92  3378               	rrcf	(___xxtofl@arg+1)& (0+255),f,b
 11124  002A94  3377               	rrcf	___xxtofl@arg& (0+255),f,b
 11125  002A96                     l5267:
 11126                           
 11127                           ; BSR set to: 0
 11128  002A96  0E00               	movlw	0
 11129  002A98  0100               	movlb	0	; () banked
 11130  002A9A  1577               	andwf	___xxtofl@arg& (0+255),w,b
 11131  002A9C  0100               	movlb	0	; () banked
 11132  002A9E  6F71               	movwf	??___xxtofl& (0+255),b
 11133  002AA0  0E00               	movlw	0
 11134  002AA2  0100               	movlb	0	; () banked
 11135  002AA4  1578               	andwf	(___xxtofl@arg+1)& (0+255),w,b
 11136  002AA6  0100               	movlb	0	; () banked
 11137  002AA8  6F72               	movwf	(??___xxtofl+1)& (0+255),b
 11138  002AAA  0E00               	movlw	0
 11139  002AAC  0100               	movlb	0	; () banked
 11140  002AAE  1579               	andwf	(___xxtofl@arg+2)& (0+255),w,b
 11141  002AB0  0100               	movlb	0	; () banked
 11142  002AB2  6F73               	movwf	(??___xxtofl+2)& (0+255),b
 11143  002AB4  0EFE               	movlw	254
 11144  002AB6  0100               	movlb	0	; () banked
 11145  002AB8  157A               	andwf	(___xxtofl@arg+3)& (0+255),w,b
 11146  002ABA  0100               	movlb	0	; () banked
 11147  002ABC  6F74               	movwf	(??___xxtofl+3)& (0+255),b
 11148  002ABE  0100               	movlb	0	; () banked
 11149  002AC0  5171               	movf	??___xxtofl& (0+255),w,b
 11150  002AC2  0100               	movlb	0	; () banked
 11151  002AC4  1172               	iorwf	(??___xxtofl+1)& (0+255),w,b
 11152  002AC6  0100               	movlb	0	; () banked
 11153  002AC8  1173               	iorwf	(??___xxtofl+2)& (0+255),w,b
 11154  002ACA  0100               	movlb	0	; () banked
 11155  002ACC  1174               	iorwf	(??___xxtofl+3)& (0+255),w,b
 11156  002ACE  B4D8               	btfsc	status,2,c
 11157  002AD0  D010               	goto	l1014
 11158  002AD2  D7D9               	goto	l5265
 11159  002AD4                     l5269:
 11160                           
 11161                           ; BSR set to: 0
 11162  002AD4  0100               	movlb	0	; () banked
 11163  002AD6  2B76               	incf	___xxtofl@exp& (0+255),f,b
 11164                           
 11165                           ; BSR set to: 0
 11166  002AD8  0E01               	movlw	1
 11167  002ADA  0100               	movlb	0	; () banked
 11168  002ADC  2777               	addwf	___xxtofl@arg& (0+255),f,b
 11169  002ADE  0E00               	movlw	0
 11170  002AE0  2378               	addwfc	(___xxtofl@arg+1)& (0+255),f,b
 11171  002AE2  2379               	addwfc	(___xxtofl@arg+2)& (0+255),f,b
 11172  002AE4  237A               	addwfc	(___xxtofl@arg+3)& (0+255),f,b
 11173                           
 11174                           ; BSR set to: 0
 11175  002AE6  0100               	movlb	0	; () banked
 11176  002AE8  90D8               	bcf	status,0,c
 11177  002AEA  337A               	rrcf	(___xxtofl@arg+3)& (0+255),f,b
 11178  002AEC  3379               	rrcf	(___xxtofl@arg+2)& (0+255),f,b
 11179  002AEE  3378               	rrcf	(___xxtofl@arg+1)& (0+255),f,b
 11180  002AF0  3377               	rrcf	___xxtofl@arg& (0+255),f,b
 11181  002AF2                     l1014:
 11182                           
 11183                           ; BSR set to: 0
 11184  002AF2  0E00               	movlw	0
 11185  002AF4  0100               	movlb	0	; () banked
 11186  002AF6  1577               	andwf	___xxtofl@arg& (0+255),w,b
 11187  002AF8  0100               	movlb	0	; () banked
 11188  002AFA  6F71               	movwf	??___xxtofl& (0+255),b
 11189  002AFC  0E00               	movlw	0
 11190  002AFE  0100               	movlb	0	; () banked
 11191  002B00  1578               	andwf	(___xxtofl@arg+1)& (0+255),w,b
 11192  002B02  0100               	movlb	0	; () banked
 11193  002B04  6F72               	movwf	(??___xxtofl+1)& (0+255),b
 11194  002B06  0E00               	movlw	0
 11195  002B08  0100               	movlb	0	; () banked
 11196  002B0A  1579               	andwf	(___xxtofl@arg+2)& (0+255),w,b
 11197  002B0C  0100               	movlb	0	; () banked
 11198  002B0E  6F73               	movwf	(??___xxtofl+2)& (0+255),b
 11199  002B10  0EFF               	movlw	255
 11200  002B12  0100               	movlb	0	; () banked
 11201  002B14  157A               	andwf	(___xxtofl@arg+3)& (0+255),w,b
 11202  002B16  0100               	movlb	0	; () banked
 11203  002B18  6F74               	movwf	(??___xxtofl+3)& (0+255),b
 11204  002B1A  0100               	movlb	0	; () banked
 11205  002B1C  5171               	movf	??___xxtofl& (0+255),w,b
 11206  002B1E  0100               	movlb	0	; () banked
 11207  002B20  1172               	iorwf	(??___xxtofl+1)& (0+255),w,b
 11208  002B22  0100               	movlb	0	; () banked
 11209  002B24  1173               	iorwf	(??___xxtofl+2)& (0+255),w,b
 11210  002B26  0100               	movlb	0	; () banked
 11211  002B28  1174               	iorwf	(??___xxtofl+3)& (0+255),w,b
 11212  002B2A  B4D8               	btfsc	status,2,c
 11213  002B2C  D009               	goto	l5277
 11214  002B2E  D7D2               	goto	l5269
 11215  002B30                     l5275:
 11216                           
 11217                           ; BSR set to: 0
 11218  002B30  0100               	movlb	0	; () banked
 11219  002B32  0776               	decf	___xxtofl@exp& (0+255),f,b
 11220  002B34  0100               	movlb	0	; () banked
 11221  002B36  90D8               	bcf	status,0,c
 11222  002B38  3777               	rlcf	___xxtofl@arg& (0+255),f,b
 11223  002B3A  3778               	rlcf	(___xxtofl@arg+1)& (0+255),f,b
 11224  002B3C  3779               	rlcf	(___xxtofl@arg+2)& (0+255),f,b
 11225  002B3E  377A               	rlcf	(___xxtofl@arg+3)& (0+255),f,b
 11226  002B40                     l5277:
 11227                           
 11228                           ; BSR set to: 0
 11229  002B40  0100               	movlb	0	; () banked
 11230  002B42  BF79               	btfsc	(___xxtofl@arg+2)& (0+255),7,b
 11231  002B44  D004               	goto	l1021
 11232                           
 11233                           ; BSR set to: 0
 11234  002B46  0E02               	movlw	2
 11235  002B48  0100               	movlb	0	; () banked
 11236  002B4A  6176               	cpfslt	___xxtofl@exp& (0+255),b
 11237  002B4C  D7F1               	goto	l5275
 11238  002B4E                     l1021:
 11239                           
 11240                           ; BSR set to: 0
 11241  002B4E  0100               	movlb	0	; () banked
 11242  002B50  B176               	btfsc	___xxtofl@exp& (0+255),0,b
 11243  002B52  D009               	goto	l1022
 11244                           
 11245                           ; BSR set to: 0
 11246  002B54  0EFF               	movlw	255
 11247  002B56  0100               	movlb	0	; () banked
 11248  002B58  1777               	andwf	___xxtofl@arg& (0+255),f,b
 11249  002B5A  0EFF               	movlw	255
 11250  002B5C  1778               	andwf	(___xxtofl@arg+1)& (0+255),f,b
 11251  002B5E  0E7F               	movlw	127
 11252  002B60  1779               	andwf	(___xxtofl@arg+2)& (0+255),f,b
 11253  002B62  0EFF               	movlw	255
 11254  002B64  177A               	andwf	(___xxtofl@arg+3)& (0+255),f,b
 11255  002B66                     l1022:
 11256                           
 11257                           ; BSR set to: 0
 11258  002B66  0100               	movlb	0	; () banked
 11259  002B68  90D8               	bcf	status,0,c
 11260  002B6A  3376               	rrcf	___xxtofl@exp& (0+255),f,b
 11261  002B6C  C076  F071         	movff	___xxtofl@exp,??___xxtofl
 11262  002B70  0100               	movlb	0	; () banked
 11263  002B72  6B72               	clrf	(??___xxtofl+1)& (0+255),b
 11264  002B74  6B73               	clrf	(??___xxtofl+2)& (0+255),b
 11265  002B76  6B74               	clrf	(??___xxtofl+3)& (0+255),b
 11266  002B78  C071  F074         	movff	??___xxtofl,??___xxtofl+3
 11267  002B7C  0100               	movlb	0	; () banked
 11268  002B7E  6B73               	clrf	(??___xxtofl+2)& (0+255),b
 11269  002B80  6B72               	clrf	(??___xxtofl+1)& (0+255),b
 11270  002B82  6B71               	clrf	??___xxtofl& (0+255),b
 11271  002B84  0100               	movlb	0	; () banked
 11272  002B86  5171               	movf	??___xxtofl& (0+255),w,b
 11273  002B88  0100               	movlb	0	; () banked
 11274  002B8A  1377               	iorwf	___xxtofl@arg& (0+255),f,b
 11275  002B8C  0100               	movlb	0	; () banked
 11276  002B8E  5172               	movf	(??___xxtofl+1)& (0+255),w,b
 11277  002B90  0100               	movlb	0	; () banked
 11278  002B92  1378               	iorwf	(___xxtofl@arg+1)& (0+255),f,b
 11279  002B94  0100               	movlb	0	; () banked
 11280  002B96  5173               	movf	(??___xxtofl+2)& (0+255),w,b
 11281  002B98  0100               	movlb	0	; () banked
 11282  002B9A  1379               	iorwf	(___xxtofl@arg+2)& (0+255),f,b
 11283  002B9C  0100               	movlb	0	; () banked
 11284  002B9E  5174               	movf	(??___xxtofl+3)& (0+255),w,b
 11285  002BA0  0100               	movlb	0	; () banked
 11286  002BA2  137A               	iorwf	(___xxtofl@arg+3)& (0+255),f,b
 11287                           
 11288                           ; BSR set to: 0
 11289  002BA4  0100               	movlb	0	; () banked
 11290  002BA6  5175               	movf	___xxtofl@sign& (0+255),w,b
 11291  002BA8  0100               	movlb	0	; () banked
 11292  002BAA  B4D8               	btfsc	status,2,c
 11293  002BAC  D005               	goto	l5289
 11294                           
 11295                           ; BSR set to: 0
 11296  002BAE  0100               	movlb	0	; () banked
 11297  002BB0  AF70               	btfss	(___xxtofl@val+3)& (0+255),7,b
 11298  002BB2  D002               	goto	l5289
 11299                           
 11300                           ; BSR set to: 0
 11301  002BB4  0100               	movlb	0	; () banked
 11302  002BB6  8F7A               	bsf	(___xxtofl@arg+3)& (0+255),7,b
 11303  002BB8                     l5289:
 11304                           
 11305                           ; BSR set to: 0
 11306  002BB8  C077  F06D         	movff	___xxtofl@arg,?___xxtofl
 11307  002BBC  C078  F06E         	movff	___xxtofl@arg+1,?___xxtofl+1
 11308  002BC0  C079  F06F         	movff	___xxtofl@arg+2,?___xxtofl+2
 11309  002BC4  C07A  F070         	movff	___xxtofl@arg+3,?___xxtofl+3
 11310  002BC8  0012               	return	
 11311  002BCA                     __end_of___xxtofl:
 11312                           	opt stack 0
 11313                           tblptru	equ	0xFF8
 11314                           tblptrh	equ	0xFF7
 11315                           tblptrl	equ	0xFF6
 11316                           tablat	equ	0xFF5
 11317                           prodh	equ	0xFF4
 11318                           prodl	equ	0xFF3
 11319                           intcon	equ	0xFF2
 11320                           postinc0	equ	0xFEE
 11321                           wreg	equ	0xFE8
 11322                           indf1	equ	0xFE7
 11323                           postdec1	equ	0xFE5
 11324                           plusw1	equ	0xFE3
 11325                           fsr1h	equ	0xFE2
 11326                           fsr1l	equ	0xFE1
 11327                           indf2	equ	0xFDF
 11328                           postinc2	equ	0xFDE
 11329                           postdec2	equ	0xFDD
 11330                           plusw2	equ	0xFDB
 11331                           fsr2h	equ	0xFDA
 11332                           fsr2l	equ	0xFD9
 11333                           status	equ	0xFD8
 11334                           
 11335 ;; *************** function ___flge *****************
 11336 ;; Defined at:
 11337 ;;		line 4 in file "C:\Program Files (x86)\Microchip\xc8\v1.37\sources\common\flge.c"
 11338 ;; Parameters:    Size  Location     Type
 11339 ;;  ff1             4    0[BANK0 ] unsigned char 
 11340 ;;  ff2             4    4[BANK0 ] unsigned char 
 11341 ;; Auto vars:     Size  Location     Type
 11342 ;;		None
 11343 ;; Return value:  Size  Location     Type
 11344 ;;		None               void
 11345 ;; Registers used:
 11346 ;;		wreg, status,2, status,0
 11347 ;; Tracked objects:
 11348 ;;		On entry : 0/0
 11349 ;;		On exit  : 0/0
 11350 ;;		Unchanged: 0/0
 11351 ;; Data sizes:     COMRAM   BANK0   BANK1   BANK2   BANK3   BANK4   BANK5   BANK6   BANK7
 11352 ;;      Params:         0       8       0       0       0       0       0       0       0
 11353 ;;      Locals:         0       0       0       0       0       0       0       0       0
 11354 ;;      Temps:          0       4       0       0       0       0       0       0       0
 11355 ;;      Totals:         0      12       0       0       0       0       0       0       0
 11356 ;;Total ram usage:       12 bytes
 11357 ;; Hardware stack levels used:    1
 11358 ;; Hardware stack levels required when called:    2
 11359 ;; This function calls:
 11360 ;;		Nothing
 11361 ;; This function is called by:
 11362 ;;		_main
 11363 ;;		_ricarica
 11364 ;;		_stabilizzazione
 11365 ;;		_scarica
 11366 ;;		_read_adc
 11367 ;;		_sprintf
 11368 ;; This function uses a non-reentrant model
 11369 ;;
 11370                           
 11371                           	psect	text30
 11372  002F28                     __ptext30:
 11373                           	opt stack 0
 11374  002F28                     ___flge:
 11375                           	opt stack 25
 11376                           
 11377                           ; BSR set to: 0
 11378                           ;incstack = 0
 11379  002F28  0E00               	movlw	0
 11380  002F2A  0100               	movlb	0	; () banked
 11381  002F2C  1560               	andwf	___flge@ff1& (0+255),w,b
 11382  002F2E  0100               	movlb	0	; () banked
 11383  002F30  6F68               	movwf	??___flge& (0+255),b
 11384  002F32  0E00               	movlw	0
 11385  002F34  0100               	movlb	0	; () banked
 11386  002F36  1561               	andwf	(___flge@ff1+1)& (0+255),w,b
 11387  002F38  0100               	movlb	0	; () banked
 11388  002F3A  6F69               	movwf	(??___flge+1)& (0+255),b
 11389  002F3C  0E80               	movlw	128
 11390  002F3E  0100               	movlb	0	; () banked
 11391  002F40  1562               	andwf	(___flge@ff1+2)& (0+255),w,b
 11392  002F42  0100               	movlb	0	; () banked
 11393  002F44  6F6A               	movwf	(??___flge+2)& (0+255),b
 11394  002F46  0E7F               	movlw	127
 11395  002F48  0100               	movlb	0	; () banked
 11396  002F4A  1563               	andwf	(___flge@ff1+3)& (0+255),w,b
 11397  002F4C  0100               	movlb	0	; () banked
 11398  002F4E  6F6B               	movwf	(??___flge+3)& (0+255),b
 11399  002F50  0100               	movlb	0	; () banked
 11400  002F52  5168               	movf	??___flge& (0+255),w,b
 11401  002F54  0100               	movlb	0	; () banked
 11402  002F56  1169               	iorwf	(??___flge+1)& (0+255),w,b
 11403  002F58  0100               	movlb	0	; () banked
 11404  002F5A  116A               	iorwf	(??___flge+2)& (0+255),w,b
 11405  002F5C  0100               	movlb	0	; () banked
 11406  002F5E  116B               	iorwf	(??___flge+3)& (0+255),w,b
 11407  002F60  A4D8               	btfss	status,2,c
 11408  002F62  D009               	goto	l5667
 11409                           
 11410                           ; BSR set to: 0
 11411  002F64  0E00               	movlw	0
 11412  002F66  0100               	movlb	0	; () banked
 11413  002F68  6F60               	movwf	___flge@ff1& (0+255),b
 11414  002F6A  0E00               	movlw	0
 11415  002F6C  6F61               	movwf	(___flge@ff1+1)& (0+255),b
 11416  002F6E  0E00               	movlw	0
 11417  002F70  6F62               	movwf	(___flge@ff1+2)& (0+255),b
 11418  002F72  0E00               	movlw	0
 11419  002F74  6F63               	movwf	(___flge@ff1+3)& (0+255),b
 11420  002F76                     l5667:
 11421                           
 11422                           ; BSR set to: 0
 11423  002F76  0E00               	movlw	0
 11424  002F78  0100               	movlb	0	; () banked
 11425  002F7A  1564               	andwf	___flge@ff2& (0+255),w,b
 11426  002F7C  0100               	movlb	0	; () banked
 11427  002F7E  6F68               	movwf	??___flge& (0+255),b
 11428  002F80  0E00               	movlw	0
 11429  002F82  0100               	movlb	0	; () banked
 11430  002F84  1565               	andwf	(___flge@ff2+1)& (0+255),w,b
 11431  002F86  0100               	movlb	0	; () banked
 11432  002F88  6F69               	movwf	(??___flge+1)& (0+255),b
 11433  002F8A  0E80               	movlw	128
 11434  002F8C  0100               	movlb	0	; () banked
 11435  002F8E  1566               	andwf	(___flge@ff2+2)& (0+255),w,b
 11436  002F90  0100               	movlb	0	; () banked
 11437  002F92  6F6A               	movwf	(??___flge+2)& (0+255),b
 11438  002F94  0E7F               	movlw	127
 11439  002F96  0100               	movlb	0	; () banked
 11440  002F98  1567               	andwf	(___flge@ff2+3)& (0+255),w,b
 11441  002F9A  0100               	movlb	0	; () banked
 11442  002F9C  6F6B               	movwf	(??___flge+3)& (0+255),b
 11443  002F9E  0100               	movlb	0	; () banked
 11444  002FA0  5168               	movf	??___flge& (0+255),w,b
 11445  002FA2  0100               	movlb	0	; () banked
 11446  002FA4  1169               	iorwf	(??___flge+1)& (0+255),w,b
 11447  002FA6  0100               	movlb	0	; () banked
 11448  002FA8  116A               	iorwf	(??___flge+2)& (0+255),w,b
 11449  002FAA  0100               	movlb	0	; () banked
 11450  002FAC  116B               	iorwf	(??___flge+3)& (0+255),w,b
 11451  002FAE  A4D8               	btfss	status,2,c
 11452  002FB0  D009               	goto	l5671
 11453                           
 11454                           ; BSR set to: 0
 11455  002FB2  0E00               	movlw	0
 11456  002FB4  0100               	movlb	0	; () banked
 11457  002FB6  6F64               	movwf	___flge@ff2& (0+255),b
 11458  002FB8  0E00               	movlw	0
 11459  002FBA  6F65               	movwf	(___flge@ff2+1)& (0+255),b
 11460  002FBC  0E00               	movlw	0
 11461  002FBE  6F66               	movwf	(___flge@ff2+2)& (0+255),b
 11462  002FC0  0E00               	movlw	0
 11463  002FC2  6F67               	movwf	(___flge@ff2+3)& (0+255),b
 11464  002FC4                     l5671:
 11465                           
 11466                           ; BSR set to: 0
 11467  002FC4  0100               	movlb	0	; () banked
 11468  002FC6  AF63               	btfss	(___flge@ff1+3)& (0+255),7,b
 11469  002FC8  D026               	goto	l5675
 11470                           
 11471                           ; BSR set to: 0
 11472  002FCA  C060  F068         	movff	___flge@ff1,??___flge
 11473  002FCE  C061  F069         	movff	___flge@ff1+1,??___flge+1
 11474  002FD2  C062  F06A         	movff	___flge@ff1+2,??___flge+2
 11475  002FD6  C063  F06B         	movff	___flge@ff1+3,??___flge+3
 11476  002FDA  0100               	movlb	0	; () banked
 11477  002FDC  1F68               	comf	??___flge& (0+255),f,b
 11478  002FDE  1F69               	comf	(??___flge+1)& (0+255),f,b
 11479  002FE0  1F6A               	comf	(??___flge+2)& (0+255),f,b
 11480  002FE2  1F6B               	comf	(??___flge+3)& (0+255),f,b
 11481  002FE4  2B68               	incf	??___flge& (0+255),f,b
 11482  002FE6  0E00               	movlw	0
 11483  002FE8  2369               	addwfc	(??___flge+1)& (0+255),f,b
 11484  002FEA  236A               	addwfc	(??___flge+2)& (0+255),f,b
 11485  002FEC  236B               	addwfc	(??___flge+3)& (0+255),f,b
 11486  002FEE  0E00               	movlw	0
 11487  002FF0  0100               	movlb	0	; () banked
 11488  002FF2  2568               	addwf	??___flge& (0+255),w,b
 11489  002FF4  0100               	movlb	0	; () banked
 11490  002FF6  6F60               	movwf	___flge@ff1& (0+255),b
 11491  002FF8  0E00               	movlw	0
 11492  002FFA  0100               	movlb	0	; () banked
 11493  002FFC  2169               	addwfc	(??___flge+1)& (0+255),w,b
 11494  002FFE  0100               	movlb	0	; () banked
 11495  003000  6F61               	movwf	(___flge@ff1+1)& (0+255),b
 11496  003002  0E00               	movlw	0
 11497  003004  0100               	movlb	0	; () banked
 11498  003006  216A               	addwfc	(??___flge+2)& (0+255),w,b
 11499  003008  0100               	movlb	0	; () banked
 11500  00300A  6F62               	movwf	(___flge@ff1+2)& (0+255),b
 11501  00300C  0E80               	movlw	128
 11502  00300E  0100               	movlb	0	; () banked
 11503  003010  216B               	addwfc	(??___flge+3)& (0+255),w,b
 11504  003012  0100               	movlb	0	; () banked
 11505  003014  6F63               	movwf	(___flge@ff1+3)& (0+255),b
 11506  003016                     l5675:
 11507                           
 11508                           ; BSR set to: 0
 11509  003016  0100               	movlb	0	; () banked
 11510  003018  AF67               	btfss	(___flge@ff2+3)& (0+255),7,b
 11511  00301A  D026               	goto	l606
 11512                           
 11513                           ; BSR set to: 0
 11514  00301C  C064  F068         	movff	___flge@ff2,??___flge
 11515  003020  C065  F069         	movff	___flge@ff2+1,??___flge+1
 11516  003024  C066  F06A         	movff	___flge@ff2+2,??___flge+2
 11517  003028  C067  F06B         	movff	___flge@ff2+3,??___flge+3
 11518  00302C  0100               	movlb	0	; () banked
 11519  00302E  1F68               	comf	??___flge& (0+255),f,b
 11520  003030  1F69               	comf	(??___flge+1)& (0+255),f,b
 11521  003032  1F6A               	comf	(??___flge+2)& (0+255),f,b
 11522  003034  1F6B               	comf	(??___flge+3)& (0+255),f,b
 11523  003036  2B68               	incf	??___flge& (0+255),f,b
 11524  003038  0E00               	movlw	0
 11525  00303A  2369               	addwfc	(??___flge+1)& (0+255),f,b
 11526  00303C  236A               	addwfc	(??___flge+2)& (0+255),f,b
 11527  00303E  236B               	addwfc	(??___flge+3)& (0+255),f,b
 11528  003040  0E00               	movlw	0
 11529  003042  0100               	movlb	0	; () banked
 11530  003044  2568               	addwf	??___flge& (0+255),w,b
 11531  003046  0100               	movlb	0	; () banked
 11532  003048  6F64               	movwf	___flge@ff2& (0+255),b
 11533  00304A  0E00               	movlw	0
 11534  00304C  0100               	movlb	0	; () banked
 11535  00304E  2169               	addwfc	(??___flge+1)& (0+255),w,b
 11536  003050  0100               	movlb	0	; () banked
 11537  003052  6F65               	movwf	(___flge@ff2+1)& (0+255),b
 11538  003054  0E00               	movlw	0
 11539  003056  0100               	movlb	0	; () banked
 11540  003058  216A               	addwfc	(??___flge+2)& (0+255),w,b
 11541  00305A  0100               	movlb	0	; () banked
 11542  00305C  6F66               	movwf	(___flge@ff2+2)& (0+255),b
 11543  00305E  0E80               	movlw	128
 11544  003060  0100               	movlb	0	; () banked
 11545  003062  216B               	addwfc	(??___flge+3)& (0+255),w,b
 11546  003064  0100               	movlb	0	; () banked
 11547  003066  6F67               	movwf	(___flge@ff2+3)& (0+255),b
 11548  003068                     l606:
 11549                           
 11550                           ; BSR set to: 0
 11551  003068  0E00               	movlw	0
 11552  00306A  0100               	movlb	0	; () banked
 11553  00306C  1B60               	xorwf	___flge@ff1& (0+255),f,b
 11554  00306E  0E00               	movlw	0
 11555  003070  1B61               	xorwf	(___flge@ff1+1)& (0+255),f,b
 11556  003072  0E00               	movlw	0
 11557  003074  1B62               	xorwf	(___flge@ff1+2)& (0+255),f,b
 11558  003076  0E80               	movlw	128
 11559  003078  1B63               	xorwf	(___flge@ff1+3)& (0+255),f,b
 11560  00307A  0E00               	movlw	0
 11561  00307C  0100               	movlb	0	; () banked
 11562  00307E  1B64               	xorwf	___flge@ff2& (0+255),f,b
 11563  003080  0E00               	movlw	0
 11564  003082  1B65               	xorwf	(___flge@ff2+1)& (0+255),f,b
 11565  003084  0E00               	movlw	0
 11566  003086  1B66               	xorwf	(___flge@ff2+2)& (0+255),f,b
 11567  003088  0E80               	movlw	128
 11568  00308A  1B67               	xorwf	(___flge@ff2+3)& (0+255),f,b
 11569  00308C  0100               	movlb	0	; () banked
 11570  00308E  5164               	movf	___flge@ff2& (0+255),w,b
 11571  003090  0100               	movlb	0	; () banked
 11572  003092  5D60               	subwf	___flge@ff1& (0+255),w,b
 11573  003094  0100               	movlb	0	; () banked
 11574  003096  5165               	movf	(___flge@ff2+1)& (0+255),w,b
 11575  003098  0100               	movlb	0	; () banked
 11576  00309A  5961               	subwfb	(___flge@ff1+1)& (0+255),w,b
 11577  00309C  0100               	movlb	0	; () banked
 11578  00309E  5166               	movf	(___flge@ff2+2)& (0+255),w,b
 11579  0030A0  0100               	movlb	0	; () banked
 11580  0030A2  5962               	subwfb	(___flge@ff1+2)& (0+255),w,b
 11581  0030A4  0100               	movlb	0	; () banked
 11582  0030A6  5167               	movf	(___flge@ff2+3)& (0+255),w,b
 11583  0030A8  0100               	movlb	0	; () banked
 11584  0030AA  5963               	subwfb	(___flge@ff1+3)& (0+255),w,b
 11585  0030AC  B0D8               	btfsc	status,0,c
 11586  0030AE  D002               	goto	l5681
 11587                           
 11588                           ; BSR set to: 0
 11589  0030B0  90D8               	bcf	status,0,c
 11590  0030B2  0012               	return	
 11591  0030B4                     l5681:
 11592                           
 11593                           ; BSR set to: 0
 11594  0030B4  80D8               	bsf	status,0,c
 11595                           
 11596                           ; BSR set to: 0
 11597  0030B6  0012               	return	
 11598  0030B8                     __end_of___flge:
 11599                           	opt stack 0
 11600                           tblptru	equ	0xFF8
 11601                           tblptrh	equ	0xFF7
 11602                           tblptrl	equ	0xFF6
 11603                           tablat	equ	0xFF5
 11604                           prodh	equ	0xFF4
 11605                           prodl	equ	0xFF3
 11606                           intcon	equ	0xFF2
 11607                           postinc0	equ	0xFEE
 11608                           wreg	equ	0xFE8
 11609                           indf1	equ	0xFE7
 11610                           postdec1	equ	0xFE5
 11611                           plusw1	equ	0xFE3
 11612                           fsr1h	equ	0xFE2
 11613                           fsr1l	equ	0xFE1
 11614                           indf2	equ	0xFDF
 11615                           postinc2	equ	0xFDE
 11616                           postdec2	equ	0xFDD
 11617                           plusw2	equ	0xFDB
 11618                           fsr2h	equ	0xFDA
 11619                           fsr2l	equ	0xFD9
 11620                           status	equ	0xFD8
 11621                           
 11622 ;; *************** function ___fldiv *****************
 11623 ;; Defined at:
 11624 ;;		line 11 in file "C:\Program Files (x86)\Microchip\xc8\v1.37\sources\common\sprcdiv.c"
 11625 ;; Parameters:    Size  Location     Type
 11626 ;;  b               4   27[BANK0 ] unsigned char 
 11627 ;;  a               4   31[BANK0 ] unsigned char 
 11628 ;; Auto vars:     Size  Location     Type
 11629 ;;  grs             4   46[BANK0 ] unsigned long 
 11630 ;;  rem             4   40[BANK0 ] unsigned long 
 11631 ;;  new_exp         2   44[BANK0 ] int 
 11632 ;;  aexp            1   51[BANK0 ] unsigned char 
 11633 ;;  bexp            1   50[BANK0 ] unsigned char 
 11634 ;;  sign            1   39[BANK0 ] unsigned char 
 11635 ;; Return value:  Size  Location     Type
 11636 ;;                  4   27[BANK0 ] unsigned char 
 11637 ;; Registers used:
 11638 ;;		wreg, status,2, status,0
 11639 ;; Tracked objects:
 11640 ;;		On entry : 0/0
 11641 ;;		On exit  : 0/0
 11642 ;;		Unchanged: 0/0
 11643 ;; Data sizes:     COMRAM   BANK0   BANK1   BANK2   BANK3   BANK4   BANK5   BANK6   BANK7
 11644 ;;      Params:         0       8       0       0       0       0       0       0       0
 11645 ;;      Locals:         0      13       0       0       0       0       0       0       0
 11646 ;;      Temps:          0       4       0       0       0       0       0       0       0
 11647 ;;      Totals:         0      25       0       0       0       0       0       0       0
 11648 ;;Total ram usage:       25 bytes
 11649 ;; Hardware stack levels used:    1
 11650 ;; Hardware stack levels required when called:    2
 11651 ;; This function calls:
 11652 ;;		Nothing
 11653 ;; This function is called by:
 11654 ;;		_main
 11655 ;;		_read_adc
 11656 ;; This function uses a non-reentrant model
 11657 ;;
 11658                           
 11659                           	psect	text31
 11660  002198                     __ptext31:
 11661                           	opt stack 0
 11662  002198                     ___fldiv:
 11663                           	opt stack 25
 11664                           
 11665                           ; BSR set to: 0
 11666                           ;incstack = 0
 11667  002198  0100               	movlb	0	; () banked
 11668  00219A  517E               	movf	(___fldiv@b+3)& (0+255),w,b
 11669  00219C  0B80               	andlw	128
 11670  00219E  0100               	movlb	0	; () banked
 11671  0021A0  6F87               	movwf	___fldiv@sign& (0+255),b
 11672  0021A2  0100               	movlb	0	; () banked
 11673  0021A4  517E               	movf	(___fldiv@b+3)& (0+255),w,b
 11674  0021A6  257E               	addwf	(___fldiv@b+3)& (0+255),w,b
 11675  0021A8  0100               	movlb	0	; () banked
 11676  0021AA  6F92               	movwf	___fldiv@bexp& (0+255),b
 11677                           
 11678                           ; BSR set to: 0
 11679  0021AC  0100               	movlb	0	; () banked
 11680  0021AE  AF7D               	btfss	(___fldiv@b+2)& (0+255),7,b
 11681  0021B0  D002               	goto	l5527
 11682                           
 11683                           ; BSR set to: 0
 11684  0021B2  0100               	movlb	0	; () banked
 11685  0021B4  8192               	bsf	___fldiv@bexp& (0+255),0,b
 11686  0021B6                     l5527:
 11687                           
 11688                           ; BSR set to: 0
 11689  0021B6  0100               	movlb	0	; () banked
 11690  0021B8  5192               	movf	___fldiv@bexp& (0+255),w,b
 11691  0021BA  0100               	movlb	0	; () banked
 11692  0021BC  B4D8               	btfsc	status,2,c
 11693  0021BE  D012               	goto	l5537
 11694                           
 11695                           ; BSR set to: 0
 11696  0021C0  0100               	movlb	0	; () banked
 11697  0021C2  2992               	incf	___fldiv@bexp& (0+255),w,b
 11698  0021C4  A4D8               	btfss	status,2,c
 11699  0021C6  D009               	goto	l5533
 11700                           
 11701                           ; BSR set to: 0
 11702  0021C8  0E00               	movlw	0
 11703  0021CA  0100               	movlb	0	; () banked
 11704  0021CC  6F7B               	movwf	___fldiv@b& (0+255),b
 11705  0021CE  0E00               	movlw	0
 11706  0021D0  6F7C               	movwf	(___fldiv@b+1)& (0+255),b
 11707  0021D2  0E00               	movlw	0
 11708  0021D4  6F7D               	movwf	(___fldiv@b+2)& (0+255),b
 11709  0021D6  0E00               	movlw	0
 11710  0021D8  6F7E               	movwf	(___fldiv@b+3)& (0+255),b
 11711  0021DA                     l5533:
 11712                           
 11713                           ; BSR set to: 0
 11714  0021DA  0100               	movlb	0	; () banked
 11715  0021DC  8F7D               	bsf	(___fldiv@b+2)& (0+255),7,b
 11716                           
 11717                           ; BSR set to: 0
 11718  0021DE  0E00               	movlw	0
 11719  0021E0  0100               	movlb	0	; () banked
 11720  0021E2  D008               	goto	L11
 11721  0021E4                     l5537:
 11722                           
 11723                           ; BSR set to: 0
 11724  0021E4  0E00               	movlw	0
 11725  0021E6  0100               	movlb	0	; () banked
 11726  0021E8  6F7B               	movwf	___fldiv@b& (0+255),b
 11727  0021EA  0E00               	movlw	0
 11728  0021EC  6F7C               	movwf	(___fldiv@b+1)& (0+255),b
 11729  0021EE  0E00               	movlw	0
 11730  0021F0  6F7D               	movwf	(___fldiv@b+2)& (0+255),b
 11731  0021F2  0E00               	movlw	0
 11732  0021F4                     L11:
 11733  0021F4  6F7E               	movwf	(___fldiv@b+3)& (0+255),b
 11734                           
 11735                           ; BSR set to: 0
 11736                           
 11737                           ; BSR set to: 0
 11738  0021F6  0100               	movlb	0	; () banked
 11739  0021F8  5182               	movf	(___fldiv@a+3)& (0+255),w,b
 11740  0021FA  0B80               	andlw	128
 11741  0021FC  0100               	movlb	0	; () banked
 11742  0021FE  1B87               	xorwf	___fldiv@sign& (0+255),f,b
 11743                           
 11744                           ; BSR set to: 0
 11745  002200  0100               	movlb	0	; () banked
 11746  002202  5182               	movf	(___fldiv@a+3)& (0+255),w,b
 11747  002204  2582               	addwf	(___fldiv@a+3)& (0+255),w,b
 11748  002206  0100               	movlb	0	; () banked
 11749  002208  6F93               	movwf	___fldiv@aexp& (0+255),b
 11750                           
 11751                           ; BSR set to: 0
 11752  00220A  0100               	movlb	0	; () banked
 11753  00220C  AF81               	btfss	(___fldiv@a+2)& (0+255),7,b
 11754  00220E  D002               	goto	l5547
 11755                           
 11756                           ; BSR set to: 0
 11757  002210  0100               	movlb	0	; () banked
 11758  002212  8193               	bsf	___fldiv@aexp& (0+255),0,b
 11759  002214                     l5547:
 11760                           
 11761                           ; BSR set to: 0
 11762  002214  0100               	movlb	0	; () banked
 11763  002216  5193               	movf	___fldiv@aexp& (0+255),w,b
 11764  002218  0100               	movlb	0	; () banked
 11765  00221A  B4D8               	btfsc	status,2,c
 11766  00221C  D012               	goto	l5557
 11767                           
 11768                           ; BSR set to: 0
 11769  00221E  0100               	movlb	0	; () banked
 11770  002220  2993               	incf	___fldiv@aexp& (0+255),w,b
 11771  002222  A4D8               	btfss	status,2,c
 11772  002224  D009               	goto	l5553
 11773                           
 11774                           ; BSR set to: 0
 11775  002226  0E00               	movlw	0
 11776  002228  0100               	movlb	0	; () banked
 11777  00222A  6F7F               	movwf	___fldiv@a& (0+255),b
 11778  00222C  0E00               	movlw	0
 11779  00222E  6F80               	movwf	(___fldiv@a+1)& (0+255),b
 11780  002230  0E00               	movlw	0
 11781  002232  6F81               	movwf	(___fldiv@a+2)& (0+255),b
 11782  002234  0E00               	movlw	0
 11783  002236  6F82               	movwf	(___fldiv@a+3)& (0+255),b
 11784  002238                     l5553:
 11785                           
 11786                           ; BSR set to: 0
 11787  002238  0100               	movlb	0	; () banked
 11788  00223A  8F81               	bsf	(___fldiv@a+2)& (0+255),7,b
 11789                           
 11790                           ; BSR set to: 0
 11791  00223C  0E00               	movlw	0
 11792  00223E  0100               	movlb	0	; () banked
 11793  002240  D008               	goto	L12
 11794  002242                     l5557:
 11795                           
 11796                           ; BSR set to: 0
 11797  002242  0E00               	movlw	0
 11798  002244  0100               	movlb	0	; () banked
 11799  002246  6F7F               	movwf	___fldiv@a& (0+255),b
 11800  002248  0E00               	movlw	0
 11801  00224A  6F80               	movwf	(___fldiv@a+1)& (0+255),b
 11802  00224C  0E00               	movlw	0
 11803  00224E  6F81               	movwf	(___fldiv@a+2)& (0+255),b
 11804  002250  0E00               	movlw	0
 11805  002252                     L12:
 11806  002252  6F82               	movwf	(___fldiv@a+3)& (0+255),b
 11807                           
 11808                           ; BSR set to: 0
 11809                           
 11810                           ; BSR set to: 0
 11811  002254  0100               	movlb	0	; () banked
 11812  002256  517F               	movf	___fldiv@a& (0+255),w,b
 11813  002258  0100               	movlb	0	; () banked
 11814  00225A  1180               	iorwf	(___fldiv@a+1)& (0+255),w,b
 11815  00225C  0100               	movlb	0	; () banked
 11816  00225E  1181               	iorwf	(___fldiv@a+2)& (0+255),w,b
 11817  002260  0100               	movlb	0	; () banked
 11818  002262  1182               	iorwf	(___fldiv@a+3)& (0+255),w,b
 11819  002264  A4D8               	btfss	status,2,c
 11820  002266  D017               	goto	l5569
 11821                           
 11822                           ; BSR set to: 0
 11823  002268  0E00               	movlw	0
 11824  00226A  0100               	movlb	0	; () banked
 11825  00226C  6F7B               	movwf	___fldiv@b& (0+255),b
 11826  00226E  0E00               	movlw	0
 11827  002270  6F7C               	movwf	(___fldiv@b+1)& (0+255),b
 11828  002272  0E00               	movlw	0
 11829  002274  6F7D               	movwf	(___fldiv@b+2)& (0+255),b
 11830  002276  0E00               	movlw	0
 11831  002278  6F7E               	movwf	(___fldiv@b+3)& (0+255),b
 11832                           
 11833                           ; BSR set to: 0
 11834  00227A  0100               	movlb	0	; () banked
 11835  00227C  0E80               	movlw	128
 11836  00227E  137D               	iorwf	(___fldiv@b+2)& (0+255),f,b
 11837  002280  0E7F               	movlw	127
 11838  002282  137E               	iorwf	(___fldiv@b+3)& (0+255),f,b
 11839                           
 11840                           ; BSR set to: 0
 11841  002284  C07B  F07B         	movff	___fldiv@b,?___fldiv
 11842  002288  C07C  F07C         	movff	___fldiv@b+1,?___fldiv+1
 11843  00228C  C07D  F07D         	movff	___fldiv@b+2,?___fldiv+2
 11844  002290  C07E  F07E         	movff	___fldiv@b+3,?___fldiv+3
 11845                           
 11846                           ; BSR set to: 0
 11847  002294  0012               	return	
 11848  002296                     l5569:
 11849                           
 11850                           ; BSR set to: 0
 11851  002296  0100               	movlb	0	; () banked
 11852  002298  5192               	movf	___fldiv@bexp& (0+255),w,b
 11853  00229A  0100               	movlb	0	; () banked
 11854  00229C  A4D8               	btfss	status,2,c
 11855  00229E  D012               	goto	l5577
 11856                           
 11857                           ; BSR set to: 0
 11858  0022A0  0E00               	movlw	0
 11859  0022A2  0100               	movlb	0	; () banked
 11860  0022A4  6F7B               	movwf	___fldiv@b& (0+255),b
 11861  0022A6  0E00               	movlw	0
 11862  0022A8  6F7C               	movwf	(___fldiv@b+1)& (0+255),b
 11863  0022AA  0E00               	movlw	0
 11864  0022AC  6F7D               	movwf	(___fldiv@b+2)& (0+255),b
 11865  0022AE  0E00               	movlw	0
 11866  0022B0  6F7E               	movwf	(___fldiv@b+3)& (0+255),b
 11867                           
 11868                           ; BSR set to: 0
 11869  0022B2  C07B  F07B         	movff	___fldiv@b,?___fldiv
 11870  0022B6  C07C  F07C         	movff	___fldiv@b+1,?___fldiv+1
 11871  0022BA  C07D  F07D         	movff	___fldiv@b+2,?___fldiv+2
 11872  0022BE  C07E  F07E         	movff	___fldiv@b+3,?___fldiv+3
 11873                           
 11874                           ; BSR set to: 0
 11875  0022C2  0012               	return	
 11876  0022C4                     l5577:
 11877                           
 11878                           ; BSR set to: 0
 11879  0022C4  0100               	movlb	0	; () banked
 11880  0022C6  5193               	movf	___fldiv@aexp& (0+255),w,b
 11881  0022C8  0100               	movlb	0	; () banked
 11882  0022CA  6F83               	movwf	??___fldiv& (0+255),b
 11883  0022CC  6B84               	clrf	(??___fldiv+1)& (0+255),b
 11884  0022CE  0100               	movlb	0	; () banked
 11885  0022D0  1F83               	comf	??___fldiv& (0+255),f,b
 11886  0022D2  1F84               	comf	(??___fldiv+1)& (0+255),f,b
 11887  0022D4  4B83               	infsnz	??___fldiv& (0+255),f,b
 11888  0022D6  2B84               	incf	(??___fldiv+1)& (0+255),f,b
 11889  0022D8  0100               	movlb	0	; () banked
 11890  0022DA  5192               	movf	___fldiv@bexp& (0+255),w,b
 11891  0022DC  0100               	movlb	0	; () banked
 11892  0022DE  6F85               	movwf	(??___fldiv+2)& (0+255),b
 11893  0022E0  6B86               	clrf	(??___fldiv+3)& (0+255),b
 11894  0022E2  0100               	movlb	0	; () banked
 11895  0022E4  5183               	movf	??___fldiv& (0+255),w,b
 11896  0022E6  0100               	movlb	0	; () banked
 11897  0022E8  2785               	addwf	(??___fldiv+2)& (0+255),f,b
 11898  0022EA  0100               	movlb	0	; () banked
 11899  0022EC  5184               	movf	(??___fldiv+1)& (0+255),w,b
 11900  0022EE  0100               	movlb	0	; () banked
 11901  0022F0  2386               	addwfc	(??___fldiv+3)& (0+255),f,b
 11902  0022F2  0E7F               	movlw	127
 11903  0022F4  0100               	movlb	0	; () banked
 11904  0022F6  2585               	addwf	(??___fldiv+2)& (0+255),w,b
 11905  0022F8  0100               	movlb	0	; () banked
 11906  0022FA  6F8C               	movwf	___fldiv@new_exp& (0+255),b
 11907  0022FC  0E00               	movlw	0
 11908  0022FE  0100               	movlb	0	; () banked
 11909  002300  2186               	addwfc	(??___fldiv+3)& (0+255),w,b
 11910  002302  0100               	movlb	0	; () banked
 11911  002304  6F8D               	movwf	(___fldiv@new_exp+1)& (0+255),b
 11912                           
 11913                           ; BSR set to: 0
 11914  002306  C07B  F088         	movff	___fldiv@b,___fldiv@rem
 11915  00230A  C07C  F089         	movff	___fldiv@b+1,___fldiv@rem+1
 11916  00230E  C07D  F08A         	movff	___fldiv@b+2,___fldiv@rem+2
 11917  002312  C07E  F08B         	movff	___fldiv@b+3,___fldiv@rem+3
 11918                           
 11919                           ; BSR set to: 0
 11920  002316  0E00               	movlw	0
 11921  002318  0100               	movlb	0	; () banked
 11922  00231A  6F7B               	movwf	___fldiv@b& (0+255),b
 11923  00231C  0E00               	movlw	0
 11924  00231E  6F7C               	movwf	(___fldiv@b+1)& (0+255),b
 11925  002320  0E00               	movlw	0
 11926  002322  6F7D               	movwf	(___fldiv@b+2)& (0+255),b
 11927  002324  0E00               	movlw	0
 11928  002326  6F7E               	movwf	(___fldiv@b+3)& (0+255),b
 11929                           
 11930                           ; BSR set to: 0
 11931  002328  0E00               	movlw	0
 11932  00232A  0100               	movlb	0	; () banked
 11933  00232C  6F8E               	movwf	___fldiv@grs& (0+255),b
 11934  00232E  0E00               	movlw	0
 11935  002330  6F8F               	movwf	(___fldiv@grs+1)& (0+255),b
 11936  002332  0E00               	movlw	0
 11937  002334  6F90               	movwf	(___fldiv@grs+2)& (0+255),b
 11938  002336  0E00               	movlw	0
 11939  002338  6F91               	movwf	(___fldiv@grs+3)& (0+255),b
 11940                           
 11941                           ; BSR set to: 0
 11942  00233A  0E00               	movlw	0
 11943  00233C  0100               	movlb	0	; () banked
 11944  00233E  6F93               	movwf	___fldiv@aexp& (0+255),b
 11945  002340  D042               	goto	l955
 11946  002342                     l5587:
 11947                           
 11948                           ; BSR set to: 0
 11949  002342  0100               	movlb	0	; () banked
 11950  002344  5193               	movf	___fldiv@aexp& (0+255),w,b
 11951  002346  0100               	movlb	0	; () banked
 11952  002348  B4D8               	btfsc	status,2,c
 11953  00234A  D017               	goto	l5595
 11954                           
 11955                           ; BSR set to: 0
 11956  00234C  0100               	movlb	0	; () banked
 11957  00234E  90D8               	bcf	status,0,c
 11958  002350  3788               	rlcf	___fldiv@rem& (0+255),f,b
 11959  002352  3789               	rlcf	(___fldiv@rem+1)& (0+255),f,b
 11960  002354  378A               	rlcf	(___fldiv@rem+2)& (0+255),f,b
 11961  002356  378B               	rlcf	(___fldiv@rem+3)& (0+255),f,b
 11962  002358  0100               	movlb	0	; () banked
 11963  00235A  90D8               	bcf	status,0,c
 11964  00235C  377B               	rlcf	___fldiv@b& (0+255),f,b
 11965  00235E  377C               	rlcf	(___fldiv@b+1)& (0+255),f,b
 11966  002360  377D               	rlcf	(___fldiv@b+2)& (0+255),f,b
 11967  002362  377E               	rlcf	(___fldiv@b+3)& (0+255),f,b
 11968                           
 11969                           ; BSR set to: 0
 11970  002364  0100               	movlb	0	; () banked
 11971  002366  AF91               	btfss	(___fldiv@grs+3)& (0+255),7,b
 11972  002368  D002               	goto	l958
 11973                           
 11974                           ; BSR set to: 0
 11975  00236A  0100               	movlb	0	; () banked
 11976  00236C  817B               	bsf	___fldiv@b& (0+255),0,b
 11977  00236E                     l958:
 11978                           
 11979                           ; BSR set to: 0
 11980  00236E  0100               	movlb	0	; () banked
 11981  002370  90D8               	bcf	status,0,c
 11982  002372  378E               	rlcf	___fldiv@grs& (0+255),f,b
 11983  002374  378F               	rlcf	(___fldiv@grs+1)& (0+255),f,b
 11984  002376  3790               	rlcf	(___fldiv@grs+2)& (0+255),f,b
 11985  002378  3791               	rlcf	(___fldiv@grs+3)& (0+255),f,b
 11986  00237A                     l5595:
 11987                           
 11988                           ; BSR set to: 0
 11989  00237A  0100               	movlb	0	; () banked
 11990  00237C  517F               	movf	___fldiv@a& (0+255),w,b
 11991  00237E  0100               	movlb	0	; () banked
 11992  002380  5D88               	subwf	___fldiv@rem& (0+255),w,b
 11993  002382  0100               	movlb	0	; () banked
 11994  002384  5180               	movf	(___fldiv@a+1)& (0+255),w,b
 11995  002386  0100               	movlb	0	; () banked
 11996  002388  5989               	subwfb	(___fldiv@rem+1)& (0+255),w,b
 11997  00238A  0100               	movlb	0	; () banked
 11998  00238C  5181               	movf	(___fldiv@a+2)& (0+255),w,b
 11999  00238E  0100               	movlb	0	; () banked
 12000  002390  598A               	subwfb	(___fldiv@rem+2)& (0+255),w,b
 12001  002392  0100               	movlb	0	; () banked
 12002  002394  5182               	movf	(___fldiv@a+3)& (0+255),w,b
 12003  002396  0100               	movlb	0	; () banked
 12004  002398  598B               	subwfb	(___fldiv@rem+3)& (0+255),w,b
 12005  00239A  A0D8               	btfss	status,0,c
 12006  00239C  D012               	goto	l5601
 12007                           
 12008                           ; BSR set to: 0
 12009  00239E  0100               	movlb	0	; () banked
 12010  0023A0  8D91               	bsf	(___fldiv@grs+3)& (0+255),6,b
 12011                           
 12012                           ; BSR set to: 0
 12013  0023A2  0100               	movlb	0	; () banked
 12014  0023A4  517F               	movf	___fldiv@a& (0+255),w,b
 12015  0023A6  0100               	movlb	0	; () banked
 12016  0023A8  5F88               	subwf	___fldiv@rem& (0+255),f,b
 12017  0023AA  0100               	movlb	0	; () banked
 12018  0023AC  5180               	movf	(___fldiv@a+1)& (0+255),w,b
 12019  0023AE  0100               	movlb	0	; () banked
 12020  0023B0  5B89               	subwfb	(___fldiv@rem+1)& (0+255),f,b
 12021  0023B2  0100               	movlb	0	; () banked
 12022  0023B4  5181               	movf	(___fldiv@a+2)& (0+255),w,b
 12023  0023B6  0100               	movlb	0	; () banked
 12024  0023B8  5B8A               	subwfb	(___fldiv@rem+2)& (0+255),f,b
 12025  0023BA  0100               	movlb	0	; () banked
 12026  0023BC  5182               	movf	(___fldiv@a+3)& (0+255),w,b
 12027  0023BE  0100               	movlb	0	; () banked
 12028  0023C0  5B8B               	subwfb	(___fldiv@rem+3)& (0+255),f,b
 12029  0023C2                     l5601:
 12030                           
 12031                           ; BSR set to: 0
 12032  0023C2  0100               	movlb	0	; () banked
 12033  0023C4  2B93               	incf	___fldiv@aexp& (0+255),f,b
 12034  0023C6                     l955:
 12035                           
 12036                           ; BSR set to: 0
 12037  0023C6  0E19               	movlw	25
 12038  0023C8  0100               	movlb	0	; () banked
 12039  0023CA  6593               	cpfsgt	___fldiv@aexp& (0+255),b
 12040  0023CC  D7BA               	goto	l5587
 12041                           
 12042                           ; BSR set to: 0
 12043                           
 12044                           ; BSR set to: 0
 12045  0023CE  0100               	movlb	0	; () banked
 12046  0023D0  5188               	movf	___fldiv@rem& (0+255),w,b
 12047  0023D2  0100               	movlb	0	; () banked
 12048  0023D4  1189               	iorwf	(___fldiv@rem+1)& (0+255),w,b
 12049  0023D6  0100               	movlb	0	; () banked
 12050  0023D8  118A               	iorwf	(___fldiv@rem+2)& (0+255),w,b
 12051  0023DA  0100               	movlb	0	; () banked
 12052  0023DC  118B               	iorwf	(___fldiv@rem+3)& (0+255),w,b
 12053  0023DE  B4D8               	btfsc	status,2,c
 12054  0023E0  D018               	goto	l5613
 12055                           
 12056                           ; BSR set to: 0
 12057  0023E2  0100               	movlb	0	; () banked
 12058  0023E4  818E               	bsf	___fldiv@grs& (0+255),0,b
 12059                           
 12060                           ; BSR set to: 0
 12061  0023E6  D015               	goto	l5613
 12062  0023E8                     l5607:
 12063                           
 12064                           ; BSR set to: 0
 12065  0023E8  0100               	movlb	0	; () banked
 12066  0023EA  90D8               	bcf	status,0,c
 12067  0023EC  377B               	rlcf	___fldiv@b& (0+255),f,b
 12068  0023EE  377C               	rlcf	(___fldiv@b+1)& (0+255),f,b
 12069  0023F0  377D               	rlcf	(___fldiv@b+2)& (0+255),f,b
 12070  0023F2  377E               	rlcf	(___fldiv@b+3)& (0+255),f,b
 12071                           
 12072                           ; BSR set to: 0
 12073  0023F4  0100               	movlb	0	; () banked
 12074  0023F6  AF91               	btfss	(___fldiv@grs+3)& (0+255),7,b
 12075  0023F8  D002               	goto	l964
 12076                           
 12077                           ; BSR set to: 0
 12078  0023FA  0100               	movlb	0	; () banked
 12079  0023FC  817B               	bsf	___fldiv@b& (0+255),0,b
 12080  0023FE                     l964:
 12081                           
 12082                           ; BSR set to: 0
 12083  0023FE  0100               	movlb	0	; () banked
 12084  002400  90D8               	bcf	status,0,c
 12085  002402  378E               	rlcf	___fldiv@grs& (0+255),f,b
 12086  002404  378F               	rlcf	(___fldiv@grs+1)& (0+255),f,b
 12087  002406  3790               	rlcf	(___fldiv@grs+2)& (0+255),f,b
 12088  002408  3791               	rlcf	(___fldiv@grs+3)& (0+255),f,b
 12089  00240A  0100               	movlb	0	; () banked
 12090  00240C  078C               	decf	___fldiv@new_exp& (0+255),f,b
 12091  00240E  A0D8               	btfss	status,0,c
 12092  002410  078D               	decf	(___fldiv@new_exp+1)& (0+255),f,b
 12093  002412                     l5613:
 12094                           
 12095                           ; BSR set to: 0
 12096  002412  0100               	movlb	0	; () banked
 12097  002414  AF7D               	btfss	(___fldiv@b+2)& (0+255),7,b
 12098  002416  D7E8               	goto	l5607
 12099                           
 12100                           ; BSR set to: 0
 12101                           
 12102                           ; BSR set to: 0
 12103  002418  0E00               	movlw	0
 12104  00241A  0100               	movlb	0	; () banked
 12105  00241C  6F93               	movwf	___fldiv@aexp& (0+255),b
 12106                           
 12107                           ; BSR set to: 0
 12108  00241E  0100               	movlb	0	; () banked
 12109  002420  AF91               	btfss	(___fldiv@grs+3)& (0+255),7,b
 12110  002422  D024               	goto	l966
 12111                           
 12112                           ; BSR set to: 0
 12113  002424  0EFF               	movlw	255
 12114  002426  0100               	movlb	0	; () banked
 12115  002428  158E               	andwf	___fldiv@grs& (0+255),w,b
 12116  00242A  0100               	movlb	0	; () banked
 12117  00242C  6F83               	movwf	??___fldiv& (0+255),b
 12118  00242E  0EFF               	movlw	255
 12119  002430  0100               	movlb	0	; () banked
 12120  002432  158F               	andwf	(___fldiv@grs+1)& (0+255),w,b
 12121  002434  0100               	movlb	0	; () banked
 12122  002436  6F84               	movwf	(??___fldiv+1)& (0+255),b
 12123  002438  0EFF               	movlw	255
 12124  00243A  0100               	movlb	0	; () banked
 12125  00243C  1590               	andwf	(___fldiv@grs+2)& (0+255),w,b
 12126  00243E  0100               	movlb	0	; () banked
 12127  002440  6F85               	movwf	(??___fldiv+2)& (0+255),b
 12128  002442  0E7F               	movlw	127
 12129  002444  0100               	movlb	0	; () banked
 12130  002446  1591               	andwf	(___fldiv@grs+3)& (0+255),w,b
 12131  002448  0100               	movlb	0	; () banked
 12132  00244A  6F86               	movwf	(??___fldiv+3)& (0+255),b
 12133  00244C  0100               	movlb	0	; () banked
 12134  00244E  5183               	movf	??___fldiv& (0+255),w,b
 12135  002450  0100               	movlb	0	; () banked
 12136  002452  1184               	iorwf	(??___fldiv+1)& (0+255),w,b
 12137  002454  0100               	movlb	0	; () banked
 12138  002456  1185               	iorwf	(??___fldiv+2)& (0+255),w,b
 12139  002458  0100               	movlb	0	; () banked
 12140  00245A  1186               	iorwf	(??___fldiv+3)& (0+255),w,b
 12141  00245C  A4D8               	btfss	status,2,c
 12142  00245E  D003               	goto	l5623
 12143                           
 12144                           ; BSR set to: 0
 12145                           
 12146                           ; BSR set to: 0
 12147  002460  0100               	movlb	0	; () banked
 12148  002462  A17B               	btfss	___fldiv@b& (0+255),0,b
 12149  002464  D003               	goto	l966
 12150  002466                     l5623:
 12151                           
 12152                           ; BSR set to: 0
 12153  002466  0E01               	movlw	1
 12154  002468  0100               	movlb	0	; () banked
 12155  00246A  6F93               	movwf	___fldiv@aexp& (0+255),b
 12156  00246C                     l966:
 12157                           
 12158                           ; BSR set to: 0
 12159  00246C  0100               	movlb	0	; () banked
 12160  00246E  5193               	movf	___fldiv@aexp& (0+255),w,b
 12161  002470  0100               	movlb	0	; () banked
 12162  002472  B4D8               	btfsc	status,2,c
 12163  002474  D023               	goto	l5633
 12164                           
 12165                           ; BSR set to: 0
 12166  002476  0E01               	movlw	1
 12167  002478  0100               	movlb	0	; () banked
 12168  00247A  277B               	addwf	___fldiv@b& (0+255),f,b
 12169  00247C  0E00               	movlw	0
 12170  00247E  237C               	addwfc	(___fldiv@b+1)& (0+255),f,b
 12171  002480  237D               	addwfc	(___fldiv@b+2)& (0+255),f,b
 12172  002482  237E               	addwfc	(___fldiv@b+3)& (0+255),f,b
 12173                           
 12174                           ; BSR set to: 0
 12175  002484  0100               	movlb	0	; () banked
 12176  002486  A17E               	btfss	(___fldiv@b+3)& (0+255),0,b
 12177  002488  D019               	goto	l5633
 12178                           
 12179                           ; BSR set to: 0
 12180  00248A  C07B  F083         	movff	___fldiv@b,??___fldiv
 12181  00248E  C07C  F084         	movff	___fldiv@b+1,??___fldiv+1
 12182  002492  C07D  F085         	movff	___fldiv@b+2,??___fldiv+2
 12183  002496  C07E  F086         	movff	___fldiv@b+3,??___fldiv+3
 12184  00249A  0100               	movlb	0	; () banked
 12185  00249C  3586               	rlcf	(??___fldiv+3)& (0+255),w,b
 12186  00249E  3386               	rrcf	(??___fldiv+3)& (0+255),f,b
 12187  0024A0  3385               	rrcf	(??___fldiv+2)& (0+255),f,b
 12188  0024A2  3384               	rrcf	(??___fldiv+1)& (0+255),f,b
 12189  0024A4  3383               	rrcf	??___fldiv& (0+255),f,b
 12190  0024A6  C083  F07B         	movff	??___fldiv,___fldiv@b
 12191  0024AA  C084  F07C         	movff	??___fldiv+1,___fldiv@b+1
 12192  0024AE  C085  F07D         	movff	??___fldiv+2,___fldiv@b+2
 12193  0024B2  C086  F07E         	movff	??___fldiv+3,___fldiv@b+3
 12194                           
 12195                           ; BSR set to: 0
 12196  0024B6  0100               	movlb	0	; () banked
 12197  0024B8  4B8C               	infsnz	___fldiv@new_exp& (0+255),f,b
 12198  0024BA  2B8D               	incf	(___fldiv@new_exp+1)& (0+255),f,b
 12199  0024BC                     l5633:
 12200                           
 12201                           ; BSR set to: 0
 12202  0024BC  0100               	movlb	0	; () banked
 12203  0024BE  BF8D               	btfsc	(___fldiv@new_exp+1)& (0+255),7,b
 12204  0024C0  D014               	goto	l5637
 12205  0024C2  0100               	movlb	0	; () banked
 12206  0024C4  518D               	movf	(___fldiv@new_exp+1)& (0+255),w,b
 12207  0024C6  E104               	bnz	u6290
 12208  0024C8  0100               	movlb	0	; () banked
 12209  0024CA  298C               	incf	___fldiv@new_exp& (0+255),w,b
 12210  0024CC  A0D8               	btfss	status,0,c
 12211  0024CE  D00D               	goto	l5637
 12212  0024D0                     u6290:
 12213                           
 12214                           ; BSR set to: 0
 12215  0024D0  0E00               	movlw	0
 12216  0024D2  0100               	movlb	0	; () banked
 12217  0024D4  6F8D               	movwf	(___fldiv@new_exp+1)& (0+255),b
 12218  0024D6  698C               	setf	___fldiv@new_exp& (0+255),b
 12219  0024D8  0E00               	movlw	0
 12220  0024DA  0100               	movlb	0	; () banked
 12221  0024DC  6F7B               	movwf	___fldiv@b& (0+255),b
 12222  0024DE  0E00               	movlw	0
 12223  0024E0  6F7C               	movwf	(___fldiv@b+1)& (0+255),b
 12224  0024E2  0E00               	movlw	0
 12225  0024E4  6F7D               	movwf	(___fldiv@b+2)& (0+255),b
 12226  0024E6  0E00               	movlw	0
 12227  0024E8  6F7E               	movwf	(___fldiv@b+3)& (0+255),b
 12228  0024EA                     l5637:
 12229                           
 12230                           ; BSR set to: 0
 12231  0024EA  0100               	movlb	0	; () banked
 12232  0024EC  BF8D               	btfsc	(___fldiv@new_exp+1)& (0+255),7,b
 12233  0024EE  D007               	goto	l5639
 12234  0024F0  0100               	movlb	0	; () banked
 12235  0024F2  518D               	movf	(___fldiv@new_exp+1)& (0+255),w,b
 12236  0024F4  E115               	bnz	l5641
 12237  0024F6  0100               	movlb	0	; () banked
 12238  0024F8  058C               	decf	___fldiv@new_exp& (0+255),w,b
 12239  0024FA  B0D8               	btfsc	status,0,c
 12240  0024FC  D011               	goto	l5641
 12241  0024FE                     l5639:
 12242                           
 12243                           ; BSR set to: 0
 12244  0024FE  0E00               	movlw	0
 12245  002500  0100               	movlb	0	; () banked
 12246  002502  6F8D               	movwf	(___fldiv@new_exp+1)& (0+255),b
 12247  002504  0E00               	movlw	0
 12248  002506  6F8C               	movwf	___fldiv@new_exp& (0+255),b
 12249  002508  0E00               	movlw	0
 12250  00250A  0100               	movlb	0	; () banked
 12251  00250C  6F7B               	movwf	___fldiv@b& (0+255),b
 12252  00250E  0E00               	movlw	0
 12253  002510  6F7C               	movwf	(___fldiv@b+1)& (0+255),b
 12254  002512  0E00               	movlw	0
 12255  002514  6F7D               	movwf	(___fldiv@b+2)& (0+255),b
 12256  002516  0E00               	movlw	0
 12257  002518  6F7E               	movwf	(___fldiv@b+3)& (0+255),b
 12258  00251A  0E00               	movlw	0
 12259  00251C  0100               	movlb	0	; () banked
 12260  00251E  6F87               	movwf	___fldiv@sign& (0+255),b
 12261  002520                     l5641:
 12262                           
 12263                           ; BSR set to: 0
 12264  002520  C08C  F092         	movff	___fldiv@new_exp,___fldiv@bexp
 12265                           
 12266                           ; BSR set to: 0
 12267  002524  0100               	movlb	0	; () banked
 12268  002526  A192               	btfss	___fldiv@bexp& (0+255),0,b
 12269  002528  D003               	goto	l5647
 12270                           
 12271                           ; BSR set to: 0
 12272  00252A  0100               	movlb	0	; () banked
 12273  00252C  8F7D               	bsf	(___fldiv@b+2)& (0+255),7,b
 12274  00252E  D002               	goto	l5649
 12275  002530                     l5647:
 12276                           
 12277                           ; BSR set to: 0
 12278  002530  0100               	movlb	0	; () banked
 12279  002532  9F7D               	bcf	(___fldiv@b+2)& (0+255),7,b
 12280  002534                     l5649:
 12281                           
 12282                           ; BSR set to: 0
 12283  002534  0100               	movlb	0	; () banked
 12284  002536  90D8               	bcf	status,0,c
 12285  002538  3192               	rrcf	___fldiv@bexp& (0+255),w,b
 12286  00253A  0100               	movlb	0	; () banked
 12287  00253C  6F7E               	movwf	(___fldiv@b+3)& (0+255),b
 12288                           
 12289                           ; BSR set to: 0
 12290  00253E  0100               	movlb	0	; () banked
 12291  002540  5187               	movf	___fldiv@sign& (0+255),w,b
 12292  002542  0100               	movlb	0	; () banked
 12293  002544  137E               	iorwf	(___fldiv@b+3)& (0+255),f,b
 12294                           
 12295                           ; BSR set to: 0
 12296  002546  C07B  F07B         	movff	___fldiv@b,?___fldiv
 12297  00254A  C07C  F07C         	movff	___fldiv@b+1,?___fldiv+1
 12298  00254E  C07D  F07D         	movff	___fldiv@b+2,?___fldiv+2
 12299  002552  C07E  F07E         	movff	___fldiv@b+3,?___fldiv+3
 12300  002556  0012               	return	
 12301  002558                     __end_of___fldiv:
 12302                           	opt stack 0
 12303                           tblptru	equ	0xFF8
 12304                           tblptrh	equ	0xFF7
 12305                           tblptrl	equ	0xFF6
 12306                           tablat	equ	0xFF5
 12307                           prodh	equ	0xFF4
 12308                           prodl	equ	0xFF3
 12309                           intcon	equ	0xFF2
 12310                           postinc0	equ	0xFEE
 12311                           wreg	equ	0xFE8
 12312                           indf1	equ	0xFE7
 12313                           postdec1	equ	0xFE5
 12314                           plusw1	equ	0xFE3
 12315                           fsr1h	equ	0xFE2
 12316                           fsr1l	equ	0xFE1
 12317                           indf2	equ	0xFDF
 12318                           postinc2	equ	0xFDE
 12319                           postdec2	equ	0xFDD
 12320                           plusw2	equ	0xFDB
 12321                           fsr2h	equ	0xFDA
 12322                           fsr2l	equ	0xFD9
 12323                           status	equ	0xFD8
 12324                           
 12325 ;; *************** function _LCD_write_string *****************
 12326 ;; Defined at:
 12327 ;;		line 194 in file "C:/Users/simon/Desktop/LaurTec_PIC_libraries_v_3.3.1 - Copia/src\LCD_44780.c"
 12328 ;; Parameters:    Size  Location     Type
 12329 ;;  buffer          2   16[BANK0 ] PTR unsigned char 
 12330 ;;		 -> str(8), LCD_write_integer@convertedInt(6), 
 12331 ;; Auto vars:     Size  Location     Type
 12332 ;;		None
 12333 ;; Return value:  Size  Location     Type
 12334 ;;                  1    wreg      void 
 12335 ;; Registers used:
 12336 ;;		wreg, fsr2l, fsr2h, status,2, status,0, prodl, prodh, cstack
 12337 ;; Tracked objects:
 12338 ;;		On entry : 0/0
 12339 ;;		On exit  : 0/0
 12340 ;;		Unchanged: 0/0
 12341 ;; Data sizes:     COMRAM   BANK0   BANK1   BANK2   BANK3   BANK4   BANK5   BANK6   BANK7
 12342 ;;      Params:         0       2       0       0       0       0       0       0       0
 12343 ;;      Locals:         0       0       0       0       0       0       0       0       0
 12344 ;;      Temps:          0       0       0       0       0       0       0       0       0
 12345 ;;      Totals:         0       2       0       0       0       0       0       0       0
 12346 ;;Total ram usage:        2 bytes
 12347 ;; Hardware stack levels used:    1
 12348 ;; Hardware stack levels required when called:    7
 12349 ;; This function calls:
 12350 ;;		_LCD_write_char
 12351 ;; This function is called by:
 12352 ;;		_LCD_write_integer
 12353 ;;		_main
 12354 ;;		_display_voltage
 12355 ;; This function uses a non-reentrant model
 12356 ;;
 12357                           
 12358                           	psect	text32
 12359  0044BA                     __ptext32:
 12360                           	opt stack 0
 12361  0044BA                     _LCD_write_string:
 12362                           	opt stack 21
 12363                           
 12364                           ;src\LCD_44780.c: 197: while(*buffer){
 12365                           
 12366                           ; BSR set to: 0
 12367                           ;incstack = 0
 12368  0044BA  D00A               	goto	l5823
 12369  0044BC                     l5819:
 12370                           
 12371                           ;src\LCD_44780.c: 200: LCD_write_char(*buffer);
 12372  0044BC  C070  FFD9         	movff	LCD_write_string@buffer,fsr2l
 12373  0044C0  C071  FFDA         	movff	LCD_write_string@buffer+1,fsr2h
 12374  0044C4  50DF               	movf	indf2,w,c
 12375  0044C6  EC51  F01F         	call	_LCD_write_char
 12376                           
 12377                           ;src\LCD_44780.c: 202: buffer++;
 12378  0044CA  0100               	movlb	0	; () banked
 12379  0044CC  4B70               	infsnz	LCD_write_string@buffer& (0+255),f,b
 12380  0044CE  2B71               	incf	(LCD_write_string@buffer+1)& (0+255),f,b
 12381  0044D0                     l5823:
 12382  0044D0  C070  FFD9         	movff	LCD_write_string@buffer,fsr2l
 12383  0044D4  C071  FFDA         	movff	LCD_write_string@buffer+1,fsr2h
 12384  0044D8  50DF               	movf	indf2,w,c
 12385  0044DA  B4D8               	btfsc	status,2,c
 12386  0044DC  0012               	return	
 12387  0044DE  D7EE               	goto	l5819
 12388  0044E0                     __end_of_LCD_write_string:
 12389                           	opt stack 0
 12390                           tblptru	equ	0xFF8
 12391                           tblptrh	equ	0xFF7
 12392                           tblptrl	equ	0xFF6
 12393                           tablat	equ	0xFF5
 12394                           prodh	equ	0xFF4
 12395                           prodl	equ	0xFF3
 12396                           intcon	equ	0xFF2
 12397                           postinc0	equ	0xFEE
 12398                           wreg	equ	0xFE8
 12399                           indf1	equ	0xFE7
 12400                           postdec1	equ	0xFE5
 12401                           plusw1	equ	0xFE3
 12402                           fsr1h	equ	0xFE2
 12403                           fsr1l	equ	0xFE1
 12404                           indf2	equ	0xFDF
 12405                           postinc2	equ	0xFDE
 12406                           postdec2	equ	0xFDD
 12407                           plusw2	equ	0xFDB
 12408                           fsr2h	equ	0xFDA
 12409                           fsr2l	equ	0xFD9
 12410                           status	equ	0xFD8
 12411                           
 12412 ;; *************** function _delay_s *****************
 12413 ;; Defined at:
 12414 ;;		line 102 in file "C:/Users/simon/Desktop/LaurTec_PIC_libraries_v_3.3.1 - Copia/src\delay.c"
 12415 ;; Parameters:    Size  Location     Type
 12416 ;;  value_s         1    wreg     unsigned char 
 12417 ;; Auto vars:     Size  Location     Type
 12418 ;;  value_s         1    8[BANK0 ] unsigned char 
 12419 ;;  repeat_loop     1    9[BANK0 ] unsigned char 
 12420 ;; Return value:  Size  Location     Type
 12421 ;;                  1    wreg      void 
 12422 ;; Registers used:
 12423 ;;		wreg, status,2, status,0, prodl, prodh, cstack
 12424 ;; Tracked objects:
 12425 ;;		On entry : 0/0
 12426 ;;		On exit  : 0/0
 12427 ;;		Unchanged: 0/0
 12428 ;; Data sizes:     COMRAM   BANK0   BANK1   BANK2   BANK3   BANK4   BANK5   BANK6   BANK7
 12429 ;;      Params:         0       0       0       0       0       0       0       0       0
 12430 ;;      Locals:         0       2       0       0       0       0       0       0       0
 12431 ;;      Temps:          0       0       0       0       0       0       0       0       0
 12432 ;;      Totals:         0       2       0       0       0       0       0       0       0
 12433 ;;Total ram usage:        2 bytes
 12434 ;; Hardware stack levels used:    1
 12435 ;; Hardware stack levels required when called:    4
 12436 ;; This function calls:
 12437 ;;		_delay_ms
 12438 ;; This function is called by:
 12439 ;;		_main
 12440 ;;		_ricarica
 12441 ;;		_stabilizzazione
 12442 ;; This function uses a non-reentrant model
 12443 ;;
 12444                           
 12445                           	psect	text33
 12446  00443A                     __ptext33:
 12447                           	opt stack 0
 12448  00443A                     _delay_s:
 12449                           	opt stack 25
 12450                           
 12451                           ;incstack = 0
 12452                           ;delay_s@value_s stored from wreg
 12453  00443A  0100               	movlb	0	; () banked
 12454  00443C  6F68               	movwf	delay_s@value_s& (0+255),b
 12455                           
 12456                           ;src\delay.c: 104: unsigned char repeat_loop;
 12457                           ;src\delay.c: 106: for (repeat_loop = 0; repeat_loop < value_s; repeat_loop++)
 12458  00443E  0E00               	movlw	0
 12459  004440  0100               	movlb	0	; () banked
 12460  004442  6F69               	movwf	delay_s@repeat_loop& (0+255),b
 12461  004444  D009               	goto	l6201
 12462  004446                     l6197:
 12463                           
 12464                           ; BSR set to: 0
 12465                           ;src\delay.c: 107: delay_ms (1000);
 12466  004446  0E03               	movlw	3
 12467  004448  0100               	movlb	0	; () banked
 12468  00444A  6F67               	movwf	(delay_ms@value_ms+1)& (0+255),b
 12469  00444C  0EE8               	movlw	232
 12470  00444E  6F66               	movwf	delay_ms@value_ms& (0+255),b
 12471  004450  EC63  F021         	call	_delay_ms	;wreg free
 12472  004454  0100               	movlb	0	; () banked
 12473  004456  2B69               	incf	delay_s@repeat_loop& (0+255),f,b
 12474  004458                     l6201:
 12475                           
 12476                           ; BSR set to: 0
 12477  004458  0100               	movlb	0	; () banked
 12478  00445A  5168               	movf	delay_s@value_s& (0+255),w,b
 12479  00445C  0100               	movlb	0	; () banked
 12480  00445E  5D69               	subwf	delay_s@repeat_loop& (0+255),w,b
 12481  004460  B0D8               	btfsc	status,0,c
 12482  004462  0012               	return	
 12483  004464  D7F0               	goto	l6197
 12484  004466                     __end_of_delay_s:
 12485                           	opt stack 0
 12486                           tblptru	equ	0xFF8
 12487                           tblptrh	equ	0xFF7
 12488                           tblptrl	equ	0xFF6
 12489                           tablat	equ	0xFF5
 12490                           prodh	equ	0xFF4
 12491                           prodl	equ	0xFF3
 12492                           intcon	equ	0xFF2
 12493                           postinc0	equ	0xFEE
 12494                           wreg	equ	0xFE8
 12495                           indf1	equ	0xFE7
 12496                           postdec1	equ	0xFE5
 12497                           plusw1	equ	0xFE3
 12498                           fsr1h	equ	0xFE2
 12499                           fsr1l	equ	0xFE1
 12500                           indf2	equ	0xFDF
 12501                           postinc2	equ	0xFDE
 12502                           postdec2	equ	0xFDD
 12503                           plusw2	equ	0xFDB
 12504                           fsr2h	equ	0xFDA
 12505                           fsr2l	equ	0xFD9
 12506                           status	equ	0xFD8
 12507                           
 12508 ;; *************** function _LCD_write_message *****************
 12509 ;; Defined at:
 12510 ;;		line 178 in file "C:/Users/simon/Desktop/LaurTec_PIC_libraries_v_3.3.1 - Copia/src\LCD_44780.c"
 12511 ;; Parameters:    Size  Location     Type
 12512 ;;  buffer          2   16[BANK0 ] PTR const unsigned char 
 12513 ;;		 -> STR_25(2), STR_24(2), STR_23(7), STR_22(21), 
 12514 ;;		 -> STR_21(17), STR_20(21), STR_19(21), STR_18(17), 
 12515 ;;		 -> STR_17(21), STR_16(2), STR_14(21), STR_12(11), 
 12516 ;;		 -> STR_11(17), STR_10(9), STR_9(2), STR_8(8), 
 12517 ;;		 -> STR_7(21), STR_6(21), STR_5(21), STR_4(20), 
 12518 ;;		 -> STR_3(3), STR_2(10), STR_1(21), 
 12519 ;; Auto vars:     Size  Location     Type
 12520 ;;		None
 12521 ;; Return value:  Size  Location     Type
 12522 ;;                  1    wreg      void 
 12523 ;; Registers used:
 12524 ;;		wreg, status,2, status,0, tblptrl, tblptrh, tblptru, prodl, prodh, cstack
 12525 ;; Tracked objects:
 12526 ;;		On entry : 0/0
 12527 ;;		On exit  : 0/0
 12528 ;;		Unchanged: 0/0
 12529 ;; Data sizes:     COMRAM   BANK0   BANK1   BANK2   BANK3   BANK4   BANK5   BANK6   BANK7
 12530 ;;      Params:         0       2       0       0       0       0       0       0       0
 12531 ;;      Locals:         0       0       0       0       0       0       0       0       0
 12532 ;;      Temps:          0       0       0       0       0       0       0       0       0
 12533 ;;      Totals:         0       2       0       0       0       0       0       0       0
 12534 ;;Total ram usage:        2 bytes
 12535 ;; Hardware stack levels used:    1
 12536 ;; Hardware stack levels required when called:    7
 12537 ;; This function calls:
 12538 ;;		_LCD_write_char
 12539 ;; This function is called by:
 12540 ;;		_main
 12541 ;;		_ricarica
 12542 ;;		_stabilizzazione
 12543 ;;		_scarica
 12544 ;; This function uses a non-reentrant model
 12545 ;;
 12546                           
 12547                           	psect	text34
 12548  004466                     __ptext34:
 12549                           	opt stack 0
 12550  004466                     _LCD_write_message:
 12551                           	opt stack 22
 12552                           
 12553                           ;src\LCD_44780.c: 181: while(*buffer) {
 12554                           
 12555                           ; BSR set to: 0
 12556                           ;incstack = 0
 12557  004466  D00B               	goto	l6119
 12558  004468                     l6115:
 12559                           
 12560                           ;src\LCD_44780.c: 184: LCD_write_char(*buffer);
 12561  004468  C070  FFF6         	movff	LCD_write_message@buffer,tblptrl
 12562  00446C  C071  FFF7         	movff	LCD_write_message@buffer+1,tblptrh
 12563  004470                     	if	0	;tblptru may be non-zero
 12564  004470                     	endif
 12565  004470                     	if	0	;tblptru may be non-zero
 12566  004470                     	endif
 12567  004470  0008               	tblrd		*
 12568  004472  50F5               	movf	tablat,w,c
 12569  004474  EC51  F01F         	call	_LCD_write_char
 12570                           
 12571                           ;src\LCD_44780.c: 186: buffer++;
 12572  004478  0100               	movlb	0	; () banked
 12573  00447A  4B70               	infsnz	LCD_write_message@buffer& (0+255),f,b
 12574  00447C  2B71               	incf	(LCD_write_message@buffer+1)& (0+255),f,b
 12575  00447E                     l6119:
 12576  00447E  C070  FFF6         	movff	LCD_write_message@buffer,tblptrl
 12577  004482  C071  FFF7         	movff	LCD_write_message@buffer+1,tblptrh
 12578  004486                     	if	0	;tblptru may be non-zero
 12579  004486                     	endif
 12580  004486                     	if	0	;tblptru may be non-zero
 12581  004486                     	endif
 12582  004486  0008               	tblrd		*
 12583  004488  50F5               	movf	tablat,w,c
 12584  00448A  0900               	iorlw	0
 12585  00448C  B4D8               	btfsc	status,2,c
 12586  00448E  0012               	return	
 12587  004490  D7EB               	goto	l6115
 12588  004492                     __end_of_LCD_write_message:
 12589                           	opt stack 0
 12590                           tblptru	equ	0xFF8
 12591                           tblptrh	equ	0xFF7
 12592                           tblptrl	equ	0xFF6
 12593                           tablat	equ	0xFF5
 12594                           prodh	equ	0xFF4
 12595                           prodl	equ	0xFF3
 12596                           intcon	equ	0xFF2
 12597                           postinc0	equ	0xFEE
 12598                           wreg	equ	0xFE8
 12599                           indf1	equ	0xFE7
 12600                           postdec1	equ	0xFE5
 12601                           plusw1	equ	0xFE3
 12602                           fsr1h	equ	0xFE2
 12603                           fsr1l	equ	0xFE1
 12604                           indf2	equ	0xFDF
 12605                           postinc2	equ	0xFDE
 12606                           postdec2	equ	0xFDD
 12607                           plusw2	equ	0xFDB
 12608                           fsr2h	equ	0xFDA
 12609                           fsr2l	equ	0xFD9
 12610                           status	equ	0xFD8
 12611                           
 12612 ;; *************** function _LCD_write_char *****************
 12613 ;; Defined at:
 12614 ;;		line 145 in file "C:/Users/simon/Desktop/LaurTec_PIC_libraries_v_3.3.1 - Copia/src\LCD_44780.c"
 12615 ;; Parameters:    Size  Location     Type
 12616 ;;  value           1    wreg     unsigned char 
 12617 ;; Auto vars:     Size  Location     Type
 12618 ;;  value           1   15[BANK0 ] unsigned char 
 12619 ;;  D0              1   14[BANK0 ] unsigned char 
 12620 ;;  D1              1   13[BANK0 ] unsigned char 
 12621 ;;  D2              1   12[BANK0 ] unsigned char 
 12622 ;;  D3              1   11[BANK0 ] unsigned char 
 12623 ;; Return value:  Size  Location     Type
 12624 ;;                  1    wreg      void 
 12625 ;; Registers used:
 12626 ;;		wreg, status,2, status,0, prodl, prodh, cstack
 12627 ;; Tracked objects:
 12628 ;;		On entry : 0/0
 12629 ;;		On exit  : 0/0
 12630 ;;		Unchanged: 0/0
 12631 ;; Data sizes:     COMRAM   BANK0   BANK1   BANK2   BANK3   BANK4   BANK5   BANK6   BANK7
 12632 ;;      Params:         0       0       0       0       0       0       0       0       0
 12633 ;;      Locals:         0       5       0       0       0       0       0       0       0
 12634 ;;      Temps:          0       0       0       0       0       0       0       0       0
 12635 ;;      Totals:         0       5       0       0       0       0       0       0       0
 12636 ;;Total ram usage:        5 bytes
 12637 ;; Hardware stack levels used:    1
 12638 ;; Hardware stack levels required when called:    6
 12639 ;; This function calls:
 12640 ;;		_LCD_send_command
 12641 ;; This function is called by:
 12642 ;;		_LCD_write_message
 12643 ;;		_LCD_write_string
 12644 ;; This function uses a non-reentrant model
 12645 ;;
 12646                           
 12647                           	psect	text35
 12648  003EA2                     __ptext35:
 12649                           	opt stack 0
 12650  003EA2                     _LCD_write_char:
 12651                           	opt stack 21
 12652                           
 12653                           ;incstack = 0
 12654                           ;LCD_write_char@value stored from wreg
 12655  003EA2  0100               	movlb	0	; () banked
 12656  003EA4  6F6F               	movwf	LCD_write_char@value& (0+255),b
 12657                           
 12658                           ;src\LCD_44780.c: 147: unsigned char D3,D2,D1,D0;
 12659                           ;src\LCD_44780.c: 149: LATBbits.LATB1 = 1;
 12660  003EA6  828A               	bsf	3978,1,c	;volatile
 12661                           
 12662                           ;src\LCD_44780.c: 152: D3 = (value & 0b10000000) >> 7;
 12663  003EA8  0100               	movlb	0	; () banked
 12664  003EAA  456F               	rlncf	LCD_write_char@value& (0+255),w,b
 12665  003EAC  0B01               	andlw	1
 12666  003EAE  0100               	movlb	0	; () banked
 12667  003EB0  6F6B               	movwf	LCD_write_char@D3& (0+255),b
 12668                           
 12669                           ;src\LCD_44780.c: 153: D2 = (value & 0b01000000) >> 6;
 12670  003EB2  0100               	movlb	0	; () banked
 12671  003EB4  456F               	rlncf	LCD_write_char@value& (0+255),w,b
 12672  003EB6  46E8               	rlncf	wreg,f,c
 12673  003EB8  0B03               	andlw	3
 12674  003EBA  0B01               	andlw	1
 12675  003EBC  0100               	movlb	0	; () banked
 12676  003EBE  6F6C               	movwf	LCD_write_char@D2& (0+255),b
 12677                           
 12678                           ;src\LCD_44780.c: 154: D1 = (value & 0b00100000) >> 5;
 12679  003EC0  0100               	movlb	0	; () banked
 12680  003EC2  396F               	swapf	LCD_write_char@value& (0+255),w,b
 12681  003EC4  42E8               	rrncf	wreg,f,c
 12682  003EC6  0B07               	andlw	7
 12683  003EC8  0B01               	andlw	1
 12684  003ECA  0100               	movlb	0	; () banked
 12685  003ECC  6F6D               	movwf	LCD_write_char@D1& (0+255),b
 12686                           
 12687                           ;src\LCD_44780.c: 155: D0 = (value & 0b00010000) >> 4;
 12688  003ECE  0100               	movlb	0	; () banked
 12689  003ED0  396F               	swapf	LCD_write_char@value& (0+255),w,b
 12690  003ED2  0B0F               	andlw	15
 12691  003ED4  0B01               	andlw	1
 12692  003ED6  0100               	movlb	0	; () banked
 12693  003ED8  6F6E               	movwf	LCD_write_char@D0& (0+255),b
 12694                           
 12695                           ; BSR set to: 0
 12696                           ;src\LCD_44780.c: 157: LCD_send_command (D3,D2,D1,D0);
 12697  003EDA  C06C  F068         	movff	LCD_write_char@D2,LCD_send_command@D2
 12698  003EDE  C06D  F069         	movff	LCD_write_char@D1,LCD_send_command@D1
 12699  003EE2  C06E  F06A         	movff	LCD_write_char@D0,LCD_send_command@D0
 12700  003EE6  0100               	movlb	0	; () banked
 12701  003EE8  516B               	movf	LCD_write_char@D3& (0+255),w,b
 12702  003EEA  EC9C  F021         	call	_LCD_send_command
 12703                           
 12704                           ;src\LCD_44780.c: 160: D3 = (value & 0b00001000) >> 3;
 12705  003EEE  0100               	movlb	0	; () banked
 12706  003EF0  396F               	swapf	LCD_write_char@value& (0+255),w,b
 12707  003EF2  46E8               	rlncf	wreg,f,c
 12708  003EF4  0B1F               	andlw	31
 12709  003EF6  0B01               	andlw	1
 12710  003EF8  0100               	movlb	0	; () banked
 12711  003EFA  6F6B               	movwf	LCD_write_char@D3& (0+255),b
 12712                           
 12713                           ; BSR set to: 0
 12714                           ;src\LCD_44780.c: 161: D2 = (value & 0b00000100) >> 2;
 12715  003EFC  0100               	movlb	0	; () banked
 12716  003EFE  416F               	rrncf	LCD_write_char@value& (0+255),w,b
 12717  003F00  42E8               	rrncf	wreg,f,c
 12718  003F02  0B3F               	andlw	63
 12719  003F04  0B01               	andlw	1
 12720  003F06  0100               	movlb	0	; () banked
 12721  003F08  6F6C               	movwf	LCD_write_char@D2& (0+255),b
 12722                           
 12723                           ; BSR set to: 0
 12724                           ;src\LCD_44780.c: 162: D1 = (value & 0b00000010) >> 1;
 12725  003F0A  0100               	movlb	0	; () banked
 12726  003F0C  90D8               	bcf	status,0,c
 12727  003F0E  316F               	rrcf	LCD_write_char@value& (0+255),w,b
 12728  003F10  0B01               	andlw	1
 12729  003F12  0100               	movlb	0	; () banked
 12730  003F14  6F6D               	movwf	LCD_write_char@D1& (0+255),b
 12731                           
 12732                           ; BSR set to: 0
 12733                           ;src\LCD_44780.c: 163: D0 = (value & 0b00000001);
 12734  003F16  0100               	movlb	0	; () banked
 12735  003F18  516F               	movf	LCD_write_char@value& (0+255),w,b
 12736  003F1A  0B01               	andlw	1
 12737  003F1C  0100               	movlb	0	; () banked
 12738  003F1E  6F6E               	movwf	LCD_write_char@D0& (0+255),b
 12739                           
 12740                           ; BSR set to: 0
 12741                           ;src\LCD_44780.c: 165: LCD_send_command (D3,D2,D1,D0);
 12742  003F20  C06C  F068         	movff	LCD_write_char@D2,LCD_send_command@D2
 12743  003F24  C06D  F069         	movff	LCD_write_char@D1,LCD_send_command@D1
 12744  003F28  C06E  F06A         	movff	LCD_write_char@D0,LCD_send_command@D0
 12745  003F2C  0100               	movlb	0	; () banked
 12746  003F2E  516B               	movf	LCD_write_char@D3& (0+255),w,b
 12747  003F30  EC9C  F021         	call	_LCD_send_command
 12748                           
 12749                           ;src\LCD_44780.c: 167: LATBbits.LATB1 = 0;
 12750  003F34  928A               	bcf	3978,1,c	;volatile
 12751  003F36  0012               	return		;funcret
 12752  003F38                     __end_of_LCD_write_char:
 12753                           	opt stack 0
 12754                           tblptru	equ	0xFF8
 12755                           tblptrh	equ	0xFF7
 12756                           tblptrl	equ	0xFF6
 12757                           tablat	equ	0xFF5
 12758                           prodh	equ	0xFF4
 12759                           prodl	equ	0xFF3
 12760                           intcon	equ	0xFF2
 12761                           postinc0	equ	0xFEE
 12762                           wreg	equ	0xFE8
 12763                           indf1	equ	0xFE7
 12764                           postdec1	equ	0xFE5
 12765                           plusw1	equ	0xFE3
 12766                           fsr1h	equ	0xFE2
 12767                           fsr1l	equ	0xFE1
 12768                           indf2	equ	0xFDF
 12769                           postinc2	equ	0xFDE
 12770                           postdec2	equ	0xFDD
 12771                           plusw2	equ	0xFDB
 12772                           fsr2h	equ	0xFDA
 12773                           fsr2l	equ	0xFD9
 12774                           status	equ	0xFD8
 12775                           
 12776 ;; *************** function _LCD_home *****************
 12777 ;; Defined at:
 12778 ;;		line 74 in file "C:/Users/simon/Desktop/LaurTec_PIC_libraries_v_3.3.1 - Copia/src\LCD_44780.c"
 12779 ;; Parameters:    Size  Location     Type
 12780 ;;		None
 12781 ;; Auto vars:     Size  Location     Type
 12782 ;;		None
 12783 ;; Return value:  Size  Location     Type
 12784 ;;                  1    wreg      void 
 12785 ;; Registers used:
 12786 ;;		wreg, status,2, status,0, prodl, prodh, cstack
 12787 ;; Tracked objects:
 12788 ;;		On entry : 0/0
 12789 ;;		On exit  : 0/0
 12790 ;;		Unchanged: 0/0
 12791 ;; Data sizes:     COMRAM   BANK0   BANK1   BANK2   BANK3   BANK4   BANK5   BANK6   BANK7
 12792 ;;      Params:         0       0       0       0       0       0       0       0       0
 12793 ;;      Locals:         0       0       0       0       0       0       0       0       0
 12794 ;;      Temps:          0       0       0       0       0       0       0       0       0
 12795 ;;      Totals:         0       0       0       0       0       0       0       0       0
 12796 ;;Total ram usage:        0 bytes
 12797 ;; Hardware stack levels used:    1
 12798 ;; Hardware stack levels required when called:    6
 12799 ;; This function calls:
 12800 ;;		_LCD_send_command
 12801 ;; This function is called by:
 12802 ;;		_main
 12803 ;;		_ricarica
 12804 ;;		_scarica
 12805 ;; This function uses a non-reentrant model
 12806 ;;
 12807                           
 12808                           	psect	text36
 12809  0043A4                     __ptext36:
 12810                           	opt stack 0
 12811  0043A4                     _LCD_home:
 12812                           	opt stack 23
 12813                           
 12814                           ;src\LCD_44780.c: 76: LCD_send_command (0,0,0,0);
 12815                           
 12816                           ;incstack = 0
 12817  0043A4  0E00               	movlw	0
 12818  0043A6  0100               	movlb	0	; () banked
 12819  0043A8  6F68               	movwf	LCD_send_command@D2& (0+255),b
 12820  0043AA  0E00               	movlw	0
 12821  0043AC  0100               	movlb	0	; () banked
 12822  0043AE  6F69               	movwf	LCD_send_command@D1& (0+255),b
 12823  0043B0  0E00               	movlw	0
 12824  0043B2  0100               	movlb	0	; () banked
 12825  0043B4  6F6A               	movwf	LCD_send_command@D0& (0+255),b
 12826  0043B6  0E00               	movlw	0
 12827  0043B8  EC9C  F021         	call	_LCD_send_command
 12828                           
 12829                           ;src\LCD_44780.c: 77: LCD_send_command (0,0,1,0);
 12830  0043BC  0E00               	movlw	0
 12831  0043BE  0100               	movlb	0	; () banked
 12832  0043C0  6F68               	movwf	LCD_send_command@D2& (0+255),b
 12833  0043C2  0E01               	movlw	1
 12834  0043C4  0100               	movlb	0	; () banked
 12835  0043C6  6F69               	movwf	LCD_send_command@D1& (0+255),b
 12836  0043C8  0E00               	movlw	0
 12837  0043CA  0100               	movlb	0	; () banked
 12838  0043CC  6F6A               	movwf	LCD_send_command@D0& (0+255),b
 12839  0043CE  0E00               	movlw	0
 12840  0043D0  EC9C  F021         	call	_LCD_send_command
 12841  0043D4  0012               	return		;funcret
 12842  0043D6                     __end_of_LCD_home:
 12843                           	opt stack 0
 12844                           tblptru	equ	0xFF8
 12845                           tblptrh	equ	0xFF7
 12846                           tblptrl	equ	0xFF6
 12847                           tablat	equ	0xFF5
 12848                           prodh	equ	0xFF4
 12849                           prodl	equ	0xFF3
 12850                           intcon	equ	0xFF2
 12851                           postinc0	equ	0xFEE
 12852                           wreg	equ	0xFE8
 12853                           indf1	equ	0xFE7
 12854                           postdec1	equ	0xFE5
 12855                           plusw1	equ	0xFE3
 12856                           fsr1h	equ	0xFE2
 12857                           fsr1l	equ	0xFE1
 12858                           indf2	equ	0xFDF
 12859                           postinc2	equ	0xFDE
 12860                           postdec2	equ	0xFDD
 12861                           plusw2	equ	0xFDB
 12862                           fsr2h	equ	0xFDA
 12863                           fsr2l	equ	0xFD9
 12864                           status	equ	0xFD8
 12865                           
 12866 ;; *************** function _inizializzazione *****************
 12867 ;; Defined at:
 12868 ;;		line 306 in file "batterua.c"
 12869 ;; Parameters:    Size  Location     Type
 12870 ;;		None
 12871 ;; Auto vars:     Size  Location     Type
 12872 ;;		None
 12873 ;; Return value:  Size  Location     Type
 12874 ;;                  1    wreg      void 
 12875 ;; Registers used:
 12876 ;;		wreg, status,2, status,0, prodl, prodh, cstack
 12877 ;; Tracked objects:
 12878 ;;		On entry : 0/0
 12879 ;;		On exit  : 0/0
 12880 ;;		Unchanged: 0/0
 12881 ;; Data sizes:     COMRAM   BANK0   BANK1   BANK2   BANK3   BANK4   BANK5   BANK6   BANK7
 12882 ;;      Params:         0       0       0       0       0       0       0       0       0
 12883 ;;      Locals:         0       0       0       0       0       0       0       0       0
 12884 ;;      Temps:          0       0       0       0       0       0       0       0       0
 12885 ;;      Totals:         0       0       0       0       0       0       0       0       0
 12886 ;;Total ram usage:        0 bytes
 12887 ;; Hardware stack levels used:    1
 12888 ;; Hardware stack levels required when called:    8
 12889 ;; This function calls:
 12890 ;;		_LCD_initialize
 12891 ;;		_delay_set_quartz
 12892 ;; This function is called by:
 12893 ;;		_main
 12894 ;; This function uses a non-reentrant model
 12895 ;;
 12896                           
 12897                           	psect	text37
 12898  0040BE                     __ptext37:
 12899                           	opt stack 0
 12900  0040BE                     _inizializzazione:
 12901                           	opt stack 22
 12902                           
 12903                           ;batterua.c: 307: stati = 0;
 12904                           
 12905                           ;incstack = 0
 12906  0040BE  0E00               	movlw	0
 12907  0040C0  6E35               	movwf	_stati,c	;volatile
 12908                           
 12909                           ;batterua.c: 308: delay_set_quartz(16);
 12910  0040C2  0E10               	movlw	16
 12911  0040C4  EC8F  F022         	call	_delay_set_quartz
 12912                           
 12913                           ;batterua.c: 310: LATA = 0x00;
 12914  0040C8  0E00               	movlw	0
 12915  0040CA  6E89               	movwf	3977,c	;volatile
 12916                           
 12917                           ;batterua.c: 311: TRISA = 0xFF;
 12918  0040CC  6892               	setf	3986,c	;volatile
 12919                           
 12920                           ;batterua.c: 313: LATB = 0x00;
 12921  0040CE  0E00               	movlw	0
 12922  0040D0  6E8A               	movwf	3978,c	;volatile
 12923                           
 12924                           ;batterua.c: 314: TRISB = 0b01111111;
 12925  0040D2  0E7F               	movlw	127
 12926  0040D4  6E93               	movwf	3987,c	;volatile
 12927                           
 12928                           ;batterua.c: 316: LATC = 0x00;
 12929  0040D6  0E00               	movlw	0
 12930  0040D8  6E8B               	movwf	3979,c	;volatile
 12931                           
 12932                           ;batterua.c: 317: TRISC = 0x00;
 12933  0040DA  0E00               	movlw	0
 12934  0040DC  6E94               	movwf	3988,c	;volatile
 12935                           
 12936                           ;batterua.c: 318: UCONbits.USBEN = 0;
 12937  0040DE  966D               	bcf	3949,3,c	;volatile
 12938                           
 12939                           ;batterua.c: 319: LATD = 0x00;
 12940  0040E0  0E00               	movlw	0
 12941  0040E2  6E8C               	movwf	3980,c	;volatile
 12942                           
 12943                           ;batterua.c: 320: TRISD = 0x00;
 12944  0040E4  0E00               	movlw	0
 12945  0040E6  6E95               	movwf	3989,c	;volatile
 12946                           
 12947                           ;batterua.c: 322: LATE = 0x00;
 12948  0040E8  0E00               	movlw	0
 12949  0040EA  6E8D               	movwf	3981,c	;volatile
 12950                           
 12951                           ;batterua.c: 323: TRISE = 0b00000110;
 12952  0040EC  0E06               	movlw	6
 12953  0040EE  6E96               	movwf	3990,c	;volatile
 12954                           
 12955                           ;batterua.c: 325: LCD_initialize(16);
 12956  0040F0  0E10               	movlw	16
 12957  0040F2  ECE3  F019         	call	_LCD_initialize
 12958                           
 12959                           ;batterua.c: 332: ADCON0 = 0b00000000;
 12960  0040F6  0E00               	movlw	0
 12961  0040F8  6EC2               	movwf	4034,c	;volatile
 12962                           
 12963                           ;batterua.c: 333: ADCON1 = 0b00001011;
 12964  0040FA  0E0B               	movlw	11
 12965  0040FC  6EC1               	movwf	4033,c	;volatile
 12966                           
 12967                           ;batterua.c: 334: ADCON2 = 0b10101101;
 12968  0040FE  0EAD               	movlw	173
 12969  004100  6EC0               	movwf	4032,c	;volatile
 12970                           
 12971                           ;batterua.c: 335: ADCON0bits.CHS3 = 0;
 12972  004102  9AC2               	bcf	4034,5,c	;volatile
 12973                           
 12974                           ;batterua.c: 336: ADCON0bits.CHS2 = 0;
 12975  004104  98C2               	bcf	4034,4,c	;volatile
 12976                           
 12977                           ;batterua.c: 337: ADCON0bits.CHS1 = 0;
 12978  004106  96C2               	bcf	4034,3,c	;volatile
 12979                           
 12980                           ;batterua.c: 340: T0CON = 0x85;
 12981  004108  0E85               	movlw	133
 12982  00410A  6ED5               	movwf	4053,c	;volatile
 12983                           
 12984                           ;batterua.c: 341: TMR0H = 0x0B;
 12985  00410C  0E0B               	movlw	11
 12986  00410E  6ED7               	movwf	4055,c	;volatile
 12987                           
 12988                           ;batterua.c: 342: TMR0L = 0xDC;
 12989  004110  0EDC               	movlw	220
 12990  004112  6ED6               	movwf	4054,c	;volatile
 12991                           
 12992                           ;batterua.c: 344: INTCONbits.INT0IF = 0;
 12993  004114  92F2               	bcf	intcon,1,c	;volatile
 12994                           
 12995                           ;batterua.c: 345: INTCONbits.INT0IE = 1;
 12996  004116  88F2               	bsf	intcon,4,c	;volatile
 12997                           
 12998                           ;batterua.c: 346: INTCON2bits.INTEDG0 = 1;
 12999  004118  8CF1               	bsf	intcon2,6,c	;volatile
 13000                           
 13001                           ;batterua.c: 347: INTCON2bits.TMR0IP = 1;
 13002  00411A  84F1               	bsf	intcon2,2,c	;volatile
 13003                           
 13004                           ;batterua.c: 348: RCONbits.IPEN = 1;
 13005  00411C  8ED0               	bsf	4048,7,c	;volatile
 13006                           
 13007                           ;batterua.c: 349: INTCONbits.GIEH = 1;
 13008  00411E  8EF2               	bsf	intcon,7,c	;volatile
 13009                           
 13010                           ;batterua.c: 350: INTCONbits.GIEL = 1;
 13011  004120  8CF2               	bsf	intcon,6,c	;volatile
 13012                           
 13013                           ;batterua.c: 351: INTCONbits.TMR0IF = 0;
 13014  004122  94F2               	bcf	intcon,2,c	;volatile
 13015                           
 13016                           ;batterua.c: 352: INTCONbits.TMR0IE = 1;
 13017  004124  8AF2               	bsf	intcon,5,c	;volatile
 13018  004126  0012               	return		;funcret
 13019  004128                     __end_of_inizializzazione:
 13020                           	opt stack 0
 13021                           tblptru	equ	0xFF8
 13022                           tblptrh	equ	0xFF7
 13023                           tblptrl	equ	0xFF6
 13024                           tablat	equ	0xFF5
 13025                           prodh	equ	0xFF4
 13026                           prodl	equ	0xFF3
 13027                           intcon	equ	0xFF2
 13028                           intcon2	equ	0xFF1
 13029                           postinc0	equ	0xFEE
 13030                           wreg	equ	0xFE8
 13031                           indf1	equ	0xFE7
 13032                           postdec1	equ	0xFE5
 13033                           plusw1	equ	0xFE3
 13034                           fsr1h	equ	0xFE2
 13035                           fsr1l	equ	0xFE1
 13036                           indf2	equ	0xFDF
 13037                           postinc2	equ	0xFDE
 13038                           postdec2	equ	0xFDD
 13039                           plusw2	equ	0xFDB
 13040                           fsr2h	equ	0xFDA
 13041                           fsr2l	equ	0xFD9
 13042                           status	equ	0xFD8
 13043                           
 13044 ;; *************** function _LCD_initialize *****************
 13045 ;; Defined at:
 13046 ;;		line 283 in file "C:/Users/simon/Desktop/LaurTec_PIC_libraries_v_3.3.1 - Copia/src\LCD_44780.c"
 13047 ;; Parameters:    Size  Location     Type
 13048 ;;  quartz_frequ    1    wreg     unsigned char 
 13049 ;; Auto vars:     Size  Location     Type
 13050 ;;  quartz_frequ    1   13[BANK0 ] unsigned char 
 13051 ;; Return value:  Size  Location     Type
 13052 ;;                  1    wreg      void 
 13053 ;; Registers used:
 13054 ;;		wreg, status,2, status,0, prodl, prodh, cstack
 13055 ;; Tracked objects:
 13056 ;;		On entry : 0/0
 13057 ;;		On exit  : 0/0
 13058 ;;		Unchanged: 0/0
 13059 ;; Data sizes:     COMRAM   BANK0   BANK1   BANK2   BANK3   BANK4   BANK5   BANK6   BANK7
 13060 ;;      Params:         0       0       0       0       0       0       0       0       0
 13061 ;;      Locals:         0       1       0       0       0       0       0       0       0
 13062 ;;      Temps:          0       0       0       0       0       0       0       0       0
 13063 ;;      Totals:         0       1       0       0       0       0       0       0       0
 13064 ;;Total ram usage:        1 bytes
 13065 ;; Hardware stack levels used:    1
 13066 ;; Hardware stack levels required when called:    7
 13067 ;; This function calls:
 13068 ;;		_LCD_clear
 13069 ;;		_LCD_cursor
 13070 ;;		_LCD_send_command
 13071 ;;		_delay_ms
 13072 ;;		_delay_set_quartz
 13073 ;; This function is called by:
 13074 ;;		_main
 13075 ;;		_ricarica
 13076 ;;		_stabilizzazione
 13077 ;;		_scarica
 13078 ;;		_inizializzazione
 13079 ;; This function uses a non-reentrant model
 13080 ;;
 13081                           
 13082                           	psect	text38
 13083  0033C6                     __ptext38:
 13084                           	opt stack 0
 13085  0033C6                     _LCD_initialize:
 13086                           	opt stack 22
 13087                           
 13088                           ;incstack = 0
 13089                           ;LCD_initialize@quartz_frequency stored from wreg
 13090  0033C6  0100               	movlb	0	; () banked
 13091  0033C8  6F6D               	movwf	LCD_initialize@quartz_frequency& (0+255),b
 13092                           
 13093                           ;src\LCD_44780.c: 285: delay_set_quartz (quartz_frequency);
 13094  0033CA  0100               	movlb	0	; () banked
 13095  0033CC  516D               	movf	LCD_initialize@quartz_frequency& (0+255),w,b
 13096  0033CE  EC8F  F022         	call	_delay_set_quartz
 13097                           
 13098                           ;src\LCD_44780.c: 287: LATBbits.LATB1 = 0x00;
 13099  0033D2  928A               	bcf	3978,1,c	;volatile
 13100                           
 13101                           ;src\LCD_44780.c: 288: LATBbits.LATB3 = 0x00;
 13102  0033D4  968A               	bcf	3978,3,c	;volatile
 13103                           
 13104                           ;src\LCD_44780.c: 289: LATBbits.LATB2 = 0x00;
 13105  0033D6  948A               	bcf	3978,2,c	;volatile
 13106                           
 13107                           ;src\LCD_44780.c: 291: delay_ms (100);
 13108  0033D8  0E00               	movlw	0
 13109  0033DA  0100               	movlb	0	; () banked
 13110  0033DC  6F67               	movwf	(delay_ms@value_ms+1)& (0+255),b
 13111  0033DE  0E64               	movlw	100
 13112  0033E0  6F66               	movwf	delay_ms@value_ms& (0+255),b
 13113  0033E2  EC63  F021         	call	_delay_ms	;wreg free
 13114                           
 13115                           ;src\LCD_44780.c: 292: LCD_send_command (0,0,1,1);
 13116  0033E6  0E00               	movlw	0
 13117  0033E8  0100               	movlb	0	; () banked
 13118  0033EA  6F68               	movwf	LCD_send_command@D2& (0+255),b
 13119  0033EC  0E01               	movlw	1
 13120  0033EE  0100               	movlb	0	; () banked
 13121  0033F0  6F69               	movwf	LCD_send_command@D1& (0+255),b
 13122  0033F2  0E01               	movlw	1
 13123  0033F4  0100               	movlb	0	; () banked
 13124  0033F6  6F6A               	movwf	LCD_send_command@D0& (0+255),b
 13125  0033F8  0E00               	movlw	0
 13126  0033FA  EC9C  F021         	call	_LCD_send_command
 13127                           
 13128                           ;src\LCD_44780.c: 293: delay_ms (100);
 13129  0033FE  0E00               	movlw	0
 13130  003400  0100               	movlb	0	; () banked
 13131  003402  6F67               	movwf	(delay_ms@value_ms+1)& (0+255),b
 13132  003404  0E64               	movlw	100
 13133  003406  6F66               	movwf	delay_ms@value_ms& (0+255),b
 13134  003408  EC63  F021         	call	_delay_ms	;wreg free
 13135                           
 13136                           ;src\LCD_44780.c: 294: LCD_send_command (0,0,1,1);
 13137  00340C  0E00               	movlw	0
 13138  00340E  0100               	movlb	0	; () banked
 13139  003410  6F68               	movwf	LCD_send_command@D2& (0+255),b
 13140  003412  0E01               	movlw	1
 13141  003414  0100               	movlb	0	; () banked
 13142  003416  6F69               	movwf	LCD_send_command@D1& (0+255),b
 13143  003418  0E01               	movlw	1
 13144  00341A  0100               	movlb	0	; () banked
 13145  00341C  6F6A               	movwf	LCD_send_command@D0& (0+255),b
 13146  00341E  0E00               	movlw	0
 13147  003420  EC9C  F021         	call	_LCD_send_command
 13148                           
 13149                           ;src\LCD_44780.c: 295: delay_ms (10);
 13150  003424  0E00               	movlw	0
 13151  003426  0100               	movlb	0	; () banked
 13152  003428  6F67               	movwf	(delay_ms@value_ms+1)& (0+255),b
 13153  00342A  0E0A               	movlw	10
 13154  00342C  6F66               	movwf	delay_ms@value_ms& (0+255),b
 13155  00342E  EC63  F021         	call	_delay_ms	;wreg free
 13156                           
 13157                           ;src\LCD_44780.c: 296: LCD_send_command (0,0,1,1);
 13158  003432  0E00               	movlw	0
 13159  003434  0100               	movlb	0	; () banked
 13160  003436  6F68               	movwf	LCD_send_command@D2& (0+255),b
 13161  003438  0E01               	movlw	1
 13162  00343A  0100               	movlb	0	; () banked
 13163  00343C  6F69               	movwf	LCD_send_command@D1& (0+255),b
 13164  00343E  0E01               	movlw	1
 13165  003440  0100               	movlb	0	; () banked
 13166  003442  6F6A               	movwf	LCD_send_command@D0& (0+255),b
 13167  003444  0E00               	movlw	0
 13168  003446  EC9C  F021         	call	_LCD_send_command
 13169                           
 13170                           ;src\LCD_44780.c: 298: LCD_send_command (0,0,1,0);
 13171  00344A  0E00               	movlw	0
 13172  00344C  0100               	movlb	0	; () banked
 13173  00344E  6F68               	movwf	LCD_send_command@D2& (0+255),b
 13174  003450  0E01               	movlw	1
 13175  003452  0100               	movlb	0	; () banked
 13176  003454  6F69               	movwf	LCD_send_command@D1& (0+255),b
 13177  003456  0E00               	movlw	0
 13178  003458  0100               	movlb	0	; () banked
 13179  00345A  6F6A               	movwf	LCD_send_command@D0& (0+255),b
 13180  00345C  0E00               	movlw	0
 13181  00345E  EC9C  F021         	call	_LCD_send_command
 13182                           
 13183                           ;src\LCD_44780.c: 300: LCD_send_command (0,0,1,0);
 13184  003462  0E00               	movlw	0
 13185  003464  0100               	movlb	0	; () banked
 13186  003466  6F68               	movwf	LCD_send_command@D2& (0+255),b
 13187  003468  0E01               	movlw	1
 13188  00346A  0100               	movlb	0	; () banked
 13189  00346C  6F69               	movwf	LCD_send_command@D1& (0+255),b
 13190  00346E  0E00               	movlw	0
 13191  003470  0100               	movlb	0	; () banked
 13192  003472  6F6A               	movwf	LCD_send_command@D0& (0+255),b
 13193  003474  0E00               	movlw	0
 13194  003476  EC9C  F021         	call	_LCD_send_command
 13195                           
 13196                           ;src\LCD_44780.c: 301: LCD_send_command (1,0,0,0);
 13197  00347A  0E00               	movlw	0
 13198  00347C  0100               	movlb	0	; () banked
 13199  00347E  6F68               	movwf	LCD_send_command@D2& (0+255),b
 13200  003480  0E00               	movlw	0
 13201  003482  0100               	movlb	0	; () banked
 13202  003484  6F69               	movwf	LCD_send_command@D1& (0+255),b
 13203  003486  0E00               	movlw	0
 13204  003488  0100               	movlb	0	; () banked
 13205  00348A  6F6A               	movwf	LCD_send_command@D0& (0+255),b
 13206  00348C  0E01               	movlw	1
 13207  00348E  EC9C  F021         	call	_LCD_send_command
 13208                           
 13209                           ;src\LCD_44780.c: 303: LCD_send_command (0,0,0,0);
 13210  003492  0E00               	movlw	0
 13211  003494  0100               	movlb	0	; () banked
 13212  003496  6F68               	movwf	LCD_send_command@D2& (0+255),b
 13213  003498  0E00               	movlw	0
 13214  00349A  0100               	movlb	0	; () banked
 13215  00349C  6F69               	movwf	LCD_send_command@D1& (0+255),b
 13216  00349E  0E00               	movlw	0
 13217  0034A0  0100               	movlb	0	; () banked
 13218  0034A2  6F6A               	movwf	LCD_send_command@D0& (0+255),b
 13219  0034A4  0E00               	movlw	0
 13220  0034A6  EC9C  F021         	call	_LCD_send_command
 13221                           
 13222                           ;src\LCD_44780.c: 304: LCD_send_command (1,0,0,0);
 13223  0034AA  0E00               	movlw	0
 13224  0034AC  0100               	movlb	0	; () banked
 13225  0034AE  6F68               	movwf	LCD_send_command@D2& (0+255),b
 13226  0034B0  0E00               	movlw	0
 13227  0034B2  0100               	movlb	0	; () banked
 13228  0034B4  6F69               	movwf	LCD_send_command@D1& (0+255),b
 13229  0034B6  0E00               	movlw	0
 13230  0034B8  0100               	movlb	0	; () banked
 13231  0034BA  6F6A               	movwf	LCD_send_command@D0& (0+255),b
 13232  0034BC  0E01               	movlw	1
 13233  0034BE  EC9C  F021         	call	_LCD_send_command
 13234                           
 13235                           ;src\LCD_44780.c: 306: LCD_send_command (0,0,0,0);
 13236  0034C2  0E00               	movlw	0
 13237  0034C4  0100               	movlb	0	; () banked
 13238  0034C6  6F68               	movwf	LCD_send_command@D2& (0+255),b
 13239  0034C8  0E00               	movlw	0
 13240  0034CA  0100               	movlb	0	; () banked
 13241  0034CC  6F69               	movwf	LCD_send_command@D1& (0+255),b
 13242  0034CE  0E00               	movlw	0
 13243  0034D0  0100               	movlb	0	; () banked
 13244  0034D2  6F6A               	movwf	LCD_send_command@D0& (0+255),b
 13245  0034D4  0E00               	movlw	0
 13246  0034D6  EC9C  F021         	call	_LCD_send_command
 13247                           
 13248                           ;src\LCD_44780.c: 307: LCD_send_command (0,0,0,1);
 13249  0034DA  0E00               	movlw	0
 13250  0034DC  0100               	movlb	0	; () banked
 13251  0034DE  6F68               	movwf	LCD_send_command@D2& (0+255),b
 13252  0034E0  0E00               	movlw	0
 13253  0034E2  0100               	movlb	0	; () banked
 13254  0034E4  6F69               	movwf	LCD_send_command@D1& (0+255),b
 13255  0034E6  0E01               	movlw	1
 13256  0034E8  0100               	movlb	0	; () banked
 13257  0034EA  6F6A               	movwf	LCD_send_command@D0& (0+255),b
 13258  0034EC  0E00               	movlw	0
 13259  0034EE  EC9C  F021         	call	_LCD_send_command
 13260                           
 13261                           ;src\LCD_44780.c: 309: LCD_send_command (0,0,0,0);
 13262  0034F2  0E00               	movlw	0
 13263  0034F4  0100               	movlb	0	; () banked
 13264  0034F6  6F68               	movwf	LCD_send_command@D2& (0+255),b
 13265  0034F8  0E00               	movlw	0
 13266  0034FA  0100               	movlb	0	; () banked
 13267  0034FC  6F69               	movwf	LCD_send_command@D1& (0+255),b
 13268  0034FE  0E00               	movlw	0
 13269  003500  0100               	movlb	0	; () banked
 13270  003502  6F6A               	movwf	LCD_send_command@D0& (0+255),b
 13271  003504  0E00               	movlw	0
 13272  003506  EC9C  F021         	call	_LCD_send_command
 13273                           
 13274                           ;src\LCD_44780.c: 310: LCD_send_command (0,1,1,0);
 13275  00350A  0E01               	movlw	1
 13276  00350C  0100               	movlb	0	; () banked
 13277  00350E  6F68               	movwf	LCD_send_command@D2& (0+255),b
 13278  003510  0E01               	movlw	1
 13279  003512  0100               	movlb	0	; () banked
 13280  003514  6F69               	movwf	LCD_send_command@D1& (0+255),b
 13281  003516  0E00               	movlw	0
 13282  003518  0100               	movlb	0	; () banked
 13283  00351A  6F6A               	movwf	LCD_send_command@D0& (0+255),b
 13284  00351C  0E00               	movlw	0
 13285  00351E  EC9C  F021         	call	_LCD_send_command
 13286                           
 13287                           ;src\LCD_44780.c: 312: LCD_clear ();
 13288  003522  EC04  F022         	call	_LCD_clear	;wreg free
 13289                           
 13290                           ;src\LCD_44780.c: 314: LCD_cursor (0,0);
 13291  003526  0E00               	movlw	0
 13292  003528  0100               	movlb	0	; () banked
 13293  00352A  6F6B               	movwf	LCD_cursor@blinking& (0+255),b
 13294  00352C  0E00               	movlw	0
 13295  00352E  ECEB  F021         	call	_LCD_cursor
 13296  003532  0012               	return		;funcret
 13297  003534                     __end_of_LCD_initialize:
 13298                           	opt stack 0
 13299                           tblptru	equ	0xFF8
 13300                           tblptrh	equ	0xFF7
 13301                           tblptrl	equ	0xFF6
 13302                           tablat	equ	0xFF5
 13303                           prodh	equ	0xFF4
 13304                           prodl	equ	0xFF3
 13305                           intcon	equ	0xFF2
 13306                           intcon2	equ	0xFF1
 13307                           postinc0	equ	0xFEE
 13308                           wreg	equ	0xFE8
 13309                           indf1	equ	0xFE7
 13310                           postdec1	equ	0xFE5
 13311                           plusw1	equ	0xFE3
 13312                           fsr1h	equ	0xFE2
 13313                           fsr1l	equ	0xFE1
 13314                           indf2	equ	0xFDF
 13315                           postinc2	equ	0xFDE
 13316                           postdec2	equ	0xFDD
 13317                           plusw2	equ	0xFDB
 13318                           fsr2h	equ	0xFDA
 13319                           fsr2l	equ	0xFD9
 13320                           status	equ	0xFD8
 13321                           
 13322 ;; *************** function _delay_set_quartz *****************
 13323 ;; Defined at:
 13324 ;;		line 115 in file "C:/Users/simon/Desktop/LaurTec_PIC_libraries_v_3.3.1 - Copia/src\delay.c"
 13325 ;; Parameters:    Size  Location     Type
 13326 ;;  frequency       1    wreg     unsigned char 
 13327 ;; Auto vars:     Size  Location     Type
 13328 ;;  frequency       1   31[COMRAM] unsigned char 
 13329 ;; Return value:  Size  Location     Type
 13330 ;;                  1    wreg      void 
 13331 ;; Registers used:
 13332 ;;		wreg
 13333 ;; Tracked objects:
 13334 ;;		On entry : 0/0
 13335 ;;		On exit  : 0/0
 13336 ;;		Unchanged: 0/0
 13337 ;; Data sizes:     COMRAM   BANK0   BANK1   BANK2   BANK3   BANK4   BANK5   BANK6   BANK7
 13338 ;;      Params:         0       0       0       0       0       0       0       0       0
 13339 ;;      Locals:         1       0       0       0       0       0       0       0       0
 13340 ;;      Temps:          0       0       0       0       0       0       0       0       0
 13341 ;;      Totals:         1       0       0       0       0       0       0       0       0
 13342 ;;Total ram usage:        1 bytes
 13343 ;; Hardware stack levels used:    1
 13344 ;; Hardware stack levels required when called:    2
 13345 ;; This function calls:
 13346 ;;		Nothing
 13347 ;; This function is called by:
 13348 ;;		_LCD_initialize
 13349 ;;		_inizializzazione
 13350 ;; This function uses a non-reentrant model
 13351 ;;
 13352                           
 13353                           	psect	text39
 13354  00451E                     __ptext39:
 13355                           	opt stack 0
 13356  00451E                     _delay_set_quartz:
 13357                           	opt stack 26
 13358                           
 13359                           ;incstack = 0
 13360                           ;delay_set_quartz@frequency stored from wreg
 13361  00451E  6E20               	movwf	delay_set_quartz@frequency,c
 13362                           
 13363                           ;src\delay.c: 117: delay_quartz_frequency_value = frequency;
 13364  004520  C020  F03F         	movff	delay_set_quartz@frequency,_delay_quartz_frequency_value	;volatile
 13365  004524  0012               	return		;funcret
 13366  004526                     __end_of_delay_set_quartz:
 13367                           	opt stack 0
 13368                           tblptru	equ	0xFF8
 13369                           tblptrh	equ	0xFF7
 13370                           tblptrl	equ	0xFF6
 13371                           tablat	equ	0xFF5
 13372                           prodh	equ	0xFF4
 13373                           prodl	equ	0xFF3
 13374                           intcon	equ	0xFF2
 13375                           intcon2	equ	0xFF1
 13376                           postinc0	equ	0xFEE
 13377                           wreg	equ	0xFE8
 13378                           indf1	equ	0xFE7
 13379                           postdec1	equ	0xFE5
 13380                           plusw1	equ	0xFE3
 13381                           fsr1h	equ	0xFE2
 13382                           fsr1l	equ	0xFE1
 13383                           indf2	equ	0xFDF
 13384                           postinc2	equ	0xFDE
 13385                           postdec2	equ	0xFDD
 13386                           plusw2	equ	0xFDB
 13387                           fsr2h	equ	0xFDA
 13388                           fsr2l	equ	0xFD9
 13389                           status	equ	0xFD8
 13390                           
 13391 ;; *************** function _LCD_cursor *****************
 13392 ;; Defined at:
 13393 ;;		line 266 in file "C:/Users/simon/Desktop/LaurTec_PIC_libraries_v_3.3.1 - Copia/src\LCD_44780.c"
 13394 ;; Parameters:    Size  Location     Type
 13395 ;;  active          1    wreg     unsigned char 
 13396 ;;  blinking        1   11[BANK0 ] unsigned char 
 13397 ;; Auto vars:     Size  Location     Type
 13398 ;;  active          1   12[BANK0 ] unsigned char 
 13399 ;; Return value:  Size  Location     Type
 13400 ;;                  1    wreg      void 
 13401 ;; Registers used:
 13402 ;;		wreg, status,2, status,0, prodl, prodh, cstack
 13403 ;; Tracked objects:
 13404 ;;		On entry : 0/0
 13405 ;;		On exit  : 0/0
 13406 ;;		Unchanged: 0/0
 13407 ;; Data sizes:     COMRAM   BANK0   BANK1   BANK2   BANK3   BANK4   BANK5   BANK6   BANK7
 13408 ;;      Params:         0       1       0       0       0       0       0       0       0
 13409 ;;      Locals:         0       1       0       0       0       0       0       0       0
 13410 ;;      Temps:          0       0       0       0       0       0       0       0       0
 13411 ;;      Totals:         0       2       0       0       0       0       0       0       0
 13412 ;;Total ram usage:        2 bytes
 13413 ;; Hardware stack levels used:    1
 13414 ;; Hardware stack levels required when called:    6
 13415 ;; This function calls:
 13416 ;;		_LCD_send_command
 13417 ;; This function is called by:
 13418 ;;		_LCD_initialize
 13419 ;; This function uses a non-reentrant model
 13420 ;;
 13421                           
 13422                           	psect	text40
 13423  0043D6                     __ptext40:
 13424                           	opt stack 0
 13425  0043D6                     _LCD_cursor:
 13426                           	opt stack 22
 13427                           
 13428                           ;incstack = 0
 13429                           ;LCD_cursor@active stored from wreg
 13430  0043D6  0100               	movlb	0	; () banked
 13431  0043D8  6F6C               	movwf	LCD_cursor@active& (0+255),b
 13432                           
 13433                           ;src\LCD_44780.c: 268: LCD_send_command (0,0,0,0);
 13434  0043DA  0E00               	movlw	0
 13435  0043DC  0100               	movlb	0	; () banked
 13436  0043DE  6F68               	movwf	LCD_send_command@D2& (0+255),b
 13437  0043E0  0E00               	movlw	0
 13438  0043E2  0100               	movlb	0	; () banked
 13439  0043E4  6F69               	movwf	LCD_send_command@D1& (0+255),b
 13440  0043E6  0E00               	movlw	0
 13441  0043E8  0100               	movlb	0	; () banked
 13442  0043EA  6F6A               	movwf	LCD_send_command@D0& (0+255),b
 13443  0043EC  0E00               	movlw	0
 13444  0043EE  EC9C  F021         	call	_LCD_send_command
 13445                           
 13446                           ;src\LCD_44780.c: 269: LCD_send_command (1,1,active,blinking);
 13447  0043F2  0E01               	movlw	1
 13448  0043F4  0100               	movlb	0	; () banked
 13449  0043F6  6F68               	movwf	LCD_send_command@D2& (0+255),b
 13450  0043F8  C06C  F069         	movff	LCD_cursor@active,LCD_send_command@D1
 13451  0043FC  C06B  F06A         	movff	LCD_cursor@blinking,LCD_send_command@D0
 13452  004400  0E01               	movlw	1
 13453  004402  EC9C  F021         	call	_LCD_send_command
 13454  004406  0012               	return		;funcret
 13455  004408                     __end_of_LCD_cursor:
 13456                           	opt stack 0
 13457                           tblptru	equ	0xFF8
 13458                           tblptrh	equ	0xFF7
 13459                           tblptrl	equ	0xFF6
 13460                           tablat	equ	0xFF5
 13461                           prodh	equ	0xFF4
 13462                           prodl	equ	0xFF3
 13463                           intcon	equ	0xFF2
 13464                           intcon2	equ	0xFF1
 13465                           postinc0	equ	0xFEE
 13466                           wreg	equ	0xFE8
 13467                           indf1	equ	0xFE7
 13468                           postdec1	equ	0xFE5
 13469                           plusw1	equ	0xFE3
 13470                           fsr1h	equ	0xFE2
 13471                           fsr1l	equ	0xFE1
 13472                           indf2	equ	0xFDF
 13473                           postinc2	equ	0xFDE
 13474                           postdec2	equ	0xFDD
 13475                           plusw2	equ	0xFDB
 13476                           fsr2h	equ	0xFDA
 13477                           fsr2l	equ	0xFD9
 13478                           status	equ	0xFD8
 13479                           
 13480 ;; *************** function _LCD_clear *****************
 13481 ;; Defined at:
 13482 ;;		line 257 in file "C:/Users/simon/Desktop/LaurTec_PIC_libraries_v_3.3.1 - Copia/src\LCD_44780.c"
 13483 ;; Parameters:    Size  Location     Type
 13484 ;;		None
 13485 ;; Auto vars:     Size  Location     Type
 13486 ;;		None
 13487 ;; Return value:  Size  Location     Type
 13488 ;;                  1    wreg      void 
 13489 ;; Registers used:
 13490 ;;		wreg, status,2, status,0, prodl, prodh, cstack
 13491 ;; Tracked objects:
 13492 ;;		On entry : 0/0
 13493 ;;		On exit  : 0/0
 13494 ;;		Unchanged: 0/0
 13495 ;; Data sizes:     COMRAM   BANK0   BANK1   BANK2   BANK3   BANK4   BANK5   BANK6   BANK7
 13496 ;;      Params:         0       0       0       0       0       0       0       0       0
 13497 ;;      Locals:         0       0       0       0       0       0       0       0       0
 13498 ;;      Temps:          0       0       0       0       0       0       0       0       0
 13499 ;;      Totals:         0       0       0       0       0       0       0       0       0
 13500 ;;Total ram usage:        0 bytes
 13501 ;; Hardware stack levels used:    1
 13502 ;; Hardware stack levels required when called:    6
 13503 ;; This function calls:
 13504 ;;		_LCD_send_command
 13505 ;; This function is called by:
 13506 ;;		_LCD_initialize
 13507 ;;		_main
 13508 ;;		_ricarica
 13509 ;; This function uses a non-reentrant model
 13510 ;;
 13511                           
 13512                           	psect	text41
 13513  004408                     __ptext41:
 13514                           	opt stack 0
 13515  004408                     _LCD_clear:
 13516                           	opt stack 22
 13517                           
 13518                           ;src\LCD_44780.c: 259: LCD_send_command (0,0,0,0);
 13519                           
 13520                           ;incstack = 0
 13521  004408  0E00               	movlw	0
 13522  00440A  0100               	movlb	0	; () banked
 13523  00440C  6F68               	movwf	LCD_send_command@D2& (0+255),b
 13524  00440E  0E00               	movlw	0
 13525  004410  0100               	movlb	0	; () banked
 13526  004412  6F69               	movwf	LCD_send_command@D1& (0+255),b
 13527  004414  0E00               	movlw	0
 13528  004416  0100               	movlb	0	; () banked
 13529  004418  6F6A               	movwf	LCD_send_command@D0& (0+255),b
 13530  00441A  0E00               	movlw	0
 13531  00441C  EC9C  F021         	call	_LCD_send_command
 13532                           
 13533                           ;src\LCD_44780.c: 260: LCD_send_command (0,0,0,1);
 13534  004420  0E00               	movlw	0
 13535  004422  0100               	movlb	0	; () banked
 13536  004424  6F68               	movwf	LCD_send_command@D2& (0+255),b
 13537  004426  0E00               	movlw	0
 13538  004428  0100               	movlb	0	; () banked
 13539  00442A  6F69               	movwf	LCD_send_command@D1& (0+255),b
 13540  00442C  0E01               	movlw	1
 13541  00442E  0100               	movlb	0	; () banked
 13542  004430  6F6A               	movwf	LCD_send_command@D0& (0+255),b
 13543  004432  0E00               	movlw	0
 13544  004434  EC9C  F021         	call	_LCD_send_command
 13545  004438  0012               	return		;funcret
 13546  00443A                     __end_of_LCD_clear:
 13547                           	opt stack 0
 13548                           tblptru	equ	0xFF8
 13549                           tblptrh	equ	0xFF7
 13550                           tblptrl	equ	0xFF6
 13551                           tablat	equ	0xFF5
 13552                           prodh	equ	0xFF4
 13553                           prodl	equ	0xFF3
 13554                           intcon	equ	0xFF2
 13555                           intcon2	equ	0xFF1
 13556                           postinc0	equ	0xFEE
 13557                           wreg	equ	0xFE8
 13558                           indf1	equ	0xFE7
 13559                           postdec1	equ	0xFE5
 13560                           plusw1	equ	0xFE3
 13561                           fsr1h	equ	0xFE2
 13562                           fsr1l	equ	0xFE1
 13563                           indf2	equ	0xFDF
 13564                           postinc2	equ	0xFDE
 13565                           postdec2	equ	0xFDD
 13566                           plusw2	equ	0xFDB
 13567                           fsr2h	equ	0xFDA
 13568                           fsr2l	equ	0xFD9
 13569                           status	equ	0xFD8
 13570                           
 13571 ;; *************** function _LCD_goto_xy *****************
 13572 ;; Defined at:
 13573 ;;		line 136 in file "C:/Users/simon/Desktop/LaurTec_PIC_libraries_v_3.3.1 - Copia/src\LCD_44780.c"
 13574 ;; Parameters:    Size  Location     Type
 13575 ;;  x               1    wreg     unsigned char 
 13576 ;;  y               1   14[BANK0 ] unsigned char 
 13577 ;; Auto vars:     Size  Location     Type
 13578 ;;  x               1   15[BANK0 ] unsigned char 
 13579 ;; Return value:  Size  Location     Type
 13580 ;;                  1    wreg      void 
 13581 ;; Registers used:
 13582 ;;		wreg, status,2, status,0, prodl, prodh, cstack
 13583 ;; Tracked objects:
 13584 ;;		On entry : 0/0
 13585 ;;		On exit  : 0/0
 13586 ;;		Unchanged: 0/0
 13587 ;; Data sizes:     COMRAM   BANK0   BANK1   BANK2   BANK3   BANK4   BANK5   BANK6   BANK7
 13588 ;;      Params:         0       1       0       0       0       0       0       0       0
 13589 ;;      Locals:         0       1       0       0       0       0       0       0       0
 13590 ;;      Temps:          0       0       0       0       0       0       0       0       0
 13591 ;;      Totals:         0       2       0       0       0       0       0       0       0
 13592 ;;Total ram usage:        2 bytes
 13593 ;; Hardware stack levels used:    1
 13594 ;; Hardware stack levels required when called:    7
 13595 ;; This function calls:
 13596 ;;		_LCD_goto_line
 13597 ;;		_LCD_shift_cursor
 13598 ;; This function is called by:
 13599 ;;		_main
 13600 ;; This function uses a non-reentrant model
 13601 ;;
 13602                           
 13603                           	psect	text42
 13604  004502                     __ptext42:
 13605                           	opt stack 0
 13606  004502                     _LCD_goto_xy:
 13607                           	opt stack 23
 13608                           
 13609                           ;incstack = 0
 13610                           ;LCD_goto_xy@x stored from wreg
 13611  004502  0100               	movlb	0	; () banked
 13612  004504  6F6F               	movwf	LCD_goto_xy@x& (0+255),b
 13613                           
 13614                           ;src\LCD_44780.c: 138: LCD_goto_line (y);
 13615  004506  0100               	movlb	0	; () banked
 13616  004508  516E               	movf	LCD_goto_xy@y& (0+255),w,b
 13617  00450A  ECAA  F01C         	call	_LCD_goto_line
 13618                           
 13619                           ;src\LCD_44780.c: 139: LCD_shift_cursor (1, x-1);
 13620  00450E  0100               	movlb	0	; () banked
 13621  004510  056F               	decf	LCD_goto_xy@x& (0+255),w,b
 13622  004512  0100               	movlb	0	; () banked
 13623  004514  6F6B               	movwf	LCD_shift_cursor@number_of_shift& (0+255),b
 13624  004516  0E01               	movlw	1
 13625  004518  ECF5  F020         	call	_LCD_shift_cursor
 13626  00451C  0012               	return		;funcret
 13627  00451E                     __end_of_LCD_goto_xy:
 13628                           	opt stack 0
 13629                           tblptru	equ	0xFF8
 13630                           tblptrh	equ	0xFF7
 13631                           tblptrl	equ	0xFF6
 13632                           tablat	equ	0xFF5
 13633                           prodh	equ	0xFF4
 13634                           prodl	equ	0xFF3
 13635                           intcon	equ	0xFF2
 13636                           intcon2	equ	0xFF1
 13637                           postinc0	equ	0xFEE
 13638                           wreg	equ	0xFE8
 13639                           indf1	equ	0xFE7
 13640                           postdec1	equ	0xFE5
 13641                           plusw1	equ	0xFE3
 13642                           fsr1h	equ	0xFE2
 13643                           fsr1l	equ	0xFE1
 13644                           indf2	equ	0xFDF
 13645                           postinc2	equ	0xFDE
 13646                           postdec2	equ	0xFDD
 13647                           plusw2	equ	0xFDB
 13648                           fsr2h	equ	0xFDA
 13649                           fsr2l	equ	0xFD9
 13650                           status	equ	0xFD8
 13651                           
 13652 ;; *************** function _LCD_shift_cursor *****************
 13653 ;; Defined at:
 13654 ;;		line 98 in file "C:/Users/simon/Desktop/LaurTec_PIC_libraries_v_3.3.1 - Copia/src\LCD_44780.c"
 13655 ;; Parameters:    Size  Location     Type
 13656 ;;  shift           1    wreg     unsigned char 
 13657 ;;  number_of_sh    1   11[BANK0 ] unsigned char 
 13658 ;; Auto vars:     Size  Location     Type
 13659 ;;  shift           1   12[BANK0 ] unsigned char 
 13660 ;;  i               1   13[BANK0 ] unsigned char 
 13661 ;; Return value:  Size  Location     Type
 13662 ;;                  1    wreg      void 
 13663 ;; Registers used:
 13664 ;;		wreg, status,2, status,0, prodl, prodh, cstack
 13665 ;; Tracked objects:
 13666 ;;		On entry : 0/0
 13667 ;;		On exit  : 0/0
 13668 ;;		Unchanged: 0/0
 13669 ;; Data sizes:     COMRAM   BANK0   BANK1   BANK2   BANK3   BANK4   BANK5   BANK6   BANK7
 13670 ;;      Params:         0       1       0       0       0       0       0       0       0
 13671 ;;      Locals:         0       2       0       0       0       0       0       0       0
 13672 ;;      Temps:          0       0       0       0       0       0       0       0       0
 13673 ;;      Totals:         0       3       0       0       0       0       0       0       0
 13674 ;;Total ram usage:        3 bytes
 13675 ;; Hardware stack levels used:    1
 13676 ;; Hardware stack levels required when called:    6
 13677 ;; This function calls:
 13678 ;;		_LCD_send_command
 13679 ;; This function is called by:
 13680 ;;		_LCD_goto_xy
 13681 ;; This function uses a non-reentrant model
 13682 ;;
 13683                           
 13684                           	psect	text43
 13685  0041EA                     __ptext43:
 13686                           	opt stack 0
 13687  0041EA                     _LCD_shift_cursor:
 13688                           	opt stack 23
 13689                           
 13690                           ;incstack = 0
 13691                           ;LCD_shift_cursor@shift stored from wreg
 13692  0041EA  0100               	movlb	0	; () banked
 13693  0041EC  6F6C               	movwf	LCD_shift_cursor@shift& (0+255),b
 13694                           
 13695                           ;src\LCD_44780.c: 100: unsigned char i;
 13696                           ;src\LCD_44780.c: 102: for (i=0; i < number_of_shift; i++) {
 13697  0041EE  0E00               	movlw	0
 13698  0041F0  0100               	movlb	0	; () banked
 13699  0041F2  6F6D               	movwf	LCD_shift_cursor@i& (0+255),b
 13700  0041F4  D019               	goto	l6111
 13701  0041F6                     l6107:
 13702                           
 13703                           ; BSR set to: 0
 13704                           ;src\LCD_44780.c: 103: LCD_send_command (0,0,0,1);
 13705  0041F6  0E00               	movlw	0
 13706  0041F8  0100               	movlb	0	; () banked
 13707  0041FA  6F68               	movwf	LCD_send_command@D2& (0+255),b
 13708  0041FC  0E00               	movlw	0
 13709  0041FE  0100               	movlb	0	; () banked
 13710  004200  6F69               	movwf	LCD_send_command@D1& (0+255),b
 13711  004202  0E01               	movlw	1
 13712  004204  0100               	movlb	0	; () banked
 13713  004206  6F6A               	movwf	LCD_send_command@D0& (0+255),b
 13714  004208  0E00               	movlw	0
 13715  00420A  EC9C  F021         	call	_LCD_send_command
 13716                           
 13717                           ;src\LCD_44780.c: 104: LCD_send_command (0,shift,0,0);
 13718  00420E  C06C  F068         	movff	LCD_shift_cursor@shift,LCD_send_command@D2
 13719  004212  0E00               	movlw	0
 13720  004214  0100               	movlb	0	; () banked
 13721  004216  6F69               	movwf	LCD_send_command@D1& (0+255),b
 13722  004218  0E00               	movlw	0
 13723  00421A  0100               	movlb	0	; () banked
 13724  00421C  6F6A               	movwf	LCD_send_command@D0& (0+255),b
 13725  00421E  0E00               	movlw	0
 13726  004220  EC9C  F021         	call	_LCD_send_command
 13727  004224  0100               	movlb	0	; () banked
 13728  004226  2B6D               	incf	LCD_shift_cursor@i& (0+255),f,b
 13729  004228                     l6111:
 13730                           
 13731                           ; BSR set to: 0
 13732  004228  0100               	movlb	0	; () banked
 13733  00422A  516B               	movf	LCD_shift_cursor@number_of_shift& (0+255),w,b
 13734  00422C  0100               	movlb	0	; () banked
 13735  00422E  5D6D               	subwf	LCD_shift_cursor@i& (0+255),w,b
 13736  004230  B0D8               	btfsc	status,0,c
 13737  004232  0012               	return	
 13738  004234  D7E0               	goto	l6107
 13739  004236                     __end_of_LCD_shift_cursor:
 13740                           	opt stack 0
 13741                           tblptru	equ	0xFF8
 13742                           tblptrh	equ	0xFF7
 13743                           tblptrl	equ	0xFF6
 13744                           tablat	equ	0xFF5
 13745                           prodh	equ	0xFF4
 13746                           prodl	equ	0xFF3
 13747                           intcon	equ	0xFF2
 13748                           intcon2	equ	0xFF1
 13749                           postinc0	equ	0xFEE
 13750                           wreg	equ	0xFE8
 13751                           indf1	equ	0xFE7
 13752                           postdec1	equ	0xFE5
 13753                           plusw1	equ	0xFE3
 13754                           fsr1h	equ	0xFE2
 13755                           fsr1l	equ	0xFE1
 13756                           indf2	equ	0xFDF
 13757                           postinc2	equ	0xFDE
 13758                           postdec2	equ	0xFDD
 13759                           plusw2	equ	0xFDB
 13760                           fsr2h	equ	0xFDA
 13761                           fsr2l	equ	0xFD9
 13762                           status	equ	0xFD8
 13763                           
 13764 ;; *************** function _LCD_goto_line *****************
 13765 ;; Defined at:
 13766 ;;		line 111 in file "C:/Users/simon/Desktop/LaurTec_PIC_libraries_v_3.3.1 - Copia/src\LCD_44780.c"
 13767 ;; Parameters:    Size  Location     Type
 13768 ;;  line            1    wreg     unsigned char 
 13769 ;; Auto vars:     Size  Location     Type
 13770 ;;  line            1   11[BANK0 ] unsigned char 
 13771 ;; Return value:  Size  Location     Type
 13772 ;;                  1    wreg      void 
 13773 ;; Registers used:
 13774 ;;		wreg, status,2, status,0, prodl, prodh, cstack
 13775 ;; Tracked objects:
 13776 ;;		On entry : 0/0
 13777 ;;		On exit  : 0/0
 13778 ;;		Unchanged: 0/0
 13779 ;; Data sizes:     COMRAM   BANK0   BANK1   BANK2   BANK3   BANK4   BANK5   BANK6   BANK7
 13780 ;;      Params:         0       0       0       0       0       0       0       0       0
 13781 ;;      Locals:         0       1       0       0       0       0       0       0       0
 13782 ;;      Temps:          0       0       0       0       0       0       0       0       0
 13783 ;;      Totals:         0       1       0       0       0       0       0       0       0
 13784 ;;Total ram usage:        1 bytes
 13785 ;; Hardware stack levels used:    1
 13786 ;; Hardware stack levels required when called:    6
 13787 ;; This function calls:
 13788 ;;		_LCD_send_command
 13789 ;; This function is called by:
 13790 ;;		_LCD_goto_xy
 13791 ;;		_main
 13792 ;;		_ricarica
 13793 ;;		_stabilizzazione
 13794 ;;		_display_voltage
 13795 ;; This function uses a non-reentrant model
 13796 ;;
 13797                           
 13798                           	psect	text44
 13799  003954                     __ptext44:
 13800                           	opt stack 0
 13801  003954                     _LCD_goto_line:
 13802                           	opt stack 22
 13803                           
 13804                           ; BSR set to: 0
 13805                           ;incstack = 0
 13806                           ;LCD_goto_line@line stored from wreg
 13807  003954  0100               	movlb	0	; () banked
 13808  003956  6F6B               	movwf	LCD_goto_line@line& (0+255),b
 13809                           
 13810                           ;src\LCD_44780.c: 113: switch(line) {
 13811  003958  D064               	goto	l5815
 13812  00395A                     l5807:
 13813  00395A  0E00               	movlw	0
 13814  00395C  0100               	movlb	0	; () banked
 13815  00395E  6F68               	movwf	LCD_send_command@D2& (0+255),b
 13816  003960  0E00               	movlw	0
 13817  003962  0100               	movlb	0	; () banked
 13818  003964  6F69               	movwf	LCD_send_command@D1& (0+255),b
 13819  003966  0E00               	movlw	0
 13820  003968  0100               	movlb	0	; () banked
 13821  00396A  6F6A               	movwf	LCD_send_command@D0& (0+255),b
 13822  00396C  0E01               	movlw	1
 13823  00396E  EC9C  F021         	call	_LCD_send_command
 13824                           
 13825                           ;src\LCD_44780.c: 116: LCD_send_command(0,0,0,0);
 13826  003972  0E00               	movlw	0
 13827  003974  0100               	movlb	0	; () banked
 13828  003976  6F68               	movwf	LCD_send_command@D2& (0+255),b
 13829  003978  0E00               	movlw	0
 13830  00397A  0100               	movlb	0	; () banked
 13831  00397C  6F69               	movwf	LCD_send_command@D1& (0+255),b
 13832  00397E  0E00               	movlw	0
 13833  003980  0100               	movlb	0	; () banked
 13834  003982  6F6A               	movwf	LCD_send_command@D0& (0+255),b
 13835  003984  0E00               	movlw	0
 13836  003986  EC9C  F021         	call	_LCD_send_command
 13837                           
 13838                           ;src\LCD_44780.c: 117: break;
 13839  00398A  0012               	return	
 13840  00398C                     l5809:
 13841  00398C  0E01               	movlw	1
 13842  00398E  0100               	movlb	0	; () banked
 13843  003990  6F68               	movwf	LCD_send_command@D2& (0+255),b
 13844  003992  0E00               	movlw	0
 13845  003994  0100               	movlb	0	; () banked
 13846  003996  6F69               	movwf	LCD_send_command@D1& (0+255),b
 13847  003998  0E00               	movlw	0
 13848  00399A  0100               	movlb	0	; () banked
 13849  00399C  6F6A               	movwf	LCD_send_command@D0& (0+255),b
 13850  00399E  0E01               	movlw	1
 13851  0039A0  EC9C  F021         	call	_LCD_send_command
 13852                           
 13853                           ;src\LCD_44780.c: 120: LCD_send_command(0,0,0,0);
 13854  0039A4  0E00               	movlw	0
 13855  0039A6  0100               	movlb	0	; () banked
 13856  0039A8  6F68               	movwf	LCD_send_command@D2& (0+255),b
 13857  0039AA  0E00               	movlw	0
 13858  0039AC  0100               	movlb	0	; () banked
 13859  0039AE  6F69               	movwf	LCD_send_command@D1& (0+255),b
 13860  0039B0  0E00               	movlw	0
 13861  0039B2  0100               	movlb	0	; () banked
 13862  0039B4  6F6A               	movwf	LCD_send_command@D0& (0+255),b
 13863  0039B6  0E00               	movlw	0
 13864  0039B8  EC9C  F021         	call	_LCD_send_command
 13865                           
 13866                           ;src\LCD_44780.c: 121: break;
 13867  0039BC  0012               	return	
 13868  0039BE                     l5811:
 13869  0039BE  0E00               	movlw	0
 13870  0039C0  0100               	movlb	0	; () banked
 13871  0039C2  6F68               	movwf	LCD_send_command@D2& (0+255),b
 13872  0039C4  0E00               	movlw	0
 13873  0039C6  0100               	movlb	0	; () banked
 13874  0039C8  6F69               	movwf	LCD_send_command@D1& (0+255),b
 13875  0039CA  0E01               	movlw	1
 13876  0039CC  0100               	movlb	0	; () banked
 13877  0039CE  6F6A               	movwf	LCD_send_command@D0& (0+255),b
 13878  0039D0  0E01               	movlw	1
 13879  0039D2  EC9C  F021         	call	_LCD_send_command
 13880                           
 13881                           ;src\LCD_44780.c: 124: LCD_send_command(0,1,0,0);
 13882  0039D6  0E01               	movlw	1
 13883  0039D8  0100               	movlb	0	; () banked
 13884  0039DA  6F68               	movwf	LCD_send_command@D2& (0+255),b
 13885  0039DC  0E00               	movlw	0
 13886  0039DE  0100               	movlb	0	; () banked
 13887  0039E0  6F69               	movwf	LCD_send_command@D1& (0+255),b
 13888  0039E2  0E00               	movlw	0
 13889  0039E4  0100               	movlb	0	; () banked
 13890  0039E6  6F6A               	movwf	LCD_send_command@D0& (0+255),b
 13891  0039E8  0E00               	movlw	0
 13892  0039EA  EC9C  F021         	call	_LCD_send_command
 13893                           
 13894                           ;src\LCD_44780.c: 125: break;
 13895  0039EE  0012               	return	
 13896  0039F0                     l5813:
 13897  0039F0  0E01               	movlw	1
 13898  0039F2  0100               	movlb	0	; () banked
 13899  0039F4  6F68               	movwf	LCD_send_command@D2& (0+255),b
 13900  0039F6  0E00               	movlw	0
 13901  0039F8  0100               	movlb	0	; () banked
 13902  0039FA  6F69               	movwf	LCD_send_command@D1& (0+255),b
 13903  0039FC  0E01               	movlw	1
 13904  0039FE  0100               	movlb	0	; () banked
 13905  003A00  6F6A               	movwf	LCD_send_command@D0& (0+255),b
 13906  003A02  0E01               	movlw	1
 13907  003A04  EC9C  F021         	call	_LCD_send_command
 13908                           
 13909                           ;src\LCD_44780.c: 128: LCD_send_command(0,1,0,0);
 13910  003A08  0E01               	movlw	1
 13911  003A0A  0100               	movlb	0	; () banked
 13912  003A0C  6F68               	movwf	LCD_send_command@D2& (0+255),b
 13913  003A0E  0E00               	movlw	0
 13914  003A10  0100               	movlb	0	; () banked
 13915  003A12  6F69               	movwf	LCD_send_command@D1& (0+255),b
 13916  003A14  0E00               	movlw	0
 13917  003A16  0100               	movlb	0	; () banked
 13918  003A18  6F6A               	movwf	LCD_send_command@D0& (0+255),b
 13919  003A1A  0E00               	movlw	0
 13920  003A1C  EC9C  F021         	call	_LCD_send_command
 13921                           
 13922                           ;src\LCD_44780.c: 129: }
 13923  003A20  0012               	return	
 13924  003A22                     l5815:
 13925  003A22  0100               	movlb	0	; () banked
 13926  003A24  516B               	movf	LCD_goto_line@line& (0+255),w,b
 13927                           
 13928                           ; Switch size 1, requested type "space"
 13929                           ; Number of cases is 4, Range of values is 1 to 4
 13930                           ; switch strategies available:
 13931                           ; Name         Instructions Cycles
 13932                           ; simple_byte           13     7 (average)
 13933                           ;	Chosen strategy is simple_byte
 13934  003A26  0A01               	xorlw	1	; case 1
 13935  003A28  B4D8               	btfsc	status,2,c
 13936  003A2A  D797               	goto	l5807
 13937  003A2C  0A03               	xorlw	3	; case 2
 13938  003A2E  B4D8               	btfsc	status,2,c
 13939  003A30  D7AD               	goto	l5809
 13940  003A32  0A01               	xorlw	1	; case 3
 13941  003A34  B4D8               	btfsc	status,2,c
 13942  003A36  D7C3               	goto	l5811
 13943  003A38  0A07               	xorlw	7	; case 4
 13944  003A3A  A4D8               	btfss	status,2,c
 13945  003A3C  0012               	return	
 13946  003A3E  D7D8               	goto	l5813
 13947  003A40                     __end_of_LCD_goto_line:
 13948                           	opt stack 0
 13949                           tblptru	equ	0xFF8
 13950                           tblptrh	equ	0xFF7
 13951                           tblptrl	equ	0xFF6
 13952                           tablat	equ	0xFF5
 13953                           prodh	equ	0xFF4
 13954                           prodl	equ	0xFF3
 13955                           intcon	equ	0xFF2
 13956                           intcon2	equ	0xFF1
 13957                           postinc0	equ	0xFEE
 13958                           wreg	equ	0xFE8
 13959                           indf1	equ	0xFE7
 13960                           postdec1	equ	0xFE5
 13961                           plusw1	equ	0xFE3
 13962                           fsr1h	equ	0xFE2
 13963                           fsr1l	equ	0xFE1
 13964                           indf2	equ	0xFDF
 13965                           postinc2	equ	0xFDE
 13966                           postdec2	equ	0xFDD
 13967                           plusw2	equ	0xFDB
 13968                           fsr2h	equ	0xFDA
 13969                           fsr2l	equ	0xFD9
 13970                           status	equ	0xFD8
 13971                           
 13972 ;; *************** function _LCD_send_command *****************
 13973 ;; Defined at:
 13974 ;;		line 61 in file "C:/Users/simon/Desktop/LaurTec_PIC_libraries_v_3.3.1 - Copia/src\LCD_44780.c"
 13975 ;; Parameters:    Size  Location     Type
 13976 ;;  D3              1    wreg     unsigned char 
 13977 ;;  D2              1    8[BANK0 ] unsigned char 
 13978 ;;  D1              1    9[BANK0 ] unsigned char 
 13979 ;;  D0              1   10[BANK0 ] unsigned char 
 13980 ;; Auto vars:     Size  Location     Type
 13981 ;;  D3              1   31[COMRAM] unsigned char 
 13982 ;; Return value:  Size  Location     Type
 13983 ;;                  1    wreg      void 
 13984 ;; Registers used:
 13985 ;;		wreg, status,2, status,0, prodl, prodh, cstack
 13986 ;; Tracked objects:
 13987 ;;		On entry : 0/0
 13988 ;;		On exit  : 0/0
 13989 ;;		Unchanged: 0/0
 13990 ;; Data sizes:     COMRAM   BANK0   BANK1   BANK2   BANK3   BANK4   BANK5   BANK6   BANK7
 13991 ;;      Params:         0       3       0       0       0       0       0       0       0
 13992 ;;      Locals:         1       0       0       0       0       0       0       0       0
 13993 ;;      Temps:          0       0       0       0       0       0       0       0       0
 13994 ;;      Totals:         1       3       0       0       0       0       0       0       0
 13995 ;;Total ram usage:        4 bytes
 13996 ;; Hardware stack levels used:    1
 13997 ;; Hardware stack levels required when called:    5
 13998 ;; This function calls:
 13999 ;;		_LCD_enable_pulse
 14000 ;; This function is called by:
 14001 ;;		_LCD_home
 14002 ;;		_LCD_shift_cursor
 14003 ;;		_LCD_goto_line
 14004 ;;		_LCD_write_char
 14005 ;;		_LCD_clear
 14006 ;;		_LCD_cursor
 14007 ;;		_LCD_initialize
 14008 ;;		_LCD_shift
 14009 ;; This function uses a non-reentrant model
 14010 ;;
 14011                           
 14012                           	psect	text45
 14013  004338                     __ptext45:
 14014                           	opt stack 0
 14015  004338                     _LCD_send_command:
 14016                           	opt stack 21
 14017                           
 14018                           ;incstack = 0
 14019                           ;LCD_send_command@D3 stored from wreg
 14020  004338  6E20               	movwf	LCD_send_command@D3,c
 14021                           
 14022                           ;src\LCD_44780.c: 63: LATBbits.LATB4 = D0;
 14023  00433A  0100               	movlb	0	; () banked
 14024  00433C  B16A               	btfsc	LCD_send_command@D0& (0+255),0,b
 14025  00433E  D002               	bra	u5475
 14026  004340  988A               	bcf	3978,4,c	;volatile
 14027  004342  D001               	bra	u5476
 14028  004344                     u5475:
 14029  004344  888A               	bsf	3978,4,c	;volatile
 14030  004346                     u5476:
 14031                           
 14032                           ;src\LCD_44780.c: 64: LATBbits.LATB5 = D1;
 14033  004346  0100               	movlb	0	; () banked
 14034  004348  B169               	btfsc	LCD_send_command@D1& (0+255),0,b
 14035  00434A  D002               	bra	u5485
 14036  00434C  9A8A               	bcf	3978,5,c	;volatile
 14037  00434E  D001               	bra	u5486
 14038  004350                     u5485:
 14039  004350  8A8A               	bsf	3978,5,c	;volatile
 14040  004352                     u5486:
 14041                           
 14042                           ;src\LCD_44780.c: 65: LATBbits.LATB6 = D2;
 14043  004352  0100               	movlb	0	; () banked
 14044  004354  B168               	btfsc	LCD_send_command@D2& (0+255),0,b
 14045  004356  D002               	bra	u5495
 14046  004358  9C8A               	bcf	3978,6,c	;volatile
 14047  00435A  D001               	bra	u5496
 14048  00435C                     u5495:
 14049  00435C  8C8A               	bsf	3978,6,c	;volatile
 14050  00435E                     u5496:
 14051                           
 14052                           ;src\LCD_44780.c: 66: LATBbits.LATB7 = D3;
 14053  00435E  B020               	btfsc	LCD_send_command@D3,0,c
 14054  004360  D002               	bra	u5505
 14055  004362  9E8A               	bcf	3978,7,c	;volatile
 14056  004364  D001               	bra	u5506
 14057  004366                     u5505:
 14058  004366  8E8A               	bsf	3978,7,c	;volatile
 14059  004368                     u5506:
 14060                           
 14061                           ;src\LCD_44780.c: 67: LCD_enable_pulse ();
 14062  004368  EC70  F022         	call	_LCD_enable_pulse	;wreg free
 14063  00436C  0012               	return		;funcret
 14064  00436E                     __end_of_LCD_send_command:
 14065                           	opt stack 0
 14066                           tblptru	equ	0xFF8
 14067                           tblptrh	equ	0xFF7
 14068                           tblptrl	equ	0xFF6
 14069                           tablat	equ	0xFF5
 14070                           prodh	equ	0xFF4
 14071                           prodl	equ	0xFF3
 14072                           intcon	equ	0xFF2
 14073                           intcon2	equ	0xFF1
 14074                           postinc0	equ	0xFEE
 14075                           wreg	equ	0xFE8
 14076                           indf1	equ	0xFE7
 14077                           postdec1	equ	0xFE5
 14078                           plusw1	equ	0xFE3
 14079                           fsr1h	equ	0xFE2
 14080                           fsr1l	equ	0xFE1
 14081                           indf2	equ	0xFDF
 14082                           postinc2	equ	0xFDE
 14083                           postdec2	equ	0xFDD
 14084                           plusw2	equ	0xFDB
 14085                           fsr2h	equ	0xFDA
 14086                           fsr2l	equ	0xFD9
 14087                           status	equ	0xFD8
 14088                           
 14089 ;; *************** function _LCD_enable_pulse *****************
 14090 ;; Defined at:
 14091 ;;		line 49 in file "C:/Users/simon/Desktop/LaurTec_PIC_libraries_v_3.3.1 - Copia/src\LCD_44780.c"
 14092 ;; Parameters:    Size  Location     Type
 14093 ;;		None
 14094 ;; Auto vars:     Size  Location     Type
 14095 ;;		None
 14096 ;; Return value:  Size  Location     Type
 14097 ;;                  1    wreg      void 
 14098 ;; Registers used:
 14099 ;;		wreg, status,2, status,0, prodl, prodh, cstack
 14100 ;; Tracked objects:
 14101 ;;		On entry : 0/0
 14102 ;;		On exit  : 0/0
 14103 ;;		Unchanged: 0/0
 14104 ;; Data sizes:     COMRAM   BANK0   BANK1   BANK2   BANK3   BANK4   BANK5   BANK6   BANK7
 14105 ;;      Params:         0       0       0       0       0       0       0       0       0
 14106 ;;      Locals:         0       0       0       0       0       0       0       0       0
 14107 ;;      Temps:          0       0       0       0       0       0       0       0       0
 14108 ;;      Totals:         0       0       0       0       0       0       0       0       0
 14109 ;;Total ram usage:        0 bytes
 14110 ;; Hardware stack levels used:    1
 14111 ;; Hardware stack levels required when called:    4
 14112 ;; This function calls:
 14113 ;;		_delay_ms
 14114 ;; This function is called by:
 14115 ;;		_LCD_send_command
 14116 ;; This function uses a non-reentrant model
 14117 ;;
 14118                           
 14119                           	psect	text46
 14120  0044E0                     __ptext46:
 14121                           	opt stack 0
 14122  0044E0                     _LCD_enable_pulse:
 14123                           	opt stack 21
 14124                           
 14125                           ;src\LCD_44780.c: 51: LATBbits.LATB3 = 1;
 14126                           
 14127                           ;incstack = 0
 14128  0044E0  868A               	bsf	3978,3,c	;volatile
 14129                           
 14130                           ;src\LCD_44780.c: 52: delay_ms (1);
 14131  0044E2  0E00               	movlw	0
 14132  0044E4  0100               	movlb	0	; () banked
 14133  0044E6  6F67               	movwf	(delay_ms@value_ms+1)& (0+255),b
 14134  0044E8  0E01               	movlw	1
 14135  0044EA  6F66               	movwf	delay_ms@value_ms& (0+255),b
 14136  0044EC  EC63  F021         	call	_delay_ms	;wreg free
 14137                           
 14138                           ;src\LCD_44780.c: 53: LATBbits.LATB3 = 0;
 14139  0044F0  968A               	bcf	3978,3,c	;volatile
 14140                           
 14141                           ;src\LCD_44780.c: 54: delay_ms (1);
 14142  0044F2  0E00               	movlw	0
 14143  0044F4  0100               	movlb	0	; () banked
 14144  0044F6  6F67               	movwf	(delay_ms@value_ms+1)& (0+255),b
 14145  0044F8  0E01               	movlw	1
 14146  0044FA  6F66               	movwf	delay_ms@value_ms& (0+255),b
 14147  0044FC  EC63  F021         	call	_delay_ms	;wreg free
 14148  004500  0012               	return		;funcret
 14149  004502                     __end_of_LCD_enable_pulse:
 14150                           	opt stack 0
 14151                           tblptru	equ	0xFF8
 14152                           tblptrh	equ	0xFF7
 14153                           tblptrl	equ	0xFF6
 14154                           tablat	equ	0xFF5
 14155                           prodh	equ	0xFF4
 14156                           prodl	equ	0xFF3
 14157                           intcon	equ	0xFF2
 14158                           intcon2	equ	0xFF1
 14159                           postinc0	equ	0xFEE
 14160                           wreg	equ	0xFE8
 14161                           indf1	equ	0xFE7
 14162                           postdec1	equ	0xFE5
 14163                           plusw1	equ	0xFE3
 14164                           fsr1h	equ	0xFE2
 14165                           fsr1l	equ	0xFE1
 14166                           indf2	equ	0xFDF
 14167                           postinc2	equ	0xFDE
 14168                           postdec2	equ	0xFDD
 14169                           plusw2	equ	0xFDB
 14170                           fsr2h	equ	0xFDA
 14171                           fsr2l	equ	0xFD9
 14172                           status	equ	0xFD8
 14173                           
 14174 ;; *************** function _delay_ms *****************
 14175 ;; Defined at:
 14176 ;;		line 61 in file "C:/Users/simon/Desktop/LaurTec_PIC_libraries_v_3.3.1 - Copia/src\delay.c"
 14177 ;; Parameters:    Size  Location     Type
 14178 ;;  value_ms        2    6[BANK0 ] unsigned int 
 14179 ;; Auto vars:     Size  Location     Type
 14180 ;;		None
 14181 ;; Return value:  Size  Location     Type
 14182 ;;                  1    wreg      void 
 14183 ;; Registers used:
 14184 ;;		wreg, status,2, status,0, prodl, prodh, cstack
 14185 ;; Tracked objects:
 14186 ;;		On entry : 0/0
 14187 ;;		On exit  : 0/0
 14188 ;;		Unchanged: 0/0
 14189 ;; Data sizes:     COMRAM   BANK0   BANK1   BANK2   BANK3   BANK4   BANK5   BANK6   BANK7
 14190 ;;      Params:         0       2       0       0       0       0       0       0       0
 14191 ;;      Locals:         0       0       0       0       0       0       0       0       0
 14192 ;;      Temps:          0       0       0       0       0       0       0       0       0
 14193 ;;      Totals:         0       2       0       0       0       0       0       0       0
 14194 ;;Total ram usage:        2 bytes
 14195 ;; Hardware stack levels used:    1
 14196 ;; Hardware stack levels required when called:    3
 14197 ;; This function calls:
 14198 ;;		___wmul
 14199 ;; This function is called by:
 14200 ;;		_LCD_enable_pulse
 14201 ;;		_LCD_initialize
 14202 ;;		_delay_s
 14203 ;;		_main
 14204 ;;		_ricarica
 14205 ;;		_stabilizzazione
 14206 ;;		_scarica
 14207 ;;		_read_adc
 14208 ;; This function uses a non-reentrant model
 14209 ;;
 14210                           
 14211                           	psect	text47
 14212  0042C6                     __ptext47:
 14213                           	opt stack 0
 14214  0042C6                     _delay_ms:
 14215                           	opt stack 24
 14216                           
 14217                           ;src\delay.c: 73: clock_counter_reference = value_ms * delay_quartz_frequency_value;
 14218                           
 14219                           ;incstack = 0
 14220  0042C6  C03F  F060         	movff	_delay_quartz_frequency_value,___wmul@multiplier	;volatile
 14221  0042CA  0100               	movlb	0	; () banked
 14222  0042CC  6B61               	clrf	(___wmul@multiplier+1)& (0+255),b
 14223  0042CE  C066  F062         	movff	delay_ms@value_ms,___wmul@multiplicand
 14224  0042D2  C067  F063         	movff	delay_ms@value_ms+1,___wmul@multiplicand+1
 14225  0042D6  ECB7  F021         	call	___wmul	;wreg free
 14226  0042DA  C060  F13F         	movff	?___wmul,_clock_counter_reference	;volatile
 14227  0042DE  C061  F140         	movff	?___wmul+1,_clock_counter_reference+1	;volatile
 14228                           
 14229                           ;src\delay.c: 75: while (clock_counter_reference) {
 14230  0042E2  D007               	goto	l163
 14231  0042E4                     l4759:
 14232                           
 14233                           ;src\delay.c: 85: _delay(240);
 14234  0042E4  0E50               	movlw	80
 14235  0042E6                     u7247:
 14236  0042E6  2EE8               	decfsz	wreg,f,c
 14237  0042E8  D7FE               	goto	u7247
 14238                           
 14239                           ;src\delay.c: 88: clock_counter_reference--;
 14240  0042EA  0101               	movlb	1	; () banked
 14241  0042EC  073F               	decf	_clock_counter_reference& (0+255),f,b	;volatile
 14242  0042EE  A0D8               	btfss	status,0,c
 14243  0042F0  0740               	decf	(_clock_counter_reference+1)& (0+255),f,b	;volatile
 14244  0042F2                     l163:
 14245  0042F2  0101               	movlb	1	; () banked
 14246  0042F4  513F               	movf	_clock_counter_reference& (0+255),w,b	;volatile
 14247  0042F6  0101               	movlb	1	; () banked
 14248  0042F8  1140               	iorwf	(_clock_counter_reference+1)& (0+255),w,b	;volatile
 14249  0042FA  B4D8               	btfsc	status,2,c
 14250  0042FC  0012               	return	
 14251  0042FE  D7F2               	goto	l4759
 14252  004300                     __end_of_delay_ms:
 14253                           	opt stack 0
 14254                           tblptru	equ	0xFF8
 14255                           tblptrh	equ	0xFF7
 14256                           tblptrl	equ	0xFF6
 14257                           tablat	equ	0xFF5
 14258                           prodh	equ	0xFF4
 14259                           prodl	equ	0xFF3
 14260                           intcon	equ	0xFF2
 14261                           intcon2	equ	0xFF1
 14262                           postinc0	equ	0xFEE
 14263                           wreg	equ	0xFE8
 14264                           indf1	equ	0xFE7
 14265                           postdec1	equ	0xFE5
 14266                           plusw1	equ	0xFE3
 14267                           fsr1h	equ	0xFE2
 14268                           fsr1l	equ	0xFE1
 14269                           indf2	equ	0xFDF
 14270                           postinc2	equ	0xFDE
 14271                           postdec2	equ	0xFDD
 14272                           plusw2	equ	0xFDB
 14273                           fsr2h	equ	0xFDA
 14274                           fsr2l	equ	0xFD9
 14275                           status	equ	0xFD8
 14276                           
 14277 ;; *************** function ___wmul *****************
 14278 ;; Defined at:
 14279 ;;		line 15 in file "C:\Program Files (x86)\Microchip\xc8\v1.37\sources\common\Umul16.c"
 14280 ;; Parameters:    Size  Location     Type
 14281 ;;  multiplier      2    0[BANK0 ] unsigned int 
 14282 ;;  multiplicand    2    2[BANK0 ] unsigned int 
 14283 ;; Auto vars:     Size  Location     Type
 14284 ;;  product         2    4[BANK0 ] unsigned int 
 14285 ;; Return value:  Size  Location     Type
 14286 ;;                  2    0[BANK0 ] unsigned int 
 14287 ;; Registers used:
 14288 ;;		wreg, status,2, status,0, prodl, prodh
 14289 ;; Tracked objects:
 14290 ;;		On entry : 0/0
 14291 ;;		On exit  : 0/0
 14292 ;;		Unchanged: 0/0
 14293 ;; Data sizes:     COMRAM   BANK0   BANK1   BANK2   BANK3   BANK4   BANK5   BANK6   BANK7
 14294 ;;      Params:         0       4       0       0       0       0       0       0       0
 14295 ;;      Locals:         0       2       0       0       0       0       0       0       0
 14296 ;;      Temps:          0       0       0       0       0       0       0       0       0
 14297 ;;      Totals:         0       6       0       0       0       0       0       0       0
 14298 ;;Total ram usage:        6 bytes
 14299 ;; Hardware stack levels used:    1
 14300 ;; Hardware stack levels required when called:    2
 14301 ;; This function calls:
 14302 ;;		Nothing
 14303 ;; This function is called by:
 14304 ;;		_delay_ms
 14305 ;;		_main
 14306 ;;		_sprintf
 14307 ;; This function uses a non-reentrant model
 14308 ;;
 14309                           
 14310                           	psect	text48
 14311  00436E                     __ptext48:
 14312                           	opt stack 0
 14313  00436E                     ___wmul:
 14314                           	opt stack 25
 14315                           
 14316                           ; BSR set to: 1
 14317                           ;incstack = 0
 14318  00436E  0100               	movlb	0	; () banked
 14319  004370  5160               	movf	___wmul@multiplier& (0+255),w,b
 14320  004372  0100               	movlb	0	; () banked
 14321  004374  0362               	mulwf	___wmul@multiplicand& (0+255),b
 14322  004376  CFF3 F064          	movff	prodl,___wmul@product
 14323  00437A  CFF4 F065          	movff	prodh,___wmul@product+1
 14324  00437E  0100               	movlb	0	; () banked
 14325  004380  5160               	movf	___wmul@multiplier& (0+255),w,b
 14326  004382  0100               	movlb	0	; () banked
 14327  004384  0363               	mulwf	(___wmul@multiplicand+1)& (0+255),b
 14328  004386  50F3               	movf	prodl,w,c
 14329  004388  0100               	movlb	0	; () banked
 14330  00438A  2765               	addwf	(___wmul@product+1)& (0+255),f,b
 14331  00438C  0100               	movlb	0	; () banked
 14332  00438E  5161               	movf	(___wmul@multiplier+1)& (0+255),w,b
 14333  004390  0100               	movlb	0	; () banked
 14334  004392  0362               	mulwf	___wmul@multiplicand& (0+255),b
 14335  004394  50F3               	movf	prodl,w,c
 14336  004396  0100               	movlb	0	; () banked
 14337  004398  2765               	addwf	(___wmul@product+1)& (0+255),f,b
 14338                           
 14339                           ; BSR set to: 0
 14340  00439A  C064  F060         	movff	___wmul@product,?___wmul
 14341  00439E  C065  F061         	movff	___wmul@product+1,?___wmul+1
 14342  0043A2  0012               	return	
 14343  0043A4                     __end_of___wmul:
 14344                           	opt stack 0
 14345                           tblptru	equ	0xFF8
 14346                           tblptrh	equ	0xFF7
 14347                           tblptrl	equ	0xFF6
 14348                           tablat	equ	0xFF5
 14349                           prodh	equ	0xFF4
 14350                           prodl	equ	0xFF3
 14351                           intcon	equ	0xFF2
 14352                           intcon2	equ	0xFF1
 14353                           postinc0	equ	0xFEE
 14354                           wreg	equ	0xFE8
 14355                           indf1	equ	0xFE7
 14356                           postdec1	equ	0xFE5
 14357                           plusw1	equ	0xFE3
 14358                           fsr1h	equ	0xFE2
 14359                           fsr1l	equ	0xFE1
 14360                           indf2	equ	0xFDF
 14361                           postinc2	equ	0xFDE
 14362                           postdec2	equ	0xFDD
 14363                           plusw2	equ	0xFDB
 14364                           fsr2h	equ	0xFDA
 14365                           fsr2l	equ	0xFD9
 14366                           status	equ	0xFD8
 14367                           
 14368 ;; *************** function _isr_bassa *****************
 14369 ;; Defined at:
 14370 ;;		line 77 in file "batterua.c"
 14371 ;; Parameters:    Size  Location     Type
 14372 ;;		None
 14373 ;; Auto vars:     Size  Location     Type
 14374 ;;		None
 14375 ;; Return value:  Size  Location     Type
 14376 ;;                  1    wreg      void 
 14377 ;; Registers used:
 14378 ;;		wreg, status,2
 14379 ;; Tracked objects:
 14380 ;;		On entry : 0/0
 14381 ;;		On exit  : 0/0
 14382 ;;		Unchanged: 0/0
 14383 ;; Data sizes:     COMRAM   BANK0   BANK1   BANK2   BANK3   BANK4   BANK5   BANK6   BANK7
 14384 ;;      Params:         0       0       0       0       0       0       0       0       0
 14385 ;;      Locals:         0       0       0       0       0       0       0       0       0
 14386 ;;      Temps:         17       0       0       0       0       0       0       0       0
 14387 ;;      Totals:        17       0       0       0       0       0       0       0       0
 14388 ;;Total ram usage:       17 bytes
 14389 ;; Hardware stack levels used:    1
 14390 ;; Hardware stack levels required when called:    1
 14391 ;; This function calls:
 14392 ;;		Nothing
 14393 ;; This function is called by:
 14394 ;;		Interrupt level 1
 14395 ;; This function uses a non-reentrant model
 14396 ;;
 14397                           
 14398                           	psect	intcodelo
 14399  000018                     __pintcodelo:
 14400                           	opt stack 0
 14401  000018                     _isr_bassa:
 14402                           	opt stack 21
 14403                           
 14404                           ; BSR set to: 0
 14405                           ;incstack = 0
 14406  000018  8040               	bsf	btemp,0,c	;set compiler interrupt flag (level 1)
 14407  00001A  CFD8 F00F          	movff	status,??_isr_bassa
 14408  00001E  CFE8 F010          	movff	wreg,??_isr_bassa+1
 14409  000022  CFE0 F011          	movff	bsr,??_isr_bassa+2
 14410  000026  CFFA F012          	movff	pclath,??_isr_bassa+3
 14411  00002A  CFFB F013          	movff	pclatu,??_isr_bassa+4
 14412  00002E  CFE9 F014          	movff	fsr0l,??_isr_bassa+5
 14413  000032  CFEA F015          	movff	fsr0h,??_isr_bassa+6
 14414  000036  CFE1 F016          	movff	fsr1l,??_isr_bassa+7
 14415  00003A  CFE2 F017          	movff	fsr1h,??_isr_bassa+8
 14416  00003E  CFD9 F018          	movff	fsr2l,??_isr_bassa+9
 14417  000042  CFDA F019          	movff	fsr2h,??_isr_bassa+10
 14418  000046  CFF3 F01A          	movff	prodl,??_isr_bassa+11
 14419  00004A  CFF4 F01B          	movff	prodh,??_isr_bassa+12
 14420  00004E  CFF6 F01C          	movff	tblptrl,??_isr_bassa+13
 14421  000052  CFF7 F01D          	movff	tblptrh,??_isr_bassa+14
 14422  000056  CFF8 F01E          	movff	tblptru,??_isr_bassa+15
 14423  00005A  CFF5 F01F          	movff	tablat,??_isr_bassa+16
 14424                           
 14425                           ;batterua.c: 78: if (PIR1bits.TMR1IF == 1) {
 14426  00005E  A09E               	btfss	3998,0,c	;volatile
 14427  000060  D007               	goto	i1l221
 14428                           
 14429                           ;batterua.c: 80: TMR1H = 0x3C;
 14430  000062  0E3C               	movlw	60
 14431  000064  6ECF               	movwf	4047,c	;volatile
 14432                           
 14433                           ;batterua.c: 81: TMR1L = 0xB0;
 14434  000066  0EB0               	movlw	176
 14435  000068  6ECE               	movwf	4046,c	;volatile
 14436                           
 14437                           ;batterua.c: 82: PIR1bits.TMR1IF = 0;
 14438  00006A  909E               	bcf	3998,0,c	;volatile
 14439                           
 14440                           ;batterua.c: 83: T1CON = 0x31;
 14441  00006C  0E31               	movlw	49
 14442  00006E  6ECD               	movwf	4045,c	;volatile
 14443  000070                     i1l221:
 14444  000070  C01F  FFF5         	movff	??_isr_bassa+16,tablat
 14445  000074  C01E  FFF8         	movff	??_isr_bassa+15,tblptru
 14446  000078  C01D  FFF7         	movff	??_isr_bassa+14,tblptrh
 14447  00007C  C01C  FFF6         	movff	??_isr_bassa+13,tblptrl
 14448  000080  C01B  FFF4         	movff	??_isr_bassa+12,prodh
 14449  000084  C01A  FFF3         	movff	??_isr_bassa+11,prodl
 14450  000088  C019  FFDA         	movff	??_isr_bassa+10,fsr2h
 14451  00008C  C018  FFD9         	movff	??_isr_bassa+9,fsr2l
 14452  000090  C017  FFE2         	movff	??_isr_bassa+8,fsr1h
 14453  000094  C016  FFE1         	movff	??_isr_bassa+7,fsr1l
 14454  000098  C015  FFEA         	movff	??_isr_bassa+6,fsr0h
 14455  00009C  C014  FFE9         	movff	??_isr_bassa+5,fsr0l
 14456  0000A0  C013  FFFB         	movff	??_isr_bassa+4,pclatu
 14457  0000A4  C012  FFFA         	movff	??_isr_bassa+3,pclath
 14458  0000A8  C011  FFE0         	movff	??_isr_bassa+2,bsr
 14459  0000AC  C010  FFE8         	movff	??_isr_bassa+1,wreg
 14460  0000B0  C00F  FFD8         	movff	??_isr_bassa,status
 14461  0000B4  9040               	bcf	btemp,0,c	;clear compiler interrupt flag (level 1)
 14462  0000B6  0010               	retfie	
 14463  0000B8                     __end_of_isr_bassa:
 14464                           	opt stack 0
 14465                           pclatu	equ	0xFFB
 14466                           pclath	equ	0xFFA
 14467                           tblptru	equ	0xFF8
 14468                           tblptrh	equ	0xFF7
 14469                           tblptrl	equ	0xFF6
 14470                           tablat	equ	0xFF5
 14471                           prodh	equ	0xFF4
 14472                           prodl	equ	0xFF3
 14473                           intcon	equ	0xFF2
 14474                           intcon2	equ	0xFF1
 14475                           postinc0	equ	0xFEE
 14476                           fsr0h	equ	0xFEA
 14477                           fsr0l	equ	0xFE9
 14478                           wreg	equ	0xFE8
 14479                           indf1	equ	0xFE7
 14480                           postdec1	equ	0xFE5
 14481                           plusw1	equ	0xFE3
 14482                           fsr1h	equ	0xFE2
 14483                           fsr1l	equ	0xFE1
 14484                           bsr	equ	0xFE0
 14485                           indf2	equ	0xFDF
 14486                           postinc2	equ	0xFDE
 14487                           postdec2	equ	0xFDD
 14488                           plusw2	equ	0xFDB
 14489                           fsr2h	equ	0xFDA
 14490                           fsr2l	equ	0xFD9
 14491                           status	equ	0xFD8
 14492                           
 14493 ;; *************** function _isr_alta *****************
 14494 ;; Defined at:
 14495 ;;		line 45 in file "batterua.c"
 14496 ;; Parameters:    Size  Location     Type
 14497 ;;		None
 14498 ;; Auto vars:     Size  Location     Type
 14499 ;;		None
 14500 ;; Return value:  Size  Location     Type
 14501 ;;                  1    wreg      void 
 14502 ;; Registers used:
 14503 ;;		wreg, status,2, status,0
 14504 ;; Tracked objects:
 14505 ;;		On entry : 0/0
 14506 ;;		On exit  : 0/0
 14507 ;;		Unchanged: 0/0
 14508 ;; Data sizes:     COMRAM   BANK0   BANK1   BANK2   BANK3   BANK4   BANK5   BANK6   BANK7
 14509 ;;      Params:         0       0       0       0       0       0       0       0       0
 14510 ;;      Locals:         0       0       0       0       0       0       0       0       0
 14511 ;;      Temps:         14       0       0       0       0       0       0       0       0
 14512 ;;      Totals:        14       0       0       0       0       0       0       0       0
 14513 ;;Total ram usage:       14 bytes
 14514 ;; Hardware stack levels used:    1
 14515 ;; This function calls:
 14516 ;;		Nothing
 14517 ;; This function is called by:
 14518 ;;		Interrupt level 2
 14519 ;; This function uses a non-reentrant model
 14520 ;;
 14521                           
 14522                           	psect	intcode
 14523  000008                     __pintcode:
 14524                           	opt stack 0
 14525  000008                     _isr_alta:
 14526                           	opt stack 21
 14527                           
 14528                           ;incstack = 0
 14529  000008  8240               	bsf	btemp,1,c	;set compiler interrupt flag (level 2)
 14530  00000A  CFFA F001          	movff	pclath,??_isr_alta
 14531  00000E  CFFB F002          	movff	pclatu,??_isr_alta+1
 14532  000012  ED33  F01C         	call	int_func,f	;refresh shadow registers
 14533                           pclatu	equ	0xFFB
 14534                           pclath	equ	0xFFA
 14535                           tblptru	equ	0xFF8
 14536                           tblptrh	equ	0xFF7
 14537                           tblptrl	equ	0xFF6
 14538                           tablat	equ	0xFF5
 14539                           prodh	equ	0xFF4
 14540                           prodl	equ	0xFF3
 14541                           intcon	equ	0xFF2
 14542                           intcon2	equ	0xFF1
 14543                           postinc0	equ	0xFEE
 14544                           fsr0h	equ	0xFEA
 14545                           fsr0l	equ	0xFE9
 14546                           wreg	equ	0xFE8
 14547                           indf1	equ	0xFE7
 14548                           postdec1	equ	0xFE5
 14549                           plusw1	equ	0xFE3
 14550                           fsr1h	equ	0xFE2
 14551                           fsr1l	equ	0xFE1
 14552                           bsr	equ	0xFE0
 14553                           indf2	equ	0xFDF
 14554                           postinc2	equ	0xFDE
 14555                           postdec2	equ	0xFDD
 14556                           plusw2	equ	0xFDB
 14557                           fsr2h	equ	0xFDA
 14558                           fsr2l	equ	0xFD9
 14559                           status	equ	0xFD8
 14560                           
 14561                           	psect	intcode_body
 14562  003866                     __pintcode_body:
 14563                           	opt stack 21
 14564  003866                     int_func:
 14565                           	opt stack 21
 14566  003866  0006               	pop		; remove dummy address from shadow register refresh
 14567  003868  CFE9 F003          	movff	fsr0l,??_isr_alta+2
 14568  00386C  CFEA F004          	movff	fsr0h,??_isr_alta+3
 14569  003870  CFE1 F005          	movff	fsr1l,??_isr_alta+4
 14570  003874  CFE2 F006          	movff	fsr1h,??_isr_alta+5
 14571  003878  CFD9 F007          	movff	fsr2l,??_isr_alta+6
 14572  00387C  CFDA F008          	movff	fsr2h,??_isr_alta+7
 14573  003880  CFF3 F009          	movff	prodl,??_isr_alta+8
 14574  003884  CFF4 F00A          	movff	prodh,??_isr_alta+9
 14575  003888  CFF6 F00B          	movff	tblptrl,??_isr_alta+10
 14576  00388C  CFF7 F00C          	movff	tblptrh,??_isr_alta+11
 14577  003890  CFF8 F00D          	movff	tblptru,??_isr_alta+12
 14578  003894  CFF5 F00E          	movff	tablat,??_isr_alta+13
 14579                           
 14580                           ;batterua.c: 46: if (INTCONbits.TMR0IF == 1) {
 14581  003898  A4F2               	btfss	intcon,2,c	;volatile
 14582  00389A  D023               	goto	i2l4601
 14583                           
 14584                           ;batterua.c: 47: TMR0H = 0x0B;
 14585  00389C  0E0B               	movlw	11
 14586  00389E  6ED7               	movwf	4055,c	;volatile
 14587                           
 14588                           ;batterua.c: 48: TMR0L = 0xDC;
 14589  0038A0  0EDC               	movlw	220
 14590  0038A2  6ED6               	movwf	4054,c	;volatile
 14591                           
 14592                           ;batterua.c: 49: tempo++;
 14593  0038A4  0E01               	movlw	1
 14594  0038A6  2625               	addwf	_tempo,f,c	;volatile
 14595  0038A8  0E00               	movlw	0
 14596  0038AA  2226               	addwfc	_tempo+1,f,c	;volatile
 14597  0038AC  2227               	addwfc	_tempo+2,f,c	;volatile
 14598  0038AE  2228               	addwfc	_tempo+3,f,c	;volatile
 14599                           
 14600                           ;batterua.c: 50: secondi++;
 14601  0038B0  4A33               	infsnz	_secondi,f,c	;volatile
 14602  0038B2  2A34               	incf	_secondi+1,f,c	;volatile
 14603                           
 14604                           ;batterua.c: 51: if (secondi == 60) {
 14605  0038B4  0E3C               	movlw	60
 14606  0038B6  1833               	xorwf	_secondi,w,c	;volatile
 14607  0038B8  1034               	iorwf	_secondi+1,w,c	;volatile
 14608  0038BA  A4D8               	btfss	status,2,c
 14609  0038BC  D011               	goto	i2l4599
 14610                           
 14611                           ;batterua.c: 52: secondi = 0;
 14612  0038BE  0E00               	movlw	0
 14613  0038C0  6E34               	movwf	_secondi+1,c	;volatile
 14614  0038C2  0E00               	movlw	0
 14615  0038C4  6E33               	movwf	_secondi,c	;volatile
 14616                           
 14617                           ;batterua.c: 53: minuti++;
 14618  0038C6  4A2F               	infsnz	_minuti,f,c	;volatile
 14619  0038C8  2A30               	incf	_minuti+1,f,c	;volatile
 14620                           
 14621                           ;batterua.c: 54: if (minuti == 60) {
 14622  0038CA  0E3C               	movlw	60
 14623  0038CC  182F               	xorwf	_minuti,w,c	;volatile
 14624  0038CE  1030               	iorwf	_minuti+1,w,c	;volatile
 14625  0038D0  A4D8               	btfss	status,2,c
 14626  0038D2  D006               	goto	i2l4599
 14627                           
 14628                           ;batterua.c: 55: minuti = 0;
 14629  0038D4  0E00               	movlw	0
 14630  0038D6  6E30               	movwf	_minuti+1,c	;volatile
 14631  0038D8  0E00               	movlw	0
 14632  0038DA  6E2F               	movwf	_minuti,c	;volatile
 14633                           
 14634                           ;batterua.c: 56: ore++;
 14635  0038DC  4A31               	infsnz	_ore,f,c	;volatile
 14636  0038DE  2A32               	incf	_ore+1,f,c	;volatile
 14637  0038E0                     i2l4599:
 14638                           
 14639                           ;batterua.c: 57: }
 14640                           ;batterua.c: 58: }
 14641                           ;batterua.c: 59: INTCONbits.TMR0IF = 0;
 14642  0038E0  94F2               	bcf	intcon,2,c	;volatile
 14643  0038E2                     i2l4601:
 14644                           
 14645                           ;batterua.c: 60: }
 14646                           ;batterua.c: 62: if (INTCONbits.INT0IF == 1) {
 14647  0038E2  A2F2               	btfss	intcon,1,c	;volatile
 14648  0038E4  D019               	goto	i2l217
 14649                           
 14650                           ;batterua.c: 63: if (PORTBbits.RB2 == 1) {
 14651  0038E6  A481               	btfss	3969,2,c	;volatile
 14652  0038E8  D006               	goto	i2l4609
 14653                           
 14654                           ;batterua.c: 64: battery += 5;
 14655  0038EA  0E05               	movlw	5
 14656  0038EC  0100               	movlb	0	; () banked
 14657  0038EE  27F5               	addwf	_battery& (0+255),f,b	;volatile
 14658  0038F0  0E00               	movlw	0
 14659  0038F2  23F6               	addwfc	(_battery+1)& (0+255),f,b	;volatile
 14660                           
 14661                           ; BSR set to: 0
 14662                           ;batterua.c: 65: ricaricaFineCiclo = 1;
 14663  0038F4  823E               	bsf	_ricaricaFineCiclo/(0+8),_ricaricaFineCiclo& (0+7),c	;volatile
 14664  0038F6                     i2l4609:
 14665                           
 14666                           ;batterua.c: 66: }
 14667                           ;batterua.c: 67: if (PORTBbits.RB2 == 0) {
 14668  0038F6  B481               	btfsc	3969,2,c	;volatile
 14669  0038F8  D00E               	goto	i2l4617
 14670                           
 14671                           ;batterua.c: 68: if (battery > 4) {
 14672  0038FA  0100               	movlb	0	; () banked
 14673  0038FC  51F6               	movf	(_battery+1)& (0+255),w,b	;volatile
 14674  0038FE  E105               	bnz	i2u476_40
 14675  003900  0E05               	movlw	5
 14676  003902  0100               	movlb	0	; () banked
 14677  003904  5DF5               	subwf	_battery& (0+255),w,b	;volatile
 14678  003906  A0D8               	btfss	status,0,c
 14679  003908  D006               	goto	i2l4617
 14680  00390A                     i2u476_40:
 14681                           
 14682                           ; BSR set to: 0
 14683                           ;batterua.c: 69: battery -= 5;
 14684  00390A  0E05               	movlw	5
 14685  00390C  0100               	movlb	0	; () banked
 14686  00390E  5FF5               	subwf	_battery& (0+255),f,b	;volatile
 14687  003910  0E00               	movlw	0
 14688  003912  5BF6               	subwfb	(_battery+1)& (0+255),f,b	;volatile
 14689                           
 14690                           ; BSR set to: 0
 14691                           ;batterua.c: 70: ricaricaFineCiclo = 0;
 14692  003914  923E               	bcf	_ricaricaFineCiclo/(0+8),_ricaricaFineCiclo& (0+7),c	;volatile
 14693  003916                     i2l4617:
 14694                           
 14695                           ;batterua.c: 71: }
 14696                           ;batterua.c: 72: }
 14697                           ;batterua.c: 73: INTCONbits.INT0IF = 0;
 14698  003916  92F2               	bcf	intcon,1,c	;volatile
 14699  003918                     i2l217:
 14700  003918  C00E  FFF5         	movff	??_isr_alta+13,tablat
 14701  00391C  C00D  FFF8         	movff	??_isr_alta+12,tblptru
 14702  003920  C00C  FFF7         	movff	??_isr_alta+11,tblptrh
 14703  003924  C00B  FFF6         	movff	??_isr_alta+10,tblptrl
 14704  003928  C00A  FFF4         	movff	??_isr_alta+9,prodh
 14705  00392C  C009  FFF3         	movff	??_isr_alta+8,prodl
 14706  003930  C008  FFDA         	movff	??_isr_alta+7,fsr2h
 14707  003934  C007  FFD9         	movff	??_isr_alta+6,fsr2l
 14708  003938  C006  FFE2         	movff	??_isr_alta+5,fsr1h
 14709  00393C  C005  FFE1         	movff	??_isr_alta+4,fsr1l
 14710  003940  C004  FFEA         	movff	??_isr_alta+3,fsr0h
 14711  003944  C003  FFE9         	movff	??_isr_alta+2,fsr0l
 14712  003948  C002  FFFB         	movff	??_isr_alta+1,pclatu
 14713  00394C  C001  FFFA         	movff	??_isr_alta,pclath
 14714  003950  9240               	bcf	btemp,1,c	;clear compiler interrupt flag (level 2)
 14715  003952  0011               	retfie		f
 14716  003954                     __end_of_isr_alta:
 14717                           	opt stack 0
 14718                           pclatu	equ	0xFFB
 14719                           pclath	equ	0xFFA
 14720                           tblptru	equ	0xFF8
 14721                           tblptrh	equ	0xFF7
 14722                           tblptrl	equ	0xFF6
 14723                           tablat	equ	0xFF5
 14724                           prodh	equ	0xFF4
 14725                           prodl	equ	0xFF3
 14726                           intcon	equ	0xFF2
 14727                           intcon2	equ	0xFF1
 14728                           postinc0	equ	0xFEE
 14729                           fsr0h	equ	0xFEA
 14730                           fsr0l	equ	0xFE9
 14731                           wreg	equ	0xFE8
 14732                           indf1	equ	0xFE7
 14733                           postdec1	equ	0xFE5
 14734                           plusw1	equ	0xFE3
 14735                           fsr1h	equ	0xFE2
 14736                           fsr1l	equ	0xFE1
 14737                           bsr	equ	0xFE0
 14738                           indf2	equ	0xFDF
 14739                           postinc2	equ	0xFDE
 14740                           postdec2	equ	0xFDD
 14741                           plusw2	equ	0xFDB
 14742                           fsr2h	equ	0xFDA
 14743                           fsr2l	equ	0xFD9
 14744                           status	equ	0xFD8
 14745                           pclatu	equ	0xFFB
 14746                           pclath	equ	0xFFA
 14747                           tblptru	equ	0xFF8
 14748                           tblptrh	equ	0xFF7
 14749                           tblptrl	equ	0xFF6
 14750                           tablat	equ	0xFF5
 14751                           prodh	equ	0xFF4
 14752                           prodl	equ	0xFF3
 14753                           intcon	equ	0xFF2
 14754                           intcon2	equ	0xFF1
 14755                           postinc0	equ	0xFEE
 14756                           fsr0h	equ	0xFEA
 14757                           fsr0l	equ	0xFE9
 14758                           wreg	equ	0xFE8
 14759                           indf1	equ	0xFE7
 14760                           postdec1	equ	0xFE5
 14761                           plusw1	equ	0xFE3
 14762                           fsr1h	equ	0xFE2
 14763                           fsr1l	equ	0xFE1
 14764                           bsr	equ	0xFE0
 14765                           indf2	equ	0xFDF
 14766                           postinc2	equ	0xFDE
 14767                           postdec2	equ	0xFDD
 14768                           plusw2	equ	0xFDB
 14769                           fsr2h	equ	0xFDA
 14770                           fsr2l	equ	0xFD9
 14771                           status	equ	0xFD8
 14772                           
 14773                           	psect	rparam
 14774  0000                     pclatu	equ	0xFFB
 14775                           pclath	equ	0xFFA
 14776                           tblptru	equ	0xFF8
 14777                           tblptrh	equ	0xFF7
 14778                           tblptrl	equ	0xFF6
 14779                           tablat	equ	0xFF5
 14780                           prodh	equ	0xFF4
 14781                           prodl	equ	0xFF3
 14782                           intcon	equ	0xFF2
 14783                           intcon2	equ	0xFF1
 14784                           postinc0	equ	0xFEE
 14785                           fsr0h	equ	0xFEA
 14786                           fsr0l	equ	0xFE9
 14787                           wreg	equ	0xFE8
 14788                           indf1	equ	0xFE7
 14789                           postdec1	equ	0xFE5
 14790                           plusw1	equ	0xFE3
 14791                           fsr1h	equ	0xFE2
 14792                           fsr1l	equ	0xFE1
 14793                           bsr	equ	0xFE0
 14794                           indf2	equ	0xFDF
 14795                           postinc2	equ	0xFDE
 14796                           postdec2	equ	0xFDD
 14797                           plusw2	equ	0xFDB
 14798                           fsr2h	equ	0xFDA
 14799                           fsr2l	equ	0xFD9
 14800                           status	equ	0xFD8
 14801                           
 14802                           	psect	temp
 14803  000040                     btemp:
 14804                           	opt stack 0
 14805  000040                     	ds	1
 14806  0000                     int$flags	set	btemp
 14807                           pclatu	equ	0xFFB
 14808                           pclath	equ	0xFFA
 14809                           tblptru	equ	0xFF8
 14810                           tblptrh	equ	0xFF7
 14811                           tblptrl	equ	0xFF6
 14812                           tablat	equ	0xFF5
 14813                           prodh	equ	0xFF4
 14814                           prodl	equ	0xFF3
 14815                           intcon	equ	0xFF2
 14816                           intcon2	equ	0xFF1
 14817                           postinc0	equ	0xFEE
 14818                           fsr0h	equ	0xFEA
 14819                           fsr0l	equ	0xFE9
 14820                           wreg	equ	0xFE8
 14821                           indf1	equ	0xFE7
 14822                           postdec1	equ	0xFE5
 14823                           plusw1	equ	0xFE3
 14824                           fsr1h	equ	0xFE2
 14825                           fsr1l	equ	0xFE1
 14826                           bsr	equ	0xFE0
 14827                           indf2	equ	0xFDF
 14828                           postinc2	equ	0xFDE
 14829                           postdec2	equ	0xFDD
 14830                           plusw2	equ	0xFDB
 14831                           fsr2h	equ	0xFDA
 14832                           fsr2l	equ	0xFD9
 14833                           status	equ	0xFD8


Data Sizes:
    Strings     306
    Constant    180
    Data        5
    BSS         61
    Persistent  2
    Stack       0

Auto Spaces:
    Space          Size  Autos    Used
    COMRAM           94     32      63
    BANK0           160    137     155
    BANK1           256     45      65
    BANK2           256      0       0
    BANK3           256      0       0
    BANK4           256      0       0
    BANK5           256      0       0
    BANK6           256      0       0
    BANK7           256      0       0

Pointer List with Targets:

    frexp@eptr	PTR int  size(2) Largest target is 2
		 -> log@exponent(BANK0[2]), 

    eval_poly@d	PTR const  size(2) Largest target is 36
		 -> log@coeff(CODE[36]), 

    utoa@buf	PTR unsigned char  size(2) Largest target is 6
		 -> LCD_write_integer@convertedInt(BANK0[6]), 

    sp__utoa	PTR unsigned char  size(2) Largest target is 6
		 -> LCD_write_integer@convertedInt(BANK0[6]), 

    itoa@buf	PTR unsigned char  size(2) Largest target is 6
		 -> LCD_write_integer@convertedInt(BANK0[6]), 

    itoa@cp	PTR unsigned char  size(2) Largest target is 6
		 -> LCD_write_integer@convertedInt(BANK0[6]), 

    sprintf@f	PTR const unsigned char  size(2) Largest target is 8
		 -> STR_28(CODE[8]), STR_27(CODE[8]), STR_26(CODE[7]), STR_15(CODE[5]), 
		 -> STR_13(CODE[5]), 

    sprintf@sp	PTR unsigned char  size(2) Largest target is 8
		 -> str(COMRAM[8]), 

    sprintf@ap	PTR void [1] size(2) Largest target is 2
		 -> ?_sprintf(BANK0[2]), 

    sp__itoa	PTR unsigned char  size(2) Largest target is 6
		 -> LCD_write_integer@convertedInt(BANK0[6]), 

    LCD_write_string@buffer	PTR unsigned char  size(2) Largest target is 8
		 -> str(COMRAM[8]), LCD_write_integer@convertedInt(BANK0[6]), 

    LCD_write_message@buffer	PTR const unsigned char  size(2) Largest target is 21
		 -> STR_25(CODE[2]), STR_24(CODE[2]), STR_23(CODE[7]), STR_22(CODE[21]), 
		 -> STR_21(CODE[17]), STR_20(CODE[21]), STR_19(CODE[21]), STR_18(CODE[17]), 
		 -> STR_17(CODE[21]), STR_16(CODE[2]), STR_14(CODE[21]), STR_12(CODE[11]), 
		 -> STR_11(CODE[17]), STR_10(CODE[9]), STR_9(CODE[2]), STR_8(CODE[8]), 
		 -> STR_7(CODE[21]), STR_6(CODE[21]), STR_5(CODE[21]), STR_4(CODE[20]), 
		 -> STR_3(CODE[3]), STR_2(CODE[10]), STR_1(CODE[21]), 


Critical Paths under _main in COMRAM

    _utoa->___lwmod
    _sprintf->___llmod
    _sprintf->_isdigit
    _LCD_write_char->_LCD_send_command
    _LCD_home->_LCD_send_command
    _inizializzazione->_delay_set_quartz
    _LCD_initialize->_LCD_send_command
    _LCD_initialize->_delay_set_quartz
    _LCD_cursor->_LCD_send_command
    _LCD_clear->_LCD_send_command
    _LCD_shift_cursor->_LCD_send_command
    _LCD_goto_line->_LCD_send_command

Critical Paths under _isr_bassa in COMRAM

    None.

Critical Paths under _isr_alta in COMRAM

    None.

Critical Paths under _main in BANK0

    _stabilizzazione->_display_voltage
    _scarica->_display_voltage
    _LCD_write_integer->_itoa
    _itoa->_utoa
    _utoa->___lwdiv
    ___lwdiv->___wmul
    _ricarica->_display_voltage
    _display_voltage->_read_adc
    _sprintf->___fltol
    _scale->___flmul
    _fround->___flmul
    ___awdiv->___awmod
    ___fltol->_scale
    ___flsub->___fladd
    _read_adc->_log
    _log->_eval_poly
    _eval_poly->___flmul
    ___flmul->___fladd
    ___fladd->___fldiv
    ___xxtofl->___lwdiv
    ___fldiv->___xxtofl
    _LCD_write_string->_LCD_write_char
    _delay_s->_delay_ms
    _LCD_write_message->_LCD_write_char
    _LCD_write_char->_LCD_send_command
    _LCD_home->_LCD_send_command
    _inizializzazione->_LCD_initialize
    _LCD_initialize->_LCD_cursor
    _LCD_cursor->_LCD_send_command
    _LCD_clear->_LCD_send_command
    _LCD_goto_xy->_LCD_shift_cursor
    _LCD_shift_cursor->_LCD_send_command
    _LCD_goto_line->_LCD_send_command
    _LCD_enable_pulse->_delay_ms
    _delay_ms->___wmul

Critical Paths under _isr_bassa in BANK0

    None.

Critical Paths under _isr_alta in BANK0

    None.

Critical Paths under _main in BANK1

    _main->_scarica
    _display_voltage->_sprintf

Critical Paths under _isr_bassa in BANK1

    None.

Critical Paths under _isr_alta in BANK1

    None.

Critical Paths under _main in BANK2

    None.

Critical Paths under _isr_bassa in BANK2

    None.

Critical Paths under _isr_alta in BANK2

    None.

Critical Paths under _main in BANK3

    None.

Critical Paths under _isr_bassa in BANK3

    None.

Critical Paths under _isr_alta in BANK3

    None.

Critical Paths under _main in BANK4

    None.

Critical Paths under _isr_bassa in BANK4

    None.

Critical Paths under _isr_alta in BANK4

    None.

Critical Paths under _main in BANK5

    None.

Critical Paths under _isr_bassa in BANK5

    None.

Critical Paths under _isr_alta in BANK5

    None.

Critical Paths under _main in BANK6

    None.

Critical Paths under _isr_bassa in BANK6

    None.

Critical Paths under _isr_alta in BANK6

    None.

Critical Paths under _main in BANK7

    None.

Critical Paths under _isr_bassa in BANK7

    None.

Critical Paths under _isr_alta in BANK7

    None.

Call Graph Tables:

 ---------------------------------------------------------------------------------
 (Depth) Function   	        Calls       Base Space   Used Autos Params    Refs
 ---------------------------------------------------------------------------------
 (0) _main                                                14    14      0  864933
                                            135 BANK0      2     2      0
                                             33 BANK1     12    12      0
                          _LCD_clear
                      _LCD_goto_line
                        _LCD_goto_xy
                           _LCD_home
                     _LCD_initialize
                  _LCD_write_integer
                  _LCD_write_message
                   _LCD_write_string
                            ___fladd
                            ___fldiv
                             ___flge
                            ___flmul
                            ___fltol
                            ___lwdiv
                             ___wmul
                           ___xxtofl
                           _delay_ms
                            _delay_s
                   _inizializzazione
                           _read_adc
                           _ricarica
                            _scarica
                            _sprintf
                    _stabilizzazione
 ---------------------------------------------------------------------------------
 (1) _stabilizzazione                                      0     0      0  172594
                      _LCD_goto_line
                     _LCD_initialize
                  _LCD_write_message
                             ___flge
                           _delay_ms
                            _delay_s
                    _display_voltage
 ---------------------------------------------------------------------------------
 (1) _scarica                                              8     8      0  190320
                                             25 BANK1      8     8      0
                           _LCD_home
                     _LCD_initialize
                  _LCD_write_integer
                  _LCD_write_message
                            ___fladd
                             ___flge
                           _delay_ms
                    _display_voltage
 ---------------------------------------------------------------------------------
 (2) _LCD_write_integer                                   16    12      4   15109
                                             30 BANK0     16    12      4
                   _LCD_write_string
                               _itoa
 ---------------------------------------------------------------------------------
 (3) _itoa                                                 8     2      6    2378
                                             22 BANK0      8     2      6
                               _utoa
 ---------------------------------------------------------------------------------
 (4) _utoa                                                 9     3      6    1914
                                             13 BANK0      9     3      6
                            ___lwdiv
                            ___lwmod
 ---------------------------------------------------------------------------------
 (5) ___lwmod                                              5     1      4     386
                                             31 COMRAM     1     1      0
                                              0 BANK0      4     0      4
 ---------------------------------------------------------------------------------
 (5) ___lwdiv                                              7     3      4     857
                                              6 BANK0      7     3      4
                             ___wmul (ARG)
 ---------------------------------------------------------------------------------
 (1) _ricarica                                             0     0      0  236022
                          _LCD_clear
                      _LCD_goto_line
                           _LCD_home
                     _LCD_initialize
                  _LCD_write_message
                             ___flge
                           _delay_ms
                            _delay_s
                    _display_voltage
                           _read_adc
 ---------------------------------------------------------------------------------
 (2) _display_voltage                                      1     1      0  114126
                                            134 BANK0      1     1      0
                      _LCD_goto_line
                   _LCD_write_string
                           _read_adc
                            _sprintf
 ---------------------------------------------------------------------------------
 (3) _sprintf                                             43    35      8   49589
                                            116 BANK0     10     2      8
                                              0 BANK1     25    25      0
                            ___awdiv
                            ___fladd
                             ___flge
                            ___flmul
                            ___flneg
                            ___flsub
                            ___fltol
                            ___lldiv
                            ___llmod
                             ___wmul
                           ___xxtofl
                         __div_to_l_
                        __tdiv_to_l_
                             _fround
                            _isdigit
                              _scale
 ---------------------------------------------------------------------------------
 (4) _scale                                               13     9      4   10464
                                             97 BANK0      9     5      4
                            ___awdiv
                            ___awmod
                            ___flmul
 ---------------------------------------------------------------------------------
 (4) _isdigit                                              3     3      0      99
                                             31 COMRAM     1     1      0
                                              0 BANK0      2     2      0
 ---------------------------------------------------------------------------------
 (4) _fround                                              17    13      4   10185
                                             97 BANK0     13     9      4
                            ___awdiv
                            ___awmod
                            ___fladd (ARG)
                            ___flmul
 ---------------------------------------------------------------------------------
 (5) ___awmod                                              6     2      4    1819
                                              0 BANK0      6     2      4
 ---------------------------------------------------------------------------------
 (5) ___awdiv                                              8     4      4    1985
                                              6 BANK0      8     4      4
                            ___awmod (ARG)
 ---------------------------------------------------------------------------------
 (4) __tdiv_to_l_                                         17     9      8     608
                                              0 BANK0     17     9      8
 ---------------------------------------------------------------------------------
 (4) __div_to_l_                                          14     6      8     608
                                              0 BANK0     14     6      8
 ---------------------------------------------------------------------------------
 (4) ___llmod                                              9     1      8     694
                                             31 COMRAM     1     1      0
                                              0 BANK0      8     0      8
 ---------------------------------------------------------------------------------
 (4) ___lldiv                                             13     5      8     549
                                              0 BANK0     13     5      8
 ---------------------------------------------------------------------------------
 (4) ___fltol                                             10     6      4     645
                                            106 BANK0     10     6      4
                            ___flmul (ARG)
                            ___lwdiv (ARG)
                             ___wmul (ARG)
                           ___xxtofl (ARG)
                              _scale (ARG)
 ---------------------------------------------------------------------------------
 (4) ___flsub                                              8     0      8    5083
                                             72 BANK0      8     0      8
                            ___fladd
                           ___xxtofl (ARG)
 ---------------------------------------------------------------------------------
 (4) ___flneg                                              4     0      4     142
                                              0 BANK0      4     0      4
 ---------------------------------------------------------------------------------
 (3) _read_adc                                            15    15      0   44328
                                            119 BANK0     15    15      0
                            ___fladd
                            ___fldiv
                             ___flge
                            ___flmul
                           ___xxtofl
                           _delay_ms
                                _log
 ---------------------------------------------------------------------------------
 (4) _log                                                  6     2      4   24094
                                            113 BANK0      6     2      4
                            ___fladd
                            ___fldiv (ARG)
                            ___flmul
                           ___xxtofl
                          _eval_poly
                              _frexp
 ---------------------------------------------------------------------------------
 (5) _frexp                                                8     2      6     476
                                              0 BANK0      8     2      6
 ---------------------------------------------------------------------------------
 (5) _eval_poly                                           16     8      8   11198
                                             97 BANK0     16     8      8
                            ___fladd
                            ___flmul
 ---------------------------------------------------------------------------------
 (5) ___flmul                                             25    17      8    5963
                                             72 BANK0     25    17      8
                            ___awdiv (ARG)
                            ___awmod (ARG)
                            ___fladd (ARG)
                            ___fldiv (ARG)
                            ___lwdiv (ARG)
                             ___wmul (ARG)
                           ___xxtofl (ARG)
                              _frexp (ARG)
 ---------------------------------------------------------------------------------
 (5) ___fladd                                             20    12      8    4750
                                             52 BANK0     20    12      8
                            ___awdiv (ARG)
                            ___awmod (ARG)
                            ___fldiv (ARG)
                           ___xxtofl (ARG)
                              _frexp (ARG)
 ---------------------------------------------------------------------------------
 (4) ___xxtofl                                            14    10      4    1323
                                             13 BANK0     14    10      4
                            ___lwdiv (ARG)
                             ___wmul (ARG)
 ---------------------------------------------------------------------------------
 (4) ___flge                                              12     4      8    1960
                                              0 BANK0     12     4      8
 ---------------------------------------------------------------------------------
 (4) ___fldiv                                             25    17      8    3731
                                             27 BANK0     25    17      8
                           ___xxtofl (ARG)
 ---------------------------------------------------------------------------------
 (3) _LCD_write_string                                     2     0      2   10597
                                             16 BANK0      2     0      2
                     _LCD_write_char
 ---------------------------------------------------------------------------------
 (2) _delay_s                                              2     2      0    2102
                                              8 BANK0      2     2      0
                           _delay_ms
 ---------------------------------------------------------------------------------
 (2) _LCD_write_message                                    2     0      2   11906
                                             16 BANK0      2     0      2
                     _LCD_write_char
 ---------------------------------------------------------------------------------
 (4) _LCD_write_char                                       5     5      0   10070
                                             11 BANK0      5     5      0
                   _LCD_send_command
 ---------------------------------------------------------------------------------
 (2) _LCD_home                                             0     0      0    9550
                   _LCD_send_command
 ---------------------------------------------------------------------------------
 (1) _inizializzazione                                     0     0      0   30916
                     _LCD_initialize
                   _delay_set_quartz
 ---------------------------------------------------------------------------------
 (2) _LCD_initialize                                       1     1      0   30885
                                             13 BANK0      1     1      0
                          _LCD_clear
                         _LCD_cursor
                   _LCD_send_command
                           _delay_ms
                   _delay_set_quartz
 ---------------------------------------------------------------------------------
 (3) _delay_set_quartz                                     1     1      0      31
                                             31 COMRAM     1     1      0
 ---------------------------------------------------------------------------------
 (3) _LCD_cursor                                           2     1      1    9689
                                             11 BANK0      2     1      1
                   _LCD_send_command
 ---------------------------------------------------------------------------------
 (3) _LCD_clear                                            0     0      0    9550
                   _LCD_send_command
 ---------------------------------------------------------------------------------
 (1) _LCD_goto_xy                                          2     1      1   19446
                                             14 BANK0      2     1      1
                      _LCD_goto_line
                   _LCD_shift_cursor
 ---------------------------------------------------------------------------------
 (2) _LCD_shift_cursor                                     3     2      1    9726
                                             11 BANK0      3     2      1
                   _LCD_send_command
 ---------------------------------------------------------------------------------
 (3) _LCD_goto_line                                        1     1      0    9581
                                             11 BANK0      1     1      0
                   _LCD_send_command
 ---------------------------------------------------------------------------------
 (5) _LCD_send_command                                     4     1      3    9550
                                             31 COMRAM     1     1      0
                                              8 BANK0      3     0      3
                   _LCD_enable_pulse
 ---------------------------------------------------------------------------------
 (6) _LCD_enable_pulse                                     0     0      0    2034
                           _delay_ms
 ---------------------------------------------------------------------------------
 (4) _delay_ms                                             2     0      2    2034
                                              6 BANK0      2     0      2
                             ___wmul
 ---------------------------------------------------------------------------------
 (4) ___wmul                                               6     2      4    1002
                                              0 BANK0      6     2      4
 ---------------------------------------------------------------------------------
 Estimated maximum stack depth 6
 ---------------------------------------------------------------------------------
 (Depth) Function   	        Calls       Base Space   Used Autos Params    Refs
 ---------------------------------------------------------------------------------
 (9) _isr_bassa                                           17    17      0       0
                                             14 COMRAM    17    17      0
 ---------------------------------------------------------------------------------
 Estimated maximum stack depth 9
 ---------------------------------------------------------------------------------
 (Depth) Function   	        Calls       Base Space   Used Autos Params    Refs
 ---------------------------------------------------------------------------------
 (10) _isr_alta                                           14    14      0       0
                                              0 COMRAM    14    14      0
 ---------------------------------------------------------------------------------
 Estimated maximum stack depth 10
 ---------------------------------------------------------------------------------

 Call Graph Graphs:

 _main (ROOT)
   _LCD_clear
     _LCD_send_command
       _LCD_enable_pulse
         _delay_ms
           ___wmul
   _LCD_goto_line
     _LCD_send_command
       _LCD_enable_pulse
         _delay_ms
           ___wmul
   _LCD_goto_xy
     _LCD_goto_line
       _LCD_send_command
         _LCD_enable_pulse
           _delay_ms
             ___wmul
     _LCD_shift_cursor
       _LCD_send_command
         _LCD_enable_pulse
           _delay_ms
             ___wmul
   _LCD_home
     _LCD_send_command
       _LCD_enable_pulse
         _delay_ms
           ___wmul
   _LCD_initialize
     _LCD_clear
       _LCD_send_command
         _LCD_enable_pulse
           _delay_ms
             ___wmul
     _LCD_cursor
       _LCD_send_command
         _LCD_enable_pulse
           _delay_ms
             ___wmul
     _LCD_send_command
       _LCD_enable_pulse
         _delay_ms
           ___wmul
     _delay_ms
       ___wmul
     _delay_set_quartz
   _LCD_write_integer
     _LCD_write_string
       _LCD_write_char
         _LCD_send_command
           _LCD_enable_pulse
             _delay_ms
               ___wmul
     _itoa
       _utoa
         ___lwdiv
           ___wmul (ARG)
         ___lwmod
   _LCD_write_message
     _LCD_write_char
       _LCD_send_command
         _LCD_enable_pulse
           _delay_ms
             ___wmul
   _LCD_write_string
     _LCD_write_char
       _LCD_send_command
         _LCD_enable_pulse
           _delay_ms
             ___wmul
   ___fladd
     ___awdiv (ARG)
       ___awmod (ARG)
     ___awmod (ARG)
     ___fldiv (ARG)
       ___xxtofl (ARG)
         ___lwdiv (ARG)
           ___wmul (ARG)
         ___wmul (ARG)
     ___xxtofl (ARG)
       ___lwdiv (ARG)
         ___wmul (ARG)
       ___wmul (ARG)
     _frexp (ARG)
   ___fldiv
     ___xxtofl (ARG)
       ___lwdiv (ARG)
         ___wmul (ARG)
       ___wmul (ARG)
   ___flge
   ___flmul
     ___awdiv (ARG)
       ___awmod (ARG)
     ___awmod (ARG)
     ___fladd (ARG)
       ___awdiv (ARG)
         ___awmod (ARG)
       ___awmod (ARG)
       ___fldiv (ARG)
         ___xxtofl (ARG)
           ___lwdiv (ARG)
             ___wmul (ARG)
           ___wmul (ARG)
       ___xxtofl (ARG)
         ___lwdiv (ARG)
           ___wmul (ARG)
         ___wmul (ARG)
       _frexp (ARG)
     ___fldiv (ARG)
       ___xxtofl (ARG)
         ___lwdiv (ARG)
           ___wmul (ARG)
         ___wmul (ARG)
     ___lwdiv (ARG)
       ___wmul (ARG)
     ___wmul (ARG)
     ___xxtofl (ARG)
       ___lwdiv (ARG)
         ___wmul (ARG)
       ___wmul (ARG)
     _frexp (ARG)
   ___fltol
     ___flmul (ARG)
       ___awdiv (ARG)
         ___awmod (ARG)
       ___awmod (ARG)
       ___fladd (ARG)
         ___awdiv (ARG)
           ___awmod (ARG)
         ___awmod (ARG)
         ___fldiv (ARG)
           ___xxtofl (ARG)
             ___lwdiv (ARG)
               ___wmul (ARG)
             ___wmul (ARG)
         ___xxtofl (ARG)
           ___lwdiv (ARG)
             ___wmul (ARG)
           ___wmul (ARG)
         _frexp (ARG)
       ___fldiv (ARG)
         ___xxtofl (ARG)
           ___lwdiv (ARG)
             ___wmul (ARG)
           ___wmul (ARG)
       ___lwdiv (ARG)
         ___wmul (ARG)
       ___wmul (ARG)
       ___xxtofl (ARG)
         ___lwdiv (ARG)
           ___wmul (ARG)
         ___wmul (ARG)
       _frexp (ARG)
     ___lwdiv (ARG)
       ___wmul (ARG)
     ___wmul (ARG)
     ___xxtofl (ARG)
       ___lwdiv (ARG)
         ___wmul (ARG)
       ___wmul (ARG)
     _scale (ARG)
       ___awdiv
         ___awmod (ARG)
       ___awmod
       ___flmul
         ___awdiv (ARG)
           ___awmod (ARG)
         ___awmod (ARG)
         ___fladd (ARG)
           ___awdiv (ARG)
             ___awmod (ARG)
           ___awmod (ARG)
           ___fldiv (ARG)
             ___xxtofl (ARG)
               ___lwdiv (ARG)
                 ___wmul (ARG)
               ___wmul (ARG)
           ___xxtofl (ARG)
             ___lwdiv (ARG)
               ___wmul (ARG)
             ___wmul (ARG)
           _frexp (ARG)
         ___fldiv (ARG)
           ___xxtofl (ARG)
             ___lwdiv (ARG)
               ___wmul (ARG)
             ___wmul (ARG)
         ___lwdiv (ARG)
           ___wmul (ARG)
         ___wmul (ARG)
         ___xxtofl (ARG)
           ___lwdiv (ARG)
             ___wmul (ARG)
           ___wmul (ARG)
         _frexp (ARG)
   ___lwdiv
     ___wmul (ARG)
   ___wmul
   ___xxtofl
     ___lwdiv (ARG)
       ___wmul (ARG)
     ___wmul (ARG)
   _delay_ms
     ___wmul
   _delay_s
     _delay_ms
       ___wmul
   _inizializzazione
     _LCD_initialize
       _LCD_clear
         _LCD_send_command
           _LCD_enable_pulse
             _delay_ms
               ___wmul
       _LCD_cursor
         _LCD_send_command
           _LCD_enable_pulse
             _delay_ms
               ___wmul
       _LCD_send_command
         _LCD_enable_pulse
           _delay_ms
             ___wmul
       _delay_ms
         ___wmul
       _delay_set_quartz
     _delay_set_quartz
   _read_adc
     ___fladd
       ___awdiv (ARG)
         ___awmod (ARG)
       ___awmod (ARG)
       ___fldiv (ARG)
         ___xxtofl (ARG)
           ___lwdiv (ARG)
             ___wmul (ARG)
           ___wmul (ARG)
       ___xxtofl (ARG)
         ___lwdiv (ARG)
           ___wmul (ARG)
         ___wmul (ARG)
       _frexp (ARG)
     ___fldiv
       ___xxtofl (ARG)
         ___lwdiv (ARG)
           ___wmul (ARG)
         ___wmul (ARG)
     ___flge
     ___flmul
       ___awdiv (ARG)
         ___awmod (ARG)
       ___awmod (ARG)
       ___fladd (ARG)
         ___awdiv (ARG)
           ___awmod (ARG)
         ___awmod (ARG)
         ___fldiv (ARG)
           ___xxtofl (ARG)
             ___lwdiv (ARG)
               ___wmul (ARG)
             ___wmul (ARG)
         ___xxtofl (ARG)
           ___lwdiv (ARG)
             ___wmul (ARG)
           ___wmul (ARG)
         _frexp (ARG)
       ___fldiv (ARG)
         ___xxtofl (ARG)
           ___lwdiv (ARG)
             ___wmul (ARG)
           ___wmul (ARG)
       ___lwdiv (ARG)
         ___wmul (ARG)
       ___wmul (ARG)
       ___xxtofl (ARG)
         ___lwdiv (ARG)
           ___wmul (ARG)
         ___wmul (ARG)
       _frexp (ARG)
     ___xxtofl
       ___lwdiv (ARG)
         ___wmul (ARG)
       ___wmul (ARG)
     _delay_ms
       ___wmul
     _log
       ___fladd
         ___awdiv (ARG)
           ___awmod (ARG)
         ___awmod (ARG)
         ___fldiv (ARG)
           ___xxtofl (ARG)
             ___lwdiv (ARG)
               ___wmul (ARG)
             ___wmul (ARG)
         ___xxtofl (ARG)
           ___lwdiv (ARG)
             ___wmul (ARG)
           ___wmul (ARG)
         _frexp (ARG)
       ___fldiv (ARG)
         ___xxtofl (ARG)
           ___lwdiv (ARG)
             ___wmul (ARG)
           ___wmul (ARG)
       ___flmul (ARG)
         ___awdiv (ARG)
           ___awmod (ARG)
         ___awmod (ARG)
         ___fladd (ARG)
           ___awdiv (ARG)
             ___awmod (ARG)
           ___awmod (ARG)
           ___fldiv (ARG)
             ___xxtofl (ARG)
               ___lwdiv (ARG)
                 ___wmul (ARG)
               ___wmul (ARG)
           ___xxtofl (ARG)
             ___lwdiv (ARG)
               ___wmul (ARG)
             ___wmul (ARG)
           _frexp (ARG)
         ___fldiv (ARG)
           ___xxtofl (ARG)
             ___lwdiv (ARG)
               ___wmul (ARG)
             ___wmul (ARG)
         ___lwdiv (ARG)
           ___wmul (ARG)
         ___wmul (ARG)
         ___xxtofl (ARG)
           ___lwdiv (ARG)
             ___wmul (ARG)
           ___wmul (ARG)
         _frexp (ARG)
       ___xxtofl (ARG)
         ___lwdiv (ARG)
           ___wmul (ARG)
         ___wmul (ARG)
       _eval_poly (ARG)
         ___fladd
           ___awdiv (ARG)
             ___awmod (ARG)
           ___awmod (ARG)
           ___fldiv (ARG)
             ___xxtofl (ARG)
               ___lwdiv (ARG)
                 ___wmul (ARG)
               ___wmul (ARG)
           ___xxtofl (ARG)
             ___lwdiv (ARG)
               ___wmul (ARG)
             ___wmul (ARG)
           _frexp (ARG)
         ___flmul
           ___awdiv (ARG)
             ___awmod (ARG)
           ___awmod (ARG)
           ___fladd (ARG)
             ___awdiv (ARG)
               ___awmod (ARG)
             ___awmod (ARG)
             ___fldiv (ARG)
               ___xxtofl (ARG)
                 ___lwdiv (ARG)
                   ___wmul (ARG)
                 ___wmul (ARG)
             ___xxtofl (ARG)
               ___lwdiv (ARG)
                 ___wmul (ARG)
               ___wmul (ARG)
             _frexp (ARG)
           ___fldiv (ARG)
             ___xxtofl (ARG)
               ___lwdiv (ARG)
                 ___wmul (ARG)
               ___wmul (ARG)
           ___lwdiv (ARG)
             ___wmul (ARG)
           ___wmul (ARG)
           ___xxtofl (ARG)
             ___lwdiv (ARG)
               ___wmul (ARG)
             ___wmul (ARG)
           _frexp (ARG)
       _frexp (ARG)
   _ricarica
     _LCD_clear
       _LCD_send_command
         _LCD_enable_pulse
           _delay_ms
             ___wmul
     _LCD_goto_line
       _LCD_send_command
         _LCD_enable_pulse
           _delay_ms
             ___wmul
     _LCD_home
       _LCD_send_command
         _LCD_enable_pulse
           _delay_ms
             ___wmul
     _LCD_initialize
       _LCD_clear
         _LCD_send_command
           _LCD_enable_pulse
             _delay_ms
               ___wmul
       _LCD_cursor
         _LCD_send_command
           _LCD_enable_pulse
             _delay_ms
               ___wmul
       _LCD_send_command
         _LCD_enable_pulse
           _delay_ms
             ___wmul
       _delay_ms
         ___wmul
       _delay_set_quartz
     _LCD_write_message
       _LCD_write_char
         _LCD_send_command
           _LCD_enable_pulse
             _delay_ms
               ___wmul
     ___flge
     _delay_ms
       ___wmul
     _delay_s
       _delay_ms
         ___wmul
     _display_voltage
       _LCD_goto_line
         _LCD_send_command
           _LCD_enable_pulse
             _delay_ms
               ___wmul
       _LCD_write_string
         _LCD_write_char
           _LCD_send_command
             _LCD_enable_pulse
               _delay_ms
                 ___wmul
       _read_adc
         ___fladd
           ___awdiv (ARG)
             ___awmod (ARG)
           ___awmod (ARG)
           ___fldiv (ARG)
             ___xxtofl (ARG)
               ___lwdiv (ARG)
                 ___wmul (ARG)
               ___wmul (ARG)
           ___xxtofl (ARG)
             ___lwdiv (ARG)
               ___wmul (ARG)
             ___wmul (ARG)
           _frexp (ARG)
         ___fldiv
           ___xxtofl (ARG)
             ___lwdiv (ARG)
               ___wmul (ARG)
             ___wmul (ARG)
         ___flge
         ___flmul
           ___awdiv (ARG)
             ___awmod (ARG)
           ___awmod (ARG)
           ___fladd (ARG)
             ___awdiv (ARG)
               ___awmod (ARG)
             ___awmod (ARG)
             ___fldiv (ARG)
               ___xxtofl (ARG)
                 ___lwdiv (ARG)
                   ___wmul (ARG)
                 ___wmul (ARG)
             ___xxtofl (ARG)
               ___lwdiv (ARG)
                 ___wmul (ARG)
               ___wmul (ARG)
             _frexp (ARG)
           ___fldiv (ARG)
             ___xxtofl (ARG)
               ___lwdiv (ARG)
                 ___wmul (ARG)
               ___wmul (ARG)
           ___lwdiv (ARG)
             ___wmul (ARG)
           ___wmul (ARG)
           ___xxtofl (ARG)
             ___lwdiv (ARG)
               ___wmul (ARG)
             ___wmul (ARG)
           _frexp (ARG)
         ___xxtofl
           ___lwdiv (ARG)
             ___wmul (ARG)
           ___wmul (ARG)
         _delay_ms
           ___wmul
         _log
           ___fladd
             ___awdiv (ARG)
               ___awmod (ARG)
             ___awmod (ARG)
             ___fldiv (ARG)
               ___xxtofl (ARG)
                 ___lwdiv (ARG)
                   ___wmul (ARG)
                 ___wmul (ARG)
             ___xxtofl (ARG)
               ___lwdiv (ARG)
                 ___wmul (ARG)
               ___wmul (ARG)
             _frexp (ARG)
           ___fldiv (ARG)
             ___xxtofl (ARG)
               ___lwdiv (ARG)
                 ___wmul (ARG)
               ___wmul (ARG)
           ___flmul (ARG)
             ___awdiv (ARG)
               ___awmod (ARG)
             ___awmod (ARG)
             ___fladd (ARG)
               ___awdiv (ARG)
                 ___awmod (ARG)
               ___awmod (ARG)
               ___fldiv (ARG)
                 ___xxtofl (ARG)
                   ___lwdiv (ARG)
                     ___wmul (ARG)
                   ___wmul (ARG)
               ___xxtofl (ARG)
                 ___lwdiv (ARG)
                   ___wmul (ARG)
                 ___wmul (ARG)
               _frexp (ARG)
             ___fldiv (ARG)
               ___xxtofl (ARG)
                 ___lwdiv (ARG)
                   ___wmul (ARG)
                 ___wmul (ARG)
             ___lwdiv (ARG)
               ___wmul (ARG)
             ___wmul (ARG)
             ___xxtofl (ARG)
               ___lwdiv (ARG)
                 ___wmul (ARG)
               ___wmul (ARG)
             _frexp (ARG)
           ___xxtofl (ARG)
             ___lwdiv (ARG)
               ___wmul (ARG)
             ___wmul (ARG)
           _eval_poly (ARG)
             ___fladd
               ___awdiv (ARG)
                 ___awmod (ARG)
               ___awmod (ARG)
               ___fldiv (ARG)
                 ___xxtofl (ARG)
                   ___lwdiv (ARG)
                     ___wmul (ARG)
                   ___wmul (ARG)
               ___xxtofl (ARG)
                 ___lwdiv (ARG)
                   ___wmul (ARG)
                 ___wmul (ARG)
               _frexp (ARG)
             ___flmul
               ___awdiv (ARG)
                 ___awmod (ARG)
               ___awmod (ARG)
               ___fladd (ARG)
                 ___awdiv (ARG)
                   ___awmod (ARG)
                 ___awmod (ARG)
                 ___fldiv (ARG)
                   ___xxtofl (ARG)
                     ___lwdiv (ARG)
                       ___wmul (ARG)
                     ___wmul (ARG)
                 ___xxtofl (ARG)
                   ___lwdiv (ARG)
                     ___wmul (ARG)
                   ___wmul (ARG)
                 _frexp (ARG)
               ___fldiv (ARG)
                 ___xxtofl (ARG)
                   ___lwdiv (ARG)
                     ___wmul (ARG)
                   ___wmul (ARG)
               ___lwdiv (ARG)
                 ___wmul (ARG)
               ___wmul (ARG)
               ___xxtofl (ARG)
                 ___lwdiv (ARG)
                   ___wmul (ARG)
                 ___wmul (ARG)
               _frexp (ARG)
           _frexp (ARG)
       _sprintf
         ___awdiv
           ___awmod (ARG)
         ___fladd
           ___awdiv (ARG)
             ___awmod (ARG)
           ___awmod (ARG)
           ___fldiv (ARG)
             ___xxtofl (ARG)
               ___lwdiv (ARG)
                 ___wmul (ARG)
               ___wmul (ARG)
           ___xxtofl (ARG)
             ___lwdiv (ARG)
               ___wmul (ARG)
             ___wmul (ARG)
           _frexp (ARG)
         ___flge
         ___flmul
           ___awdiv (ARG)
             ___awmod (ARG)
           ___awmod (ARG)
           ___fladd (ARG)
             ___awdiv (ARG)
               ___awmod (ARG)
             ___awmod (ARG)
             ___fldiv (ARG)
               ___xxtofl (ARG)
                 ___lwdiv (ARG)
                   ___wmul (ARG)
                 ___wmul (ARG)
             ___xxtofl (ARG)
               ___lwdiv (ARG)
                 ___wmul (ARG)
               ___wmul (ARG)
             _frexp (ARG)
           ___fldiv (ARG)
             ___xxtofl (ARG)
               ___lwdiv (ARG)
                 ___wmul (ARG)
               ___wmul (ARG)
           ___lwdiv (ARG)
             ___wmul (ARG)
           ___wmul (ARG)
           ___xxtofl (ARG)
             ___lwdiv (ARG)
               ___wmul (ARG)
             ___wmul (ARG)
           _frexp (ARG)
         ___flneg
         ___flsub
           ___fladd
             ___awdiv (ARG)
               ___awmod (ARG)
             ___awmod (ARG)
             ___fldiv (ARG)
               ___xxtofl (ARG)
                 ___lwdiv (ARG)
                   ___wmul (ARG)
                 ___wmul (ARG)
             ___xxtofl (ARG)
               ___lwdiv (ARG)
                 ___wmul (ARG)
               ___wmul (ARG)
             _frexp (ARG)
           ___xxtofl (ARG)
             ___lwdiv (ARG)
               ___wmul (ARG)
             ___wmul (ARG)
         ___fltol
           ___flmul (ARG)
             ___awdiv (ARG)
               ___awmod (ARG)
             ___awmod (ARG)
             ___fladd (ARG)
               ___awdiv (ARG)
                 ___awmod (ARG)
               ___awmod (ARG)
               ___fldiv (ARG)
                 ___xxtofl (ARG)
                   ___lwdiv (ARG)
                     ___wmul (ARG)
                   ___wmul (ARG)
               ___xxtofl (ARG)
                 ___lwdiv (ARG)
                   ___wmul (ARG)
                 ___wmul (ARG)
               _frexp (ARG)
             ___fldiv (ARG)
               ___xxtofl (ARG)
                 ___lwdiv (ARG)
                   ___wmul (ARG)
                 ___wmul (ARG)
             ___lwdiv (ARG)
               ___wmul (ARG)
             ___wmul (ARG)
             ___xxtofl (ARG)
               ___lwdiv (ARG)
                 ___wmul (ARG)
               ___wmul (ARG)
             _frexp (ARG)
           ___lwdiv (ARG)
             ___wmul (ARG)
           ___wmul (ARG)
           ___xxtofl (ARG)
             ___lwdiv (ARG)
               ___wmul (ARG)
             ___wmul (ARG)
           _scale (ARG)
             ___awdiv
               ___awmod (ARG)
             ___awmod
             ___flmul
               ___awdiv (ARG)
                 ___awmod (ARG)
               ___awmod (ARG)
               ___fladd (ARG)
                 ___awdiv (ARG)
                   ___awmod (ARG)
                 ___awmod (ARG)
                 ___fldiv (ARG)
                   ___xxtofl (ARG)
                     ___lwdiv (ARG)
                       ___wmul (ARG)
                     ___wmul (ARG)
                 ___xxtofl (ARG)
                   ___lwdiv (ARG)
                     ___wmul (ARG)
                   ___wmul (ARG)
                 _frexp (ARG)
               ___fldiv (ARG)
                 ___xxtofl (ARG)
                   ___lwdiv (ARG)
                     ___wmul (ARG)
                   ___wmul (ARG)
               ___lwdiv (ARG)
                 ___wmul (ARG)
               ___wmul (ARG)
               ___xxtofl (ARG)
                 ___lwdiv (ARG)
                   ___wmul (ARG)
                 ___wmul (ARG)
               _frexp (ARG)
         ___lldiv
         ___llmod
         ___wmul
         ___xxtofl
           ___lwdiv (ARG)
             ___wmul (ARG)
           ___wmul (ARG)
         __div_to_l_
         __tdiv_to_l_
         _fround
           ___awdiv
             ___awmod (ARG)
           ___awmod
           ___fladd (ARG)
             ___awdiv (ARG)
               ___awmod (ARG)
             ___awmod (ARG)
             ___fldiv (ARG)
               ___xxtofl (ARG)
                 ___lwdiv (ARG)
                   ___wmul (ARG)
                 ___wmul (ARG)
             ___xxtofl (ARG)
               ___lwdiv (ARG)
                 ___wmul (ARG)
               ___wmul (ARG)
             _frexp (ARG)
           ___flmul (ARG)
             ___awdiv (ARG)
               ___awmod (ARG)
             ___awmod (ARG)
             ___fladd (ARG)
               ___awdiv (ARG)
                 ___awmod (ARG)
               ___awmod (ARG)
               ___fldiv (ARG)
                 ___xxtofl (ARG)
                   ___lwdiv (ARG)
                     ___wmul (ARG)
                   ___wmul (ARG)
               ___xxtofl (ARG)
                 ___lwdiv (ARG)
                   ___wmul (ARG)
                 ___wmul (ARG)
               _frexp (ARG)
             ___fldiv (ARG)
               ___xxtofl (ARG)
                 ___lwdiv (ARG)
                   ___wmul (ARG)
                 ___wmul (ARG)
             ___lwdiv (ARG)
               ___wmul (ARG)
             ___wmul (ARG)
             ___xxtofl (ARG)
               ___lwdiv (ARG)
                 ___wmul (ARG)
               ___wmul (ARG)
             _frexp (ARG)
         _isdigit
         _scale
           ___awdiv
             ___awmod (ARG)
           ___awmod
           ___flmul
             ___awdiv (ARG)
               ___awmod (ARG)
             ___awmod (ARG)
             ___fladd (ARG)
               ___awdiv (ARG)
                 ___awmod (ARG)
               ___awmod (ARG)
               ___fldiv (ARG)
                 ___xxtofl (ARG)
                   ___lwdiv (ARG)
                     ___wmul (ARG)
                   ___wmul (ARG)
               ___xxtofl (ARG)
                 ___lwdiv (ARG)
                   ___wmul (ARG)
                 ___wmul (ARG)
               _frexp (ARG)
             ___fldiv (ARG)
               ___xxtofl (ARG)
                 ___lwdiv (ARG)
                   ___wmul (ARG)
                 ___wmul (ARG)
             ___lwdiv (ARG)
               ___wmul (ARG)
             ___wmul (ARG)
             ___xxtofl (ARG)
               ___lwdiv (ARG)
                 ___wmul (ARG)
               ___wmul (ARG)
             _frexp (ARG)
     _read_adc
       ___fladd
         ___awdiv (ARG)
           ___awmod (ARG)
         ___awmod (ARG)
         ___fldiv (ARG)
           ___xxtofl (ARG)
             ___lwdiv (ARG)
               ___wmul (ARG)
             ___wmul (ARG)
         ___xxtofl (ARG)
           ___lwdiv (ARG)
             ___wmul (ARG)
           ___wmul (ARG)
         _frexp (ARG)
       ___fldiv
         ___xxtofl (ARG)
           ___lwdiv (ARG)
             ___wmul (ARG)
           ___wmul (ARG)
       ___flge
       ___flmul
         ___awdiv (ARG)
           ___awmod (ARG)
         ___awmod (ARG)
         ___fladd (ARG)
           ___awdiv (ARG)
             ___awmod (ARG)
           ___awmod (ARG)
           ___fldiv (ARG)
             ___xxtofl (ARG)
               ___lwdiv (ARG)
                 ___wmul (ARG)
               ___wmul (ARG)
           ___xxtofl (ARG)
             ___lwdiv (ARG)
               ___wmul (ARG)
             ___wmul (ARG)
           _frexp (ARG)
         ___fldiv (ARG)
           ___xxtofl (ARG)
             ___lwdiv (ARG)
               ___wmul (ARG)
             ___wmul (ARG)
         ___lwdiv (ARG)
           ___wmul (ARG)
         ___wmul (ARG)
         ___xxtofl (ARG)
           ___lwdiv (ARG)
             ___wmul (ARG)
           ___wmul (ARG)
         _frexp (ARG)
       ___xxtofl
         ___lwdiv (ARG)
           ___wmul (ARG)
         ___wmul (ARG)
       _delay_ms
         ___wmul
       _log
         ___fladd
           ___awdiv (ARG)
             ___awmod (ARG)
           ___awmod (ARG)
           ___fldiv (ARG)
             ___xxtofl (ARG)
               ___lwdiv (ARG)
                 ___wmul (ARG)
               ___wmul (ARG)
           ___xxtofl (ARG)
             ___lwdiv (ARG)
               ___wmul (ARG)
             ___wmul (ARG)
           _frexp (ARG)
         ___fldiv (ARG)
           ___xxtofl (ARG)
             ___lwdiv (ARG)
               ___wmul (ARG)
             ___wmul (ARG)
         ___flmul (ARG)
           ___awdiv (ARG)
             ___awmod (ARG)
           ___awmod (ARG)
           ___fladd (ARG)
             ___awdiv (ARG)
               ___awmod (ARG)
             ___awmod (ARG)
             ___fldiv (ARG)
               ___xxtofl (ARG)
                 ___lwdiv (ARG)
                   ___wmul (ARG)
                 ___wmul (ARG)
             ___xxtofl (ARG)
               ___lwdiv (ARG)
                 ___wmul (ARG)
               ___wmul (ARG)
             _frexp (ARG)
           ___fldiv (ARG)
             ___xxtofl (ARG)
               ___lwdiv (ARG)
                 ___wmul (ARG)
               ___wmul (ARG)
           ___lwdiv (ARG)
             ___wmul (ARG)
           ___wmul (ARG)
           ___xxtofl (ARG)
             ___lwdiv (ARG)
               ___wmul (ARG)
             ___wmul (ARG)
           _frexp (ARG)
         ___xxtofl (ARG)
           ___lwdiv (ARG)
             ___wmul (ARG)
           ___wmul (ARG)
         _eval_poly (ARG)
           ___fladd
             ___awdiv (ARG)
               ___awmod (ARG)
             ___awmod (ARG)
             ___fldiv (ARG)
               ___xxtofl (ARG)
                 ___lwdiv (ARG)
                   ___wmul (ARG)
                 ___wmul (ARG)
             ___xxtofl (ARG)
               ___lwdiv (ARG)
                 ___wmul (ARG)
               ___wmul (ARG)
             _frexp (ARG)
           ___flmul
             ___awdiv (ARG)
               ___awmod (ARG)
             ___awmod (ARG)
             ___fladd (ARG)
               ___awdiv (ARG)
                 ___awmod (ARG)
               ___awmod (ARG)
               ___fldiv (ARG)
                 ___xxtofl (ARG)
                   ___lwdiv (ARG)
                     ___wmul (ARG)
                   ___wmul (ARG)
               ___xxtofl (ARG)
                 ___lwdiv (ARG)
                   ___wmul (ARG)
                 ___wmul (ARG)
               _frexp (ARG)
             ___fldiv (ARG)
               ___xxtofl (ARG)
                 ___lwdiv (ARG)
                   ___wmul (ARG)
                 ___wmul (ARG)
             ___lwdiv (ARG)
               ___wmul (ARG)
             ___wmul (ARG)
             ___xxtofl (ARG)
               ___lwdiv (ARG)
                 ___wmul (ARG)
               ___wmul (ARG)
             _frexp (ARG)
         _frexp (ARG)
   _scarica
     _LCD_home
       _LCD_send_command
         _LCD_enable_pulse
           _delay_ms
             ___wmul
     _LCD_initialize
       _LCD_clear
         _LCD_send_command
           _LCD_enable_pulse
             _delay_ms
               ___wmul
       _LCD_cursor
         _LCD_send_command
           _LCD_enable_pulse
             _delay_ms
               ___wmul
       _LCD_send_command
         _LCD_enable_pulse
           _delay_ms
             ___wmul
       _delay_ms
         ___wmul
       _delay_set_quartz
     _LCD_write_integer
       _LCD_write_string
         _LCD_write_char
           _LCD_send_command
             _LCD_enable_pulse
               _delay_ms
                 ___wmul
       _itoa
         _utoa
           ___lwdiv
             ___wmul (ARG)
           ___lwmod
     _LCD_write_message
       _LCD_write_char
         _LCD_send_command
           _LCD_enable_pulse
             _delay_ms
               ___wmul
     ___fladd
       ___awdiv (ARG)
         ___awmod (ARG)
       ___awmod (ARG)
       ___fldiv (ARG)
         ___xxtofl (ARG)
           ___lwdiv (ARG)
             ___wmul (ARG)
           ___wmul (ARG)
       ___xxtofl (ARG)
         ___lwdiv (ARG)
           ___wmul (ARG)
         ___wmul (ARG)
       _frexp (ARG)
     ___flge
     _delay_ms
       ___wmul
     _display_voltage
       _LCD_goto_line
         _LCD_send_command
           _LCD_enable_pulse
             _delay_ms
               ___wmul
       _LCD_write_string
         _LCD_write_char
           _LCD_send_command
             _LCD_enable_pulse
               _delay_ms
                 ___wmul
       _read_adc
         ___fladd
           ___awdiv (ARG)
             ___awmod (ARG)
           ___awmod (ARG)
           ___fldiv (ARG)
             ___xxtofl (ARG)
               ___lwdiv (ARG)
                 ___wmul (ARG)
               ___wmul (ARG)
           ___xxtofl (ARG)
             ___lwdiv (ARG)
               ___wmul (ARG)
             ___wmul (ARG)
           _frexp (ARG)
         ___fldiv
           ___xxtofl (ARG)
             ___lwdiv (ARG)
               ___wmul (ARG)
             ___wmul (ARG)
         ___flge
         ___flmul
           ___awdiv (ARG)
             ___awmod (ARG)
           ___awmod (ARG)
           ___fladd (ARG)
             ___awdiv (ARG)
               ___awmod (ARG)
             ___awmod (ARG)
             ___fldiv (ARG)
               ___xxtofl (ARG)
                 ___lwdiv (ARG)
                   ___wmul (ARG)
                 ___wmul (ARG)
             ___xxtofl (ARG)
               ___lwdiv (ARG)
                 ___wmul (ARG)
               ___wmul (ARG)
             _frexp (ARG)
           ___fldiv (ARG)
             ___xxtofl (ARG)
               ___lwdiv (ARG)
                 ___wmul (ARG)
               ___wmul (ARG)
           ___lwdiv (ARG)
             ___wmul (ARG)
           ___wmul (ARG)
           ___xxtofl (ARG)
             ___lwdiv (ARG)
               ___wmul (ARG)
             ___wmul (ARG)
           _frexp (ARG)
         ___xxtofl
           ___lwdiv (ARG)
             ___wmul (ARG)
           ___wmul (ARG)
         _delay_ms
           ___wmul
         _log
           ___fladd
             ___awdiv (ARG)
               ___awmod (ARG)
             ___awmod (ARG)
             ___fldiv (ARG)
               ___xxtofl (ARG)
                 ___lwdiv (ARG)
                   ___wmul (ARG)
                 ___wmul (ARG)
             ___xxtofl (ARG)
               ___lwdiv (ARG)
                 ___wmul (ARG)
               ___wmul (ARG)
             _frexp (ARG)
           ___fldiv (ARG)
             ___xxtofl (ARG)
               ___lwdiv (ARG)
                 ___wmul (ARG)
               ___wmul (ARG)
           ___flmul (ARG)
             ___awdiv (ARG)
               ___awmod (ARG)
             ___awmod (ARG)
             ___fladd (ARG)
               ___awdiv (ARG)
                 ___awmod (ARG)
               ___awmod (ARG)
               ___fldiv (ARG)
                 ___xxtofl (ARG)
                   ___lwdiv (ARG)
                     ___wmul (ARG)
                   ___wmul (ARG)
               ___xxtofl (ARG)
                 ___lwdiv (ARG)
                   ___wmul (ARG)
                 ___wmul (ARG)
               _frexp (ARG)
             ___fldiv (ARG)
               ___xxtofl (ARG)
                 ___lwdiv (ARG)
                   ___wmul (ARG)
                 ___wmul (ARG)
             ___lwdiv (ARG)
               ___wmul (ARG)
             ___wmul (ARG)
             ___xxtofl (ARG)
               ___lwdiv (ARG)
                 ___wmul (ARG)
               ___wmul (ARG)
             _frexp (ARG)
           ___xxtofl (ARG)
             ___lwdiv (ARG)
               ___wmul (ARG)
             ___wmul (ARG)
           _eval_poly (ARG)
             ___fladd
               ___awdiv (ARG)
                 ___awmod (ARG)
               ___awmod (ARG)
               ___fldiv (ARG)
                 ___xxtofl (ARG)
                   ___lwdiv (ARG)
                     ___wmul (ARG)
                   ___wmul (ARG)
               ___xxtofl (ARG)
                 ___lwdiv (ARG)
                   ___wmul (ARG)
                 ___wmul (ARG)
               _frexp (ARG)
             ___flmul
               ___awdiv (ARG)
                 ___awmod (ARG)
               ___awmod (ARG)
               ___fladd (ARG)
                 ___awdiv (ARG)
                   ___awmod (ARG)
                 ___awmod (ARG)
                 ___fldiv (ARG)
                   ___xxtofl (ARG)
                     ___lwdiv (ARG)
                       ___wmul (ARG)
                     ___wmul (ARG)
                 ___xxtofl (ARG)
                   ___lwdiv (ARG)
                     ___wmul (ARG)
                   ___wmul (ARG)
                 _frexp (ARG)
               ___fldiv (ARG)
                 ___xxtofl (ARG)
                   ___lwdiv (ARG)
                     ___wmul (ARG)
                   ___wmul (ARG)
               ___lwdiv (ARG)
                 ___wmul (ARG)
               ___wmul (ARG)
               ___xxtofl (ARG)
                 ___lwdiv (ARG)
                   ___wmul (ARG)
                 ___wmul (ARG)
               _frexp (ARG)
           _frexp (ARG)
       _sprintf
         ___awdiv
           ___awmod (ARG)
         ___fladd
           ___awdiv (ARG)
             ___awmod (ARG)
           ___awmod (ARG)
           ___fldiv (ARG)
             ___xxtofl (ARG)
               ___lwdiv (ARG)
                 ___wmul (ARG)
               ___wmul (ARG)
           ___xxtofl (ARG)
             ___lwdiv (ARG)
               ___wmul (ARG)
             ___wmul (ARG)
           _frexp (ARG)
         ___flge
         ___flmul
           ___awdiv (ARG)
             ___awmod (ARG)
           ___awmod (ARG)
           ___fladd (ARG)
             ___awdiv (ARG)
               ___awmod (ARG)
             ___awmod (ARG)
             ___fldiv (ARG)
               ___xxtofl (ARG)
                 ___lwdiv (ARG)
                   ___wmul (ARG)
                 ___wmul (ARG)
             ___xxtofl (ARG)
               ___lwdiv (ARG)
                 ___wmul (ARG)
               ___wmul (ARG)
             _frexp (ARG)
           ___fldiv (ARG)
             ___xxtofl (ARG)
               ___lwdiv (ARG)
                 ___wmul (ARG)
               ___wmul (ARG)
           ___lwdiv (ARG)
             ___wmul (ARG)
           ___wmul (ARG)
           ___xxtofl (ARG)
             ___lwdiv (ARG)
               ___wmul (ARG)
             ___wmul (ARG)
           _frexp (ARG)
         ___flneg
         ___flsub
           ___fladd
             ___awdiv (ARG)
               ___awmod (ARG)
             ___awmod (ARG)
             ___fldiv (ARG)
               ___xxtofl (ARG)
                 ___lwdiv (ARG)
                   ___wmul (ARG)
                 ___wmul (ARG)
             ___xxtofl (ARG)
               ___lwdiv (ARG)
                 ___wmul (ARG)
               ___wmul (ARG)
             _frexp (ARG)
           ___xxtofl (ARG)
             ___lwdiv (ARG)
               ___wmul (ARG)
             ___wmul (ARG)
         ___fltol
           ___flmul (ARG)
             ___awdiv (ARG)
               ___awmod (ARG)
             ___awmod (ARG)
             ___fladd (ARG)
               ___awdiv (ARG)
                 ___awmod (ARG)
               ___awmod (ARG)
               ___fldiv (ARG)
                 ___xxtofl (ARG)
                   ___lwdiv (ARG)
                     ___wmul (ARG)
                   ___wmul (ARG)
               ___xxtofl (ARG)
                 ___lwdiv (ARG)
                   ___wmul (ARG)
                 ___wmul (ARG)
               _frexp (ARG)
             ___fldiv (ARG)
               ___xxtofl (ARG)
                 ___lwdiv (ARG)
                   ___wmul (ARG)
                 ___wmul (ARG)
             ___lwdiv (ARG)
               ___wmul (ARG)
             ___wmul (ARG)
             ___xxtofl (ARG)
               ___lwdiv (ARG)
                 ___wmul (ARG)
               ___wmul (ARG)
             _frexp (ARG)
           ___lwdiv (ARG)
             ___wmul (ARG)
           ___wmul (ARG)
           ___xxtofl (ARG)
             ___lwdiv (ARG)
               ___wmul (ARG)
             ___wmul (ARG)
           _scale (ARG)
             ___awdiv
               ___awmod (ARG)
             ___awmod
             ___flmul
               ___awdiv (ARG)
                 ___awmod (ARG)
               ___awmod (ARG)
               ___fladd (ARG)
                 ___awdiv (ARG)
                   ___awmod (ARG)
                 ___awmod (ARG)
                 ___fldiv (ARG)
                   ___xxtofl (ARG)
                     ___lwdiv (ARG)
                       ___wmul (ARG)
                     ___wmul (ARG)
                 ___xxtofl (ARG)
                   ___lwdiv (ARG)
                     ___wmul (ARG)
                   ___wmul (ARG)
                 _frexp (ARG)
               ___fldiv (ARG)
                 ___xxtofl (ARG)
                   ___lwdiv (ARG)
                     ___wmul (ARG)
                   ___wmul (ARG)
               ___lwdiv (ARG)
                 ___wmul (ARG)
               ___wmul (ARG)
               ___xxtofl (ARG)
                 ___lwdiv (ARG)
                   ___wmul (ARG)
                 ___wmul (ARG)
               _frexp (ARG)
         ___lldiv
         ___llmod
         ___wmul
         ___xxtofl
           ___lwdiv (ARG)
             ___wmul (ARG)
           ___wmul (ARG)
         __div_to_l_
         __tdiv_to_l_
         _fround
           ___awdiv
             ___awmod (ARG)
           ___awmod
           ___fladd (ARG)
             ___awdiv (ARG)
               ___awmod (ARG)
             ___awmod (ARG)
             ___fldiv (ARG)
               ___xxtofl (ARG)
                 ___lwdiv (ARG)
                   ___wmul (ARG)
                 ___wmul (ARG)
             ___xxtofl (ARG)
               ___lwdiv (ARG)
                 ___wmul (ARG)
               ___wmul (ARG)
             _frexp (ARG)
           ___flmul (ARG)
             ___awdiv (ARG)
               ___awmod (ARG)
             ___awmod (ARG)
             ___fladd (ARG)
               ___awdiv (ARG)
                 ___awmod (ARG)
               ___awmod (ARG)
               ___fldiv (ARG)
                 ___xxtofl (ARG)
                   ___lwdiv (ARG)
                     ___wmul (ARG)
                   ___wmul (ARG)
               ___xxtofl (ARG)
                 ___lwdiv (ARG)
                   ___wmul (ARG)
                 ___wmul (ARG)
               _frexp (ARG)
             ___fldiv (ARG)
               ___xxtofl (ARG)
                 ___lwdiv (ARG)
                   ___wmul (ARG)
                 ___wmul (ARG)
             ___lwdiv (ARG)
               ___wmul (ARG)
             ___wmul (ARG)
             ___xxtofl (ARG)
               ___lwdiv (ARG)
                 ___wmul (ARG)
               ___wmul (ARG)
             _frexp (ARG)
         _isdigit
         _scale
           ___awdiv
             ___awmod (ARG)
           ___awmod
           ___flmul
             ___awdiv (ARG)
               ___awmod (ARG)
             ___awmod (ARG)
             ___fladd (ARG)
               ___awdiv (ARG)
                 ___awmod (ARG)
               ___awmod (ARG)
               ___fldiv (ARG)
                 ___xxtofl (ARG)
                   ___lwdiv (ARG)
                     ___wmul (ARG)
                   ___wmul (ARG)
               ___xxtofl (ARG)
                 ___lwdiv (ARG)
                   ___wmul (ARG)
                 ___wmul (ARG)
               _frexp (ARG)
             ___fldiv (ARG)
               ___xxtofl (ARG)
                 ___lwdiv (ARG)
                   ___wmul (ARG)
                 ___wmul (ARG)
             ___lwdiv (ARG)
               ___wmul (ARG)
             ___wmul (ARG)
             ___xxtofl (ARG)
               ___lwdiv (ARG)
                 ___wmul (ARG)
               ___wmul (ARG)
             _frexp (ARG)
   _sprintf
     ___awdiv
       ___awmod (ARG)
     ___fladd
       ___awdiv (ARG)
         ___awmod (ARG)
       ___awmod (ARG)
       ___fldiv (ARG)
         ___xxtofl (ARG)
           ___lwdiv (ARG)
             ___wmul (ARG)
           ___wmul (ARG)
       ___xxtofl (ARG)
         ___lwdiv (ARG)
           ___wmul (ARG)
         ___wmul (ARG)
       _frexp (ARG)
     ___flge
     ___flmul
       ___awdiv (ARG)
         ___awmod (ARG)
       ___awmod (ARG)
       ___fladd (ARG)
         ___awdiv (ARG)
           ___awmod (ARG)
         ___awmod (ARG)
         ___fldiv (ARG)
           ___xxtofl (ARG)
             ___lwdiv (ARG)
               ___wmul (ARG)
             ___wmul (ARG)
         ___xxtofl (ARG)
           ___lwdiv (ARG)
             ___wmul (ARG)
           ___wmul (ARG)
         _frexp (ARG)
       ___fldiv (ARG)
         ___xxtofl (ARG)
           ___lwdiv (ARG)
             ___wmul (ARG)
           ___wmul (ARG)
       ___lwdiv (ARG)
         ___wmul (ARG)
       ___wmul (ARG)
       ___xxtofl (ARG)
         ___lwdiv (ARG)
           ___wmul (ARG)
         ___wmul (ARG)
       _frexp (ARG)
     ___flneg
     ___flsub
       ___fladd
         ___awdiv (ARG)
           ___awmod (ARG)
         ___awmod (ARG)
         ___fldiv (ARG)
           ___xxtofl (ARG)
             ___lwdiv (ARG)
               ___wmul (ARG)
             ___wmul (ARG)
         ___xxtofl (ARG)
           ___lwdiv (ARG)
             ___wmul (ARG)
           ___wmul (ARG)
         _frexp (ARG)
       ___xxtofl (ARG)
         ___lwdiv (ARG)
           ___wmul (ARG)
         ___wmul (ARG)
     ___fltol
       ___flmul (ARG)
         ___awdiv (ARG)
           ___awmod (ARG)
         ___awmod (ARG)
         ___fladd (ARG)
           ___awdiv (ARG)
             ___awmod (ARG)
           ___awmod (ARG)
           ___fldiv (ARG)
             ___xxtofl (ARG)
               ___lwdiv (ARG)
                 ___wmul (ARG)
               ___wmul (ARG)
           ___xxtofl (ARG)
             ___lwdiv (ARG)
               ___wmul (ARG)
             ___wmul (ARG)
           _frexp (ARG)
         ___fldiv (ARG)
           ___xxtofl (ARG)
             ___lwdiv (ARG)
               ___wmul (ARG)
             ___wmul (ARG)
         ___lwdiv (ARG)
           ___wmul (ARG)
         ___wmul (ARG)
         ___xxtofl (ARG)
           ___lwdiv (ARG)
             ___wmul (ARG)
           ___wmul (ARG)
         _frexp (ARG)
       ___lwdiv (ARG)
         ___wmul (ARG)
       ___wmul (ARG)
       ___xxtofl (ARG)
         ___lwdiv (ARG)
           ___wmul (ARG)
         ___wmul (ARG)
       _scale (ARG)
         ___awdiv
           ___awmod (ARG)
         ___awmod
         ___flmul
           ___awdiv (ARG)
             ___awmod (ARG)
           ___awmod (ARG)
           ___fladd (ARG)
             ___awdiv (ARG)
               ___awmod (ARG)
             ___awmod (ARG)
             ___fldiv (ARG)
               ___xxtofl (ARG)
                 ___lwdiv (ARG)
                   ___wmul (ARG)
                 ___wmul (ARG)
             ___xxtofl (ARG)
               ___lwdiv (ARG)
                 ___wmul (ARG)
               ___wmul (ARG)
             _frexp (ARG)
           ___fldiv (ARG)
             ___xxtofl (ARG)
               ___lwdiv (ARG)
                 ___wmul (ARG)
               ___wmul (ARG)
           ___lwdiv (ARG)
             ___wmul (ARG)
           ___wmul (ARG)
           ___xxtofl (ARG)
             ___lwdiv (ARG)
               ___wmul (ARG)
             ___wmul (ARG)
           _frexp (ARG)
     ___lldiv
     ___llmod
     ___wmul
     ___xxtofl
       ___lwdiv (ARG)
         ___wmul (ARG)
       ___wmul (ARG)
     __div_to_l_
     __tdiv_to_l_
     _fround
       ___awdiv
         ___awmod (ARG)
       ___awmod
       ___fladd (ARG)
         ___awdiv (ARG)
           ___awmod (ARG)
         ___awmod (ARG)
         ___fldiv (ARG)
           ___xxtofl (ARG)
             ___lwdiv (ARG)
               ___wmul (ARG)
             ___wmul (ARG)
         ___xxtofl (ARG)
           ___lwdiv (ARG)
             ___wmul (ARG)
           ___wmul (ARG)
         _frexp (ARG)
       ___flmul (ARG)
         ___awdiv (ARG)
           ___awmod (ARG)
         ___awmod (ARG)
         ___fladd (ARG)
           ___awdiv (ARG)
             ___awmod (ARG)
           ___awmod (ARG)
           ___fldiv (ARG)
             ___xxtofl (ARG)
               ___lwdiv (ARG)
                 ___wmul (ARG)
               ___wmul (ARG)
           ___xxtofl (ARG)
             ___lwdiv (ARG)
               ___wmul (ARG)
             ___wmul (ARG)
           _frexp (ARG)
         ___fldiv (ARG)
           ___xxtofl (ARG)
             ___lwdiv (ARG)
               ___wmul (ARG)
             ___wmul (ARG)
         ___lwdiv (ARG)
           ___wmul (ARG)
         ___wmul (ARG)
         ___xxtofl (ARG)
           ___lwdiv (ARG)
             ___wmul (ARG)
           ___wmul (ARG)
         _frexp (ARG)
     _isdigit
     _scale
       ___awdiv
         ___awmod (ARG)
       ___awmod
       ___flmul
         ___awdiv (ARG)
           ___awmod (ARG)
         ___awmod (ARG)
         ___fladd (ARG)
           ___awdiv (ARG)
             ___awmod (ARG)
           ___awmod (ARG)
           ___fldiv (ARG)
             ___xxtofl (ARG)
               ___lwdiv (ARG)
                 ___wmul (ARG)
               ___wmul (ARG)
           ___xxtofl (ARG)
             ___lwdiv (ARG)
               ___wmul (ARG)
             ___wmul (ARG)
           _frexp (ARG)
         ___fldiv (ARG)
           ___xxtofl (ARG)
             ___lwdiv (ARG)
               ___wmul (ARG)
             ___wmul (ARG)
         ___lwdiv (ARG)
           ___wmul (ARG)
         ___wmul (ARG)
         ___xxtofl (ARG)
           ___lwdiv (ARG)
             ___wmul (ARG)
           ___wmul (ARG)
         _frexp (ARG)
   _stabilizzazione
     _LCD_goto_line
       _LCD_send_command
         _LCD_enable_pulse
           _delay_ms
             ___wmul
     _LCD_initialize
       _LCD_clear
         _LCD_send_command
           _LCD_enable_pulse
             _delay_ms
               ___wmul
       _LCD_cursor
         _LCD_send_command
           _LCD_enable_pulse
             _delay_ms
               ___wmul
       _LCD_send_command
         _LCD_enable_pulse
           _delay_ms
             ___wmul
       _delay_ms
         ___wmul
       _delay_set_quartz
     _LCD_write_message
       _LCD_write_char
         _LCD_send_command
           _LCD_enable_pulse
             _delay_ms
               ___wmul
     ___flge
     _delay_ms
       ___wmul
     _delay_s
       _delay_ms
         ___wmul
     _display_voltage
       _LCD_goto_line
         _LCD_send_command
           _LCD_enable_pulse
             _delay_ms
               ___wmul
       _LCD_write_string
         _LCD_write_char
           _LCD_send_command
             _LCD_enable_pulse
               _delay_ms
                 ___wmul
       _read_adc
         ___fladd
           ___awdiv (ARG)
             ___awmod (ARG)
           ___awmod (ARG)
           ___fldiv (ARG)
             ___xxtofl (ARG)
               ___lwdiv (ARG)
                 ___wmul (ARG)
               ___wmul (ARG)
           ___xxtofl (ARG)
             ___lwdiv (ARG)
               ___wmul (ARG)
             ___wmul (ARG)
           _frexp (ARG)
         ___fldiv
           ___xxtofl (ARG)
             ___lwdiv (ARG)
               ___wmul (ARG)
             ___wmul (ARG)
         ___flge
         ___flmul
           ___awdiv (ARG)
             ___awmod (ARG)
           ___awmod (ARG)
           ___fladd (ARG)
             ___awdiv (ARG)
               ___awmod (ARG)
             ___awmod (ARG)
             ___fldiv (ARG)
               ___xxtofl (ARG)
                 ___lwdiv (ARG)
                   ___wmul (ARG)
                 ___wmul (ARG)
             ___xxtofl (ARG)
               ___lwdiv (ARG)
                 ___wmul (ARG)
               ___wmul (ARG)
             _frexp (ARG)
           ___fldiv (ARG)
             ___xxtofl (ARG)
               ___lwdiv (ARG)
                 ___wmul (ARG)
               ___wmul (ARG)
           ___lwdiv (ARG)
             ___wmul (ARG)
           ___wmul (ARG)
           ___xxtofl (ARG)
             ___lwdiv (ARG)
               ___wmul (ARG)
             ___wmul (ARG)
           _frexp (ARG)
         ___xxtofl
           ___lwdiv (ARG)
             ___wmul (ARG)
           ___wmul (ARG)
         _delay_ms
           ___wmul
         _log
           ___fladd
             ___awdiv (ARG)
               ___awmod (ARG)
             ___awmod (ARG)
             ___fldiv (ARG)
               ___xxtofl (ARG)
                 ___lwdiv (ARG)
                   ___wmul (ARG)
                 ___wmul (ARG)
             ___xxtofl (ARG)
               ___lwdiv (ARG)
                 ___wmul (ARG)
               ___wmul (ARG)
             _frexp (ARG)
           ___fldiv (ARG)
             ___xxtofl (ARG)
               ___lwdiv (ARG)
                 ___wmul (ARG)
               ___wmul (ARG)
           ___flmul (ARG)
             ___awdiv (ARG)
               ___awmod (ARG)
             ___awmod (ARG)
             ___fladd (ARG)
               ___awdiv (ARG)
                 ___awmod (ARG)
               ___awmod (ARG)
               ___fldiv (ARG)
                 ___xxtofl (ARG)
                   ___lwdiv (ARG)
                     ___wmul (ARG)
                   ___wmul (ARG)
               ___xxtofl (ARG)
                 ___lwdiv (ARG)
                   ___wmul (ARG)
                 ___wmul (ARG)
               _frexp (ARG)
             ___fldiv (ARG)
               ___xxtofl (ARG)
                 ___lwdiv (ARG)
                   ___wmul (ARG)
                 ___wmul (ARG)
             ___lwdiv (ARG)
               ___wmul (ARG)
             ___wmul (ARG)
             ___xxtofl (ARG)
               ___lwdiv (ARG)
                 ___wmul (ARG)
               ___wmul (ARG)
             _frexp (ARG)
           ___xxtofl (ARG)
             ___lwdiv (ARG)
               ___wmul (ARG)
             ___wmul (ARG)
           _eval_poly (ARG)
             ___fladd
               ___awdiv (ARG)
                 ___awmod (ARG)
               ___awmod (ARG)
               ___fldiv (ARG)
                 ___xxtofl (ARG)
                   ___lwdiv (ARG)
                     ___wmul (ARG)
                   ___wmul (ARG)
               ___xxtofl (ARG)
                 ___lwdiv (ARG)
                   ___wmul (ARG)
                 ___wmul (ARG)
               _frexp (ARG)
             ___flmul
               ___awdiv (ARG)
                 ___awmod (ARG)
               ___awmod (ARG)
               ___fladd (ARG)
                 ___awdiv (ARG)
                   ___awmod (ARG)
                 ___awmod (ARG)
                 ___fldiv (ARG)
                   ___xxtofl (ARG)
                     ___lwdiv (ARG)
                       ___wmul (ARG)
                     ___wmul (ARG)
                 ___xxtofl (ARG)
                   ___lwdiv (ARG)
                     ___wmul (ARG)
                   ___wmul (ARG)
                 _frexp (ARG)
               ___fldiv (ARG)
                 ___xxtofl (ARG)
                   ___lwdiv (ARG)
                     ___wmul (ARG)
                   ___wmul (ARG)
               ___lwdiv (ARG)
                 ___wmul (ARG)
               ___wmul (ARG)
               ___xxtofl (ARG)
                 ___lwdiv (ARG)
                   ___wmul (ARG)
                 ___wmul (ARG)
               _frexp (ARG)
           _frexp (ARG)
       _sprintf
         ___awdiv
           ___awmod (ARG)
         ___fladd
           ___awdiv (ARG)
             ___awmod (ARG)
           ___awmod (ARG)
           ___fldiv (ARG)
             ___xxtofl (ARG)
               ___lwdiv (ARG)
                 ___wmul (ARG)
               ___wmul (ARG)
           ___xxtofl (ARG)
             ___lwdiv (ARG)
               ___wmul (ARG)
             ___wmul (ARG)
           _frexp (ARG)
         ___flge
         ___flmul
           ___awdiv (ARG)
             ___awmod (ARG)
           ___awmod (ARG)
           ___fladd (ARG)
             ___awdiv (ARG)
               ___awmod (ARG)
             ___awmod (ARG)
             ___fldiv (ARG)
               ___xxtofl (ARG)
                 ___lwdiv (ARG)
                   ___wmul (ARG)
                 ___wmul (ARG)
             ___xxtofl (ARG)
               ___lwdiv (ARG)
                 ___wmul (ARG)
               ___wmul (ARG)
             _frexp (ARG)
           ___fldiv (ARG)
             ___xxtofl (ARG)
               ___lwdiv (ARG)
                 ___wmul (ARG)
               ___wmul (ARG)
           ___lwdiv (ARG)
             ___wmul (ARG)
           ___wmul (ARG)
           ___xxtofl (ARG)
             ___lwdiv (ARG)
               ___wmul (ARG)
             ___wmul (ARG)
           _frexp (ARG)
         ___flneg
         ___flsub
           ___fladd
             ___awdiv (ARG)
               ___awmod (ARG)
             ___awmod (ARG)
             ___fldiv (ARG)
               ___xxtofl (ARG)
                 ___lwdiv (ARG)
                   ___wmul (ARG)
                 ___wmul (ARG)
             ___xxtofl (ARG)
               ___lwdiv (ARG)
                 ___wmul (ARG)
               ___wmul (ARG)
             _frexp (ARG)
           ___xxtofl (ARG)
             ___lwdiv (ARG)
               ___wmul (ARG)
             ___wmul (ARG)
         ___fltol
           ___flmul (ARG)
             ___awdiv (ARG)
               ___awmod (ARG)
             ___awmod (ARG)
             ___fladd (ARG)
               ___awdiv (ARG)
                 ___awmod (ARG)
               ___awmod (ARG)
               ___fldiv (ARG)
                 ___xxtofl (ARG)
                   ___lwdiv (ARG)
                     ___wmul (ARG)
                   ___wmul (ARG)
               ___xxtofl (ARG)
                 ___lwdiv (ARG)
                   ___wmul (ARG)
                 ___wmul (ARG)
               _frexp (ARG)
             ___fldiv (ARG)
               ___xxtofl (ARG)
                 ___lwdiv (ARG)
                   ___wmul (ARG)
                 ___wmul (ARG)
             ___lwdiv (ARG)
               ___wmul (ARG)
             ___wmul (ARG)
             ___xxtofl (ARG)
               ___lwdiv (ARG)
                 ___wmul (ARG)
               ___wmul (ARG)
             _frexp (ARG)
           ___lwdiv (ARG)
             ___wmul (ARG)
           ___wmul (ARG)
           ___xxtofl (ARG)
             ___lwdiv (ARG)
               ___wmul (ARG)
             ___wmul (ARG)
           _scale (ARG)
             ___awdiv
               ___awmod (ARG)
             ___awmod
             ___flmul
               ___awdiv (ARG)
                 ___awmod (ARG)
               ___awmod (ARG)
               ___fladd (ARG)
                 ___awdiv (ARG)
                   ___awmod (ARG)
                 ___awmod (ARG)
                 ___fldiv (ARG)
                   ___xxtofl (ARG)
                     ___lwdiv (ARG)
                       ___wmul (ARG)
                     ___wmul (ARG)
                 ___xxtofl (ARG)
                   ___lwdiv (ARG)
                     ___wmul (ARG)
                   ___wmul (ARG)
                 _frexp (ARG)
               ___fldiv (ARG)
                 ___xxtofl (ARG)
                   ___lwdiv (ARG)
                     ___wmul (ARG)
                   ___wmul (ARG)
               ___lwdiv (ARG)
                 ___wmul (ARG)
               ___wmul (ARG)
               ___xxtofl (ARG)
                 ___lwdiv (ARG)
                   ___wmul (ARG)
                 ___wmul (ARG)
               _frexp (ARG)
         ___lldiv
         ___llmod
         ___wmul
         ___xxtofl
           ___lwdiv (ARG)
             ___wmul (ARG)
           ___wmul (ARG)
         __div_to_l_
         __tdiv_to_l_
         _fround
           ___awdiv
             ___awmod (ARG)
           ___awmod
           ___fladd (ARG)
             ___awdiv (ARG)
               ___awmod (ARG)
             ___awmod (ARG)
             ___fldiv (ARG)
               ___xxtofl (ARG)
                 ___lwdiv (ARG)
                   ___wmul (ARG)
                 ___wmul (ARG)
             ___xxtofl (ARG)
               ___lwdiv (ARG)
                 ___wmul (ARG)
               ___wmul (ARG)
             _frexp (ARG)
           ___flmul (ARG)
             ___awdiv (ARG)
               ___awmod (ARG)
             ___awmod (ARG)
             ___fladd (ARG)
               ___awdiv (ARG)
                 ___awmod (ARG)
               ___awmod (ARG)
               ___fldiv (ARG)
                 ___xxtofl (ARG)
                   ___lwdiv (ARG)
                     ___wmul (ARG)
                   ___wmul (ARG)
               ___xxtofl (ARG)
                 ___lwdiv (ARG)
                   ___wmul (ARG)
                 ___wmul (ARG)
               _frexp (ARG)
             ___fldiv (ARG)
               ___xxtofl (ARG)
                 ___lwdiv (ARG)
                   ___wmul (ARG)
                 ___wmul (ARG)
             ___lwdiv (ARG)
               ___wmul (ARG)
             ___wmul (ARG)
             ___xxtofl (ARG)
               ___lwdiv (ARG)
                 ___wmul (ARG)
               ___wmul (ARG)
             _frexp (ARG)
         _isdigit
         _scale
           ___awdiv
             ___awmod (ARG)
           ___awmod
           ___flmul
             ___awdiv (ARG)
               ___awmod (ARG)
             ___awmod (ARG)
             ___fladd (ARG)
               ___awdiv (ARG)
                 ___awmod (ARG)
               ___awmod (ARG)
               ___fldiv (ARG)
                 ___xxtofl (ARG)
                   ___lwdiv (ARG)
                     ___wmul (ARG)
                   ___wmul (ARG)
               ___xxtofl (ARG)
                 ___lwdiv (ARG)
                   ___wmul (ARG)
                 ___wmul (ARG)
               _frexp (ARG)
             ___fldiv (ARG)
               ___xxtofl (ARG)
                 ___lwdiv (ARG)
                   ___wmul (ARG)
                 ___wmul (ARG)
             ___lwdiv (ARG)
               ___wmul (ARG)
             ___wmul (ARG)
             ___xxtofl (ARG)
               ___lwdiv (ARG)
                 ___wmul (ARG)
               ___wmul (ARG)
             _frexp (ARG)

 _isr_bassa (ROOT)

 _isr_alta (ROOT)

 Address spaces:
Name               Size   Autos  Total    Cost      Usage
BIGRAM             7FF      0       0      21        0.0%
EEDATA             100      0       0       0        0.0%
BITBANK7           100      0       0      18        0.0%
BANK7              100      0       0      19        0.0%
BITBANK6           100      0       0      16        0.0%
BANK6              100      0       0      17        0.0%
BITBANK5           100      0       0      14        0.0%
BANK5              100      0       0      15        0.0%
BITBANK4           100      0       0      12        0.0%
BANK4              100      0       0      13        0.0%
BITBANK3           100      0       0      10        0.0%
BANK3              100      0       0      11        0.0%
BITBANK2           100      0       0       8        0.0%
BANK2              100      0       0       9        0.0%
BITBANK1           100      0       0       6        0.0%
BANK1              100     2D      41       7       25.4%
BITBANK0            A0      0       0       4        0.0%
BANK0               A0     89      9B       5       96.9%
BITCOMRAM           5E      0       1       0        1.1%
COMRAM              5E     20      3F       1       67.0%
BITSFR               0      0       0      40        0.0%
SFR                  0      0       0      40        0.0%
STACK                0      0       0       2        0.0%
NULL                 0      0       0       0        0.0%
ABS                  0      0     11B      20        0.0%
DATA                 0      0     11B       3        0.0%
CODE                 0      0       0       0        0.0%


Microchip Technology PIC18 Macro Assembler V1.37 build -260352376 
Symbol Table                                                                                   Tue Aug 23 11:43:19 2016

                     ___fldiv@aexp 0093                       ___fldiv@bexp 0092  
        __size_of_delay_set_quartz 0008                       ___fldiv@sign 0087  
                     ___awdiv@sign 006B                 delay_s@repeat_loop 0069  
                      __CFG_BOR$ON 000000                                 bsr 000FE0  
              ___wmul@multiplicand 0062                        __CFG_BORV$3 000000  
                     __CFG_CP0$OFF 000000                       __CFG_CP1$OFF 000000  
                     __CFG_CP2$OFF 000000                       __CFG_CP3$OFF 000000  
                              l231 09EC                                l242 0EB0  
                              l163 42F2                                l244 0EAC  
                              l228 099A                                l239 0BCC  
                              l257 356E                                l283 13C2  
                              l371 0694                                l700 2F16  
                              l285 13DC                                l606 3068  
                              l288 1846                                l900 1A1E  
                              l901 19EA                                l763 3BA2  
                              l916 1B9E                                l596 322E  
                              l925 1C32                                l693 2E52  
                              l694 2E96                                l858 40B4  
                              l955 23C6                                l964 23FE  
                              l868 41E0                                l789 3D38  
                              l966 246C                                l958 236E  
                              l799 3FBA                                l992 2042  
                              l985 1DA6                                l994 20B0  
                              l899 1A2A                       __CFG_CPB$OFF 000000  
                     __CFG_CPD$OFF 000000                        ?_LCD_cursor 006B  
               _sommatoriaCorrente 00ED                                _log 3240  
                              _ore 0031                                _str 0036  
                     ___awmod@sign 0065                                prod 000FF3  
                              wreg 000FE8                       __CFG_FOSC$HS 000000  
                     ___flmul@aexp 00B5                       ___flmul@bexp 00BA  
                     ___flmul@sign 00B4                       ___flmul@temp 00BF  
                     ___flmul@prod 00BB                       __CFG_LVP$OFF 000000  
           __size_of_LCD_goto_line 00EC                       ___fltol@exp1 00D3  
                     __CFG_WDT$OFF 000000                               l1002 2154  
                             l1021 2B4E                               l1022 2B66  
                             l1014 2AF2                               l1007 2A46  
                             l5001 1D8E                               l5011 1DCE  
                             l5003 1D94                               l5007 1DBA  
                             l5121 3C02                               l5211 373C  
                             l5131 3C32                               l5115 3BEC  
                             l6003 0524                               l5053 202C  
                             l6021 059C                               l6005 052A  
                             l5221 4070                               l6111 4228  
                             l5127 3C20                               l5143 3C70  
                             l6023 05A4                               l6031 063A  
                             l5231 40A6                               l5223 4076  
                             l6201 4458                               l5209 369C  
                             l5129 3C2C                               l5401 44B2  
                             l6041 0676                               l6033 0648  
                             l6017 0570                               l5241 41AA  
                             l6107 41F6                               l6115 4468  
                             l5083 2126                               l5059 2056  
                             l5323 3292                               l5411 2DC4  
                             l5147 3C84                               l5139 3C62  
                             l5171 3E52                               l5163 3E2C  
                             l5219 4064                               l5243 41B0  
                             l6131 2C28                               l5093 2174  
                             l5085 213A                               l5069 20AA  
                             l5317 3262                               l6053 06C8  
                             l6045 0698                               l6141 2CC0  
                             l6119 447E                               l5263 2A7E  
                             l5095 217E                               l5079 2100  
                             l5511 31F8                               l5183 3E98  
                             l5175 3E76                               l5167 3E40  
                             l5159 3E1C                               l5351 27D8  
                             l5343 26EC                               l6039 0662  
                             l5247 41D4                               l5239 41A0  
                             l6151 2D78                               l5601 23C2  
                             l5265 2A86                               l5257 2A56  
                             l5417 2DFE                               l5169 3E4C  
                             l6057 072A                               l6129 2C20  
                             l5275 2B30                               l5267 2A96  
                             l5195 3D82                               l5507 31E4  
                             l5451 2EE0                               l5179 3E84  
                             l5371 1112                               l6091 08C6  
                             l6083 086E                               l6075 083A  
                             l6067 0812                               l6307 3598  
                             l6315 35D0                               l6147 2D00  
                             l5613 2412                               l5533 21DA  
                             l5277 2B40                               l5269 2AD4  
                             l4805 18FA                               l5517 3214  
                             l5365 104C                               l6069 0820  
                             l6077 0848                               l6333 3FE0  
                             l6421 09A4                               l5623 2466  
                             l5607 23E8                               l5527 21B6  
                             l4911 1BD0                               l4903 1B7E  
                             l5519 3224                               l5447 2ECC  
                             l5383 12AE                               l5375 113E  
                             l6095 08F2                               l6087 0896  
                             l6431 09D4                               l6407 0954  
                             l5641 2520                               l5633 24BC  
                             l5553 2238                               l5537 21E4  
                             l5289 2BB8                               l4921 1BF2  
                             l4817 192E                               l4809 1904  
                             l5801 3FAA                               l5473 3104  
                             l5457 2EFC                               l6097 08F8  
                             l6361 2886                               l6433 09E4  
                             l5811 39BE                               l5547 2214  
                             l5715 37EE                               l5467 30DE  
                             l5459 2F0C                               l6099 0916  
                             l6347 4014                               l5813 39F0  
                             l6197 4446                               l5637 24EA  
                             l5557 2242                               l4917 1BE6  
                             l4861 1A04                               l4781 188C  
                             l5733 3854                               l5725 381E  
                             l5389 1374                               l6293 353C  
                             l6461 0B56                               ?_log 00D1  
                             l4759 42E4                               l5807 395A  
                             l5815 3A22                               l5823 44D0  
                             l5647 2530                               l5639 24FE  
                             l5671 2FC4                               l4951 1C9A  
                             l4927 1C06                               l4847 196A  
                             l4775 1868                               l5727 382E  
                             l5719 3802                               l5495 31AC  
                             l5487 3158                               l5809 398C  
                             l5649 2534                               l5577 22C4  
                             l5569 2296                               l5681 30B4  
                             l4961 1CCC                               l4937 1C2C  
                             l4929 1C0C                               l4865 1A0E  
                             l4793 18C2                               l4785 1896  
                             l5729 3838                               l5913 0118  
                             l5905 00E6                               l5833 4260  
                             l6385 29CA                               l5819 44BC  
                             l5595 237A                               l5587 2342  
                             l5675 3016                               l5667 2F76  
                             l4955 1CBC                               l4947 1C88  
                             l4883 1A8C                               l4875 1A4E  
                             l4859 19FE                               l5923 0184  
                             l5739 3B1A                               l4885 1A92  
                             l4893 1AAE                               l5773 3CBC  
                             l5917 015E                               l5749 3B5C  
                             l6477 0CE0                               l4967 1CE0  
                             l4959 1CC8                               l4799 18D6  
                             l4983 1D34                               l5847 13B8  
                             l5775 3CCC                               l5935 01CA  
                             l5927 018A                               l5919 0174  
                             l4889 1A9C                               l4985 1D3A  
                             l4977 1D10                               l5865 145E  
                             l5689 4326                               l5785 3D26  
                             l5777 3CD2                               l5793 3F52  
                             l5961 02A0                               l5945 021C  
                             l5929 01B0                               l4995 1D6A  
                             l4987 1D4C                               l5699 3780  
                             l5795 3F60                               l5797 3F66  
                             l5973 0356                               l5975 036C  
                             l5985 0410                               l5977 03A8  
                             l5969 0324                               l5979 03BE  
                             l5899 00CC                               l5989 0442  
                             l5999 04AC                               STR_1 7F75  
                             STR_2 7F6B                               STR_3 7FFA  
                             STR_4 7F8A                               STR_5 7ECD  
                             STR_6 7EE2                               STR_7 7F0C  
                             STR_8 7EDA                               STR_9 7FDA  
                             _LATA 000F89                               _LATB 000F8A  
                             _LATC 000F8B                               _LATD 000F8C  
                             _LATE 000F8D                               u5000 19CE  
                             u7100 297A                               u5440 2114  
                             u5360 1FCE                               u5505 4366  
                             u5506 4368                               u5365 1FC2  
                             u5640 3DB4                               u6290 24D0  
                             u5475 4344                               u5476 4346  
                             u5485 4350                               u5486 4352  
                             u6390 37A0                               u7247 42E6  
                             u5495 435C                               u5496 435E  
                             u5648 3DB8                               u6561 13AA  
                             u6395 3794                               u5931 2DA0  
                             u4980 19B4                               u4990 19CC  
                             u6830 068C                               u5951 2DDA  
                             u6951 2BD4                       ?_LCD_goto_xy 006E  
                             _main 0924                               _itoa 4236  
        __size_of_LCD_send_command 0036                               fsr0h 000FEA  
                             fsr1h 000FE2                               fsr0l 000FE9  
                             fsr2h 000FDA                               indf1 000FE7  
                             fsr1l 000FE1                               indf2 000FDF  
                             fsr2l 000FD9                               btemp 0040  
                             _utoa 3B12                               log@x 00D1  
                             pclat 000FFA                               prodh 000FF4  
                             prodl 000FF3                               start 00B8  
                    __CFG_IESO$OFF 000000            __end_of_display_voltage 3B12  
                  ___fldiv@new_exp 008C                 __size_of_LCD_clear 0032  
                     _sprintf$1519 0100                     delay_s@value_s 0068  
                    __CFG_MCLRE$ON 000000                       ___param_bank 000010  
         __end_of_LCD_enable_pulse 4502                              ??_log 0020  
          __size_of_LCD_initialize 016E                      __CFG_PLLDIV$1 000000  
                 __end_of_LCD_home 43D6                      ___fltol@sign1 00D2  
                  __end_of___fladd 1CF2                              ?_main 0001  
                  __end_of___fldiv 2558                              ?_itoa 0076  
                  __end_of___awdiv 3C8E                    __end_of___flneg 4338  
                            STR_10 7ED9                              STR_11 7FAF  
                            STR_12 7FD1                              STR_20 7F36  
                            STR_13 7FE7                              STR_21 7FC0  
                            STR_14 7F60                              STR_22 7F4B  
                            STR_15 7FDF                              STR_23 7FEC  
                            STR_24 7FDA                              STR_16 7FFD  
                            STR_25 7FDA                              STR_17 7EF7  
                            STR_26 7FF3                              STR_18 7F9E  
                            STR_27 7FE4                              STR_19 7F21  
                            STR_28 7FDC                    __end_of___awmod 3EA2  
                  __end_of___flmul 2198                   ?_stabilizzazione 0001  
                  __end_of___flsub 42C6                    __end_of___fltol 3866  
                  __end_of___lldiv 3D4A                              ?_utoa 006D  
                            _T0CON 000FD5                    ___awdiv@divisor 0068  
                            _T1CON 000FCD                    __end_of___llmod 3FCC  
                  __end_of___lwdiv 40BE                              i1l221 0070  
                  __end_of___lwmod 41EA                              i2l217 3918  
                  ___awdiv@counter 006A                              _TMR0H 000FD7  
                            _TMR1H 000FCF                              _TMR0L 000FD6  
                            _TMR1L 000FCE                      __CFG_USBDIV$1 000000  
                            _TRISA 000F92                              _TRISB 000F93  
                            _TRISC 000F94                              _TRISD 000F95  
                            _TRISE 000F96                      __CFG_PWRT$OFF 000000  
                  __end_of_delay_s 4466                      __CFG_WRT0$OFF 000000  
                    __CFG_WRT1$OFF 000000                      __CFG_WRT2$OFF 000000  
                    __CFG_WRT3$OFF 000000                     __CFG_EBTR0$OFF 000000  
                   __CFG_FCMEN$OFF 000000                     __CFG_EBTR1$OFF 000000  
                   __CFG_EBTR2$OFF 000000                     __CFG_EBTR3$OFF 000000  
                    __CFG_WRTB$OFF 000000                      __CFG_WRTC$OFF 000000  
                    __CFG_WRTD$OFF 000000                     __CFG_EBTRB$OFF 000000  
                  __end_of_dpowers 7EA9                              _frexp 3D4A  
                            _errno 002D                              _scale 0ECE  
                  __end_of_isdigit 44BA                              _tempo 0025  
        __size_of_LCD_shift_cursor 004C                    __end_of_scarica 29FC  
                            _somme 0021                              _stati 0035  
                   __pbitbssCOMRAM 01F0                              tablat 000FF5  
                            plusw1 000FE3                              plusw2 000FDB  
                            utoa@c 0075                              utoa@v 0073  
                            status 000FD8                    __end_of_sprintf 0924  
                 _inizializzazione 40BE                     __CFG_ICPRT$OFF 000000  
              __size_of_LCD_cursor 0032                    __initialization 4128  
                      log@exponent 00D5                       __end_of_main 0ECE  
                     __end_of_itoa 427E                      _LCD_goto_line 3954  
                     __end_of_utoa 3BD0                  ?_LCD_write_string 0070  
                           ??_main 00E7                             ??_itoa 0021  
                           ??_utoa 0021                      __activetblptr 000002  
               ??_LCD_write_string 0021               __size_of__tdiv_to_l_ 019E  
                __end_of_LCD_clear 443A                    __CFG_CCP2MX$OFF 000000  
           LCD_write_string@buffer 0070                             _ADCON0 000FC2  
                           _ADCON1 000FC1                             _ADCON2 000FC0  
                           ?_frexp 0060                   ___llmod@dividend 0060  
                           ?_scale 00C1                             _ADRESH 000FC4  
                           _ADRESL 000FC3                   ___awdiv@dividend 0066  
                           i2l4601 38E2                             i2l4617 3916  
                           i2l4609 38F6                             i2l4599 38E0  
                 __end_of___xxtofl 2BCA                   __end_of_delay_ms 4300  
                 ?_display_voltage 0001                     __CFG_XINST$OFF 000000  
                 __end_of__powers_ 7E81                     ?_LCD_goto_line 0001  
                           ___flge 2F28                          ??___fladd 009C  
                 _delay_set_quartz 451E                             ___wmul 436E  
                        ??___fldiv 0083                          ??___awdiv 0020  
                        ??___flneg 0020                     __CFG_STVREN$ON 000000  
                        ??___awmod 0020                          ??___flmul 00B0  
                        ??___flsub 0020                          ??___fltol 00CE  
                        ??___lldiv 0020                          ??___llmod 0020  
                        ??___lwdiv 0020                          ??___lwmod 0020  
          __size_of_LCD_write_char 0096                   __end_of_read_adc 184A  
                           _fround 2558                             _inizio 01F0  
   LCD_initialize@quartz_frequency 006D                             clear_0 412E  
                           clear_1 413A                             clear_2 4148  
                 ___awdiv@quotient 006C                             _minuti 002F  
                  ___awmod@divisor 0062                          ??_delay_s 0020  
                  ___awmod@counter 0064                   __end_of_isr_alta 3954  
                 __end_of_ricarica 364A                             itoa@cp 007C  
                     __pdataCOMRAM 003F                          ??_isdigit 0020  
                        ??_scarica 0119                       __mediumconst 7E18  
                           tblptrh 000FF7                             tblptrl 000FF6  
                           tblptru 000FF8                          ??_sprintf 00DC  
                       ___flge@ff1 0060                         ___flge@ff2 0064  
                     ___xxtofl@arg 0077                       ___xxtofl@exp 0076  
                     ___xxtofl@val 006D                   __end_oflog@coeff 7ECD  
                       __accesstop 0060            __end_of__initialization 4180  
                  __CFG_PBADEN$OFF 000000                         ___flneg@f1 0060  
                 _LCD_send_command 4338                          ?_LCD_home 0001  
                     eval_poly@res 00CD                      ___rparam_used 000001  
LCD_write_integer@number_of_digits 0080                         ___fltol@f1 00CA  
             __size_of_LCD_goto_xy 001C             LCD_write_integer@F4453 0135  
                   __pcstackCOMRAM 0001                       __pidataBANK1 4526  
                     LCD_goto_xy@x 006F                       LCD_goto_xy@y 006E  
                    __end_of_frexp 3E00                      __end_of_scale 13A0  
                   _LCD_initialize 33C6                  _LCD_write_integer 2BCA  
                _LCD_write_message 4466                 ?_LCD_write_integer 007E  
           LCD_write_integer@index 008D                 ?_LCD_write_message 0070  
                       __div_to_l_ 30B8                       ??_LCD_cursor 0021  
           LCD_write_integer@value 007E      LCD_write_integer@convertedInt 0087  
              ??_LCD_write_integer 0082                    __div_to_l_@exp1 006D  
              ??_LCD_write_message 0021                    __div_to_l_@cntr 006C  
                          ??_frexp 0066                            ??_scale 0020  
                 _LCD_shift_cursor 41EA                    __div_to_l_@quot 0068  
                       __pbssBANK0 00E9                         __pbssBANK1 012D  
               __size_of_eval_poly 0110                         ??_LCD_home 0021  
                    __div_to_l_@f1 0060                      __div_to_l_@f2 0064  
                  ??_LCD_goto_line 0021                 __end_of_LCD_cursor 4408  
               __size_of_isr_bassa 00A0             __end_of_LCD_initialize 3534  
                          ?___flge 0060                            ?___wmul 0060  
        __end_of_LCD_write_integer 2D8A          __end_of_LCD_write_message 4492  
                ?_LCD_enable_pulse 0001                            ?_fround 00C1  
               ??_LCD_enable_pulse 0020           __end_of_inizializzazione 4128  
                        ?___xxtofl 006D                   LCD_cursor@active 006C  
                        ?_delay_ms 0066                    __CFG_VREGEN$OFF 000000  
                        ?_read_adc 0001                          ?_isr_alta 0001  
                        ?_ricarica 0001                  __end_of__npowers_ 7E4D  
                          __Hparam 0000                         _scale$1518 00C5  
                          __Lparam 0000                   delay_ms@value_ms 0066  
                  ?_LCD_initialize 0001                    __size_of___flge 0190  
                          ___fladd 184A                            ___fldiv 2198  
                          ___awdiv 3BD0                            ___flneg 4300  
                          ___awmod 3E00                            ___flmul 1CF2  
                          ___flsub 427E                            ___fltol 375A  
                          ___lldiv 3C8E                    __size_of___wmul 0036  
                   _LCD_write_char 3EA2                            ___llmod 3F38  
                          ___lwdiv 4046                            ___lwmod 418E  
                          __pcinit 4128                  __end_of_eval_poly 375A  
                          _battery 00F5                    __size_of_fround 02D2  
                          _delay_s 443A                            __ramtop 0800  
              LCD_write_char@value 006F                            __ptext0 0924  
                          __ptext1 3FCC                            __ptext2 282A  
                          __ptext3 2BCA                            __ptext4 4236  
                          __ptext5 3B12                            __ptext6 418E  
                          __ptext7 4046                            __ptext8 3534  
                          __ptext9 3A40                        ?__div_to_l_ 0060  
                 LCD_write_char@D0 006E                   LCD_write_char@D1 006D  
                 LCD_write_char@D2 006C                   LCD_write_char@D3 006B  
                          _dpowers 7E81                            _current 00E9  
                     __size_of_log 0186                            _isdigit 4492  
                       ??___xxtofl 0071                   ___awmod@dividend 0060  
                          _scarica 282A                            _secondi 0033  
                       ??_delay_ms 0020                  __end_of_isr_bassa 00B8  
         __end_of_delay_set_quartz 4526                            _sprintf 00BC  
                          main@ore 012B           __size_of_stabilizzazione 007A  
                          _voltage 00F1                     __pintcode_body 3866  
                        _LCD_clear 4408               end_of_initialization 4180  
        __size_of_LCD_write_string 0026                       _combinazioni 013B  
                          itoa@buf 0076                            itoa@val 0078  
                    __Lmediumconst 7E18                         ??_read_adc 00D7  
                          int_func 3866                         ??_isr_alta 0001  
                       ??_ricarica 0021                    ___lldiv@divisor 0064  
               LCD_cursor@blinking 006B                    ___lldiv@counter 006C  
           __end_of_LCD_write_char 3F38                            postdec1 000FE5  
                          postdec2 000FDD                            postinc0 000FEE  
                          postinc2 000FDE         __size_of_LCD_write_integer 01C0  
       __size_of_LCD_write_message 002C                            utoa@buf 006D  
                   __tdiv_to_l_@f1 0060                     __tdiv_to_l_@f2 0064  
                          utoa@val 006F                      ??__tdiv_to_l_ 0068  
                        _PORTBbits 000F81           __end_of_LCD_send_command 436E  
                      ___fladd@grs 00A7                      ___xxtofl@sign 0075  
              display_voltage@line 00E6                    read_adc@lettura 00DE  
                      ___fldiv@grs 008E                        ___fldiv@rem 0088  
                       ?_LCD_clear 0001            _clock_counter_reference 013F  
                      ___flmul@grs 00B6                         main@minuti 0129  
              __size_of__div_to_l_ 0188                  __size_of_LCD_home 0032  
                  ?_LCD_write_char 0001           __end_of_LCD_shift_cursor 4236  
                   __end_of___flge 30B8                     __end_of___wmul 43A4  
                    __pidataCOMRAM 452A           __size_of_display_voltage 00D2  
                LCD_shift_cursor@i 006D                     __end_of_fround 282A  
              start_initialization 4128                         eval_poly@d 00C5  
                       eval_poly@n 00C7                         eval_poly@x 00C1  
              __end_of__tdiv_to_l_ 2F28                        __end_of_log 33C6  
                    ??_LCD_goto_xy 0021                         frexp@value 0060  
                  ___llmod@divisor 0064                    ___llmod@counter 0020  
                ??_stabilizzazione 0021                           ??___flge 0068  
                         ??___wmul 0020                        __pdataBANK1 013B  
                 __CFG_LPT1OSC$OFF 000000                           ??_fround 0020  
                    sprintf@tmpval 010E                          ___fladd@a 0098  
                        ___fladd@b 0094                         fround@prec 00CD  
                        ___fldiv@a 007F                          ___fldiv@b 007B  
                ?_inizializzazione 0001                          ___flmul@a 00AC  
                        ___flmul@b 00A8                        __pbssCOMRAM 0021  
                        ___flsub@a 00AC                          ___flsub@b 00A8  
                    __pcstackBANK0 0060                      __pcstackBANK1 0100  
               ??_inizializzazione 0021                  __size_of___xxtofl 01CE  
        __size_of_LCD_enable_pulse 0022                       _isdigit$1085 0060  
                __size_of_delay_ms 003A                        ??_LCD_clear 0021  
          LCD_write_message@buffer 0070                   _LCD_write_string 44BA  
                      sprintf@flag 0106                        sprintf@fval 0114  
                      sprintf@prec 0112                   ??_LCD_initialize 0021  
                        __pnvBANK1 013F          delay_set_quartz@frequency 0020  
                __size_of_read_adc 04AA                          _main$1515 0121  
                 ___lwdiv@dividend 0066                 LCD_send_command@D0 006A  
               LCD_send_command@D1 0069                 LCD_send_command@D2 0068  
               LCD_send_command@D3 0020                  __size_of_isr_alta 394C  
              __end_of_LCD_goto_xy 451E              __end_of_LCD_goto_line 3A40  
                        __pintcode 0008                  __size_of_ricarica 0116  
                    __pmediumconst 7E18                           ?___fladd 0094  
                _ricaricaFineCiclo 01F1                           ?___fldiv 007B  
                         ?___awdiv 0066                           ?___flneg 0060  
                         ?___awmod 0060                           ?___flmul 00A8  
                         ?___flsub 00A8                           ?___fltol 00CA  
                         ?___lldiv 0060                           ?___llmod 0060  
                        __npowers_ 7E19                           ?___lwdiv 0066  
                         ?___lwmod 0060                        __pintcodelo 0018  
                         ?_delay_s 0001                        __tdiv_to_l_ 2D8A  
                     ??__div_to_l_ 0020                           ?_isdigit 0001  
                        _eval_poly 364A                           ?_scarica 0001  
                ??_display_voltage 0021                   ___lwdiv@quotient 006B  
                         ?_sprintf 00D4                     __size_of_frexp 00B6  
                   __size_of_scale 04D2                  ?_delay_set_quartz 0001  
                        _isr_bassa 0018                 ??_delay_set_quartz 0020  
                   ___wmul@product 0064                           _LATBbits 000F8A  
                         _LATCbits 000F8B                           _LATEbits 000F8D  
                         _LCD_home 43A4       _delay_quartz_frequency_value 003F  
                         _PIR1bits 000F9E                 __end_of__div_to_l_ 3240  
                         i2u476_40 390A                           _RCONbits 000FD0  
                 __CFG_WDTPS$32768 000000                          _tempo_old 0029  
                         _UCONbits 000F6D     LCD_write_integer@zero_cleaning 0081  
                       _ADCON0bits 000FC2                  ___wmul@multiplier 0060  
                ?_LCD_send_command 0068                         ?_eval_poly 00C1  
               ??_LCD_send_command 0020                        _INTCON2bits 000FF1  
                        copy_data0 4162                         ?_isr_bassa 0001  
                      _LCD_goto_xy 4502                   ??_LCD_write_char 0021  
                LCD_goto_line@line 006B                          frexp@eptr 0064  
                         __Hrparam 0000                           __Lrparam 0000  
                        read_adc@i 00DD                   __size_of___fladd 04A8  
                 __size_of___fldiv 03C0                   __size_of___awdiv 00BE  
                 __size_of___flneg 0038                   __size_of___awmod 00A2  
                 __size_of___flmul 04A6                  ?_LCD_shift_cursor 006B  
                 __size_of___flsub 0048                   __size_of___fltol 010C  
                 __size_of___lldiv 00BC                   __size_of___llmod 0094  
                 __size_of___lwdiv 0078                   __size_of___lwmod 005C  
                  main@percentuale 0125                        _fround$1516 00C9  
                      _fround$1517 00C5                 ??_LCD_shift_cursor 0021  
                 __size_of_delay_s 002C                         sprintf@exp 010C  
                       sprintf@val 0108                           ___xxtofl 29FC  
                 __size_of_isdigit 0028                           _delay_ms 42C6  
                  ___lwdiv@divisor 0068                   __size_of_scarica 01D2  
                  _stabilizzazione 3FCC                    ___lwdiv@counter 006A  
                 _LCD_enable_pulse 44E0                           __ptext10 00BC  
                         __ptext11 0ECE                           __ptext20 375A  
                         __ptext12 4492                           __ptext21 427E  
                         __ptext13 2558                           __ptext30 2F28  
                         __ptext22 4300                           __ptext14 3E00  
                         __ptext31 2198                           __ptext23 13A0  
                         __ptext15 3BD0                           __ptext40 43D6  
                         __ptext32 44BA                           __ptext24 3240  
                         __ptext16 2D8A                           __ptext41 4408  
                         __ptext33 443A                           __ptext25 3D4A  
                         __ptext17 30B8                           __ptext42 4502  
                         __ptext34 4466                           __ptext26 364A  
                         __ptext18 3F38                           __ptext43 41EA  
                         __ptext35 3EA2                           __ptext27 1CF2  
                         __ptext19 3C8E                           __ptext44 3954  
                         __ptext36 43A4                           __ptext28 184A  
                         __ptext45 4338                           __ptext37 40BE  
                         __ptext29 29FC                           __ptext46 44E0  
                         __ptext38 33C6                           __ptext47 42C6  
                         __ptext39 451E                           __ptext48 436E  
                         __powers_ 7E4D                   __size_of_sprintf 0868  
                    read_adc@F4633 012D                           _read_adc 13A0  
                    __size_of_main 05AA                      __size_of_itoa 0048  
                    __size_of_utoa 00BE                           _isr_alta 0008  
            LCD_shift_cursor@shift 006C                           _ricarica 3534  
                         int$flags 0040           __end_of_LCD_write_string 44E0  
            __CFG_CPUDIV$OSC1_PLL2 000000                           log@coeff 7EA9  
                       _LCD_cursor 43D6                         _INTCONbits 000FF2  
                      ??_eval_poly 00C9                           itoa@base 007A  
                         isdigit@c 0061                           scale@scl 00C9  
                         intlevel1 0000                           intlevel2 0000  
                        sprintf@ap 0104                   __tdiv_to_l_@exp1 0070  
                        sprintf@sp 00D4                   __tdiv_to_l_@cntr 006F  
                      ??_isr_bassa 000F                   __tdiv_to_l_@quot 006B  
                 ___lwmod@dividend 0060                   ___lldiv@dividend 0060  
        __size_of_inizializzazione 006A                    _display_voltage 3A40  
                     ?__tdiv_to_l_ 0060                           utoa@base 0071  
          __end_of_stabilizzazione 4046                        _temperature 00F7  
                         sprintf@c 0118                           sprintf@f 00D6  
                 ___lldiv@quotient 0068                    ___lwmod@divisor 0062  
  LCD_shift_cursor@number_of_shift 006B                    ___lwmod@counter 0020  
                    ___fladd@signs 00A4                       ___fladd@aexp 00A5  
                     ___fladd@bexp 00A6                  read_adc@logaritmo 00D9  
